ccopy_reg
_reconstructor
p0
(cpanda_eup.panda_primitive
PandaProgram
p1
c__builtin__
object
p2
Ntp3
Rp4
(dp5
S'effect_of_primitive'
p6
(dp7
cpanda_eup.panda_primitive
UserSync
p8
(lp9
I00
aI00
ascpanda_eup.panda_primitive
MoveFingers
p10
(lp11
I00
aI01
ascpanda_eup.panda_primitive
ApplyForceFingers
p12
(lp13
I00
aI01
ascpanda_eup.panda_primitive
MoveToContact
p14
(lp15
I01
aI00
ascpanda_eup.panda_primitive
MoveToEE
p16
(lp17
I01
aI00
assS'description'
p18
S'Empty Description'
p19
sS'arm_state_list'
p20
(lp21
g0
(cgeometry_msgs.msg._PoseStamped
PoseStamped
p22
g2
Ntp23
Rp24
(lp25
g0
(cstd_msgs.msg._Header
Header
p26
g2
Ntp27
Rp28
(lp29
I0
ag0
(cgenpy.rostime
Time
p30
g2
Ntp31
Rp32
(lp33
I0
aI0
abaS'panda_link0'
p34
abag0
(cgeometry_msgs.msg._Pose
Pose
p35
g2
Ntp36
Rp37
(lp38
g0
(cgeometry_msgs.msg._Point
Point
p39
g2
Ntp40
Rp41
(lp42
F0.4833974233623748
aF0.007318751177980708
aF0.3904495689279949
abag0
(cgeometry_msgs.msg._Quaternion
Quaternion
p43
g2
Ntp44
Rp45
(lp46
F0.9993500431690824
aF-0.014042189921340717
aF-0.02007113406023331
aF-0.026447262574839425
abababag0
(g22
g2
Ntp47
Rp48
(lp49
g0
(g26
g2
Ntp50
Rp51
(lp52
I0
ag0
(g30
g2
Ntp53
Rp54
(lp55
I0
aI0
abaS'panda_link0'
p56
abag0
(g35
g2
Ntp57
Rp58
(lp59
g0
(g39
g2
Ntp60
Rp61
(lp62
F0.49857932428479074
aF0.0014031363736811964
aF0.022633324655452314
abag0
(g43
g2
Ntp63
Rp64
(lp65
F0.9990250529703593
aF-0.02970762628217786
aF0.013078587453249992
aF-0.029922416822123196
abababag0
(g22
g2
Ntp66
Rp67
(lp68
g0
(g26
g2
Ntp69
Rp70
(lp71
I0
ag0
(g30
g2
Ntp72
Rp73
(lp74
I0
aI0
abaS'panda_link0'
p75
abag0
(g35
g2
Ntp76
Rp77
(lp78
g0
(g39
g2
Ntp79
Rp80
(lp81
F0.6404225030201885
aF-0.21899515188976365
aF0.31947401035356376
abag0
(g43
g2
Ntp82
Rp83
(lp84
F0.8476936441278499
aF-0.15503337362532482
aF0.5028616917286283
aF0.06715845262823286
abababag0
(g22
g2
Ntp85
Rp86
(lp87
g0
(g26
g2
Ntp88
Rp89
(lp90
I0
ag0
(g30
g2
Ntp91
Rp92
(lp93
I0
aI0
abaS'panda_link0'
p94
abag0
(g35
g2
Ntp95
Rp96
(lp97
g0
(g39
g2
Ntp98
Rp99
(lp100
F0.48697273191184176
aF-0.0003249795766055996
aF0.3672047165651558
abag0
(g43
g2
Ntp101
Rp102
(lp103
F0.9986485219265587
aF-0.028677903984510297
aF0.042164274523526495
aF-0.010043974853580964
abababasS'gripper_state_list'
p104
(lp105
g0
(cpanda_eup.panda_primitive
GripperState
p106
g2
Ntp107
Rp108
(dp109
S'width'
p110
F0.08
sS'force'
p111
F0.0
sbag0
(g106
g2
Ntp112
Rp113
(dp114
g110
F0.03186015412211418
sg111
F21.6
sbag0
(g106
g2
Ntp115
Rp116
(dp117
g110
F0.0700223371386528
sg111
F0.0
sbasS'primitives'
p118
(lp119
g0
(g14
g2
Ntp120
Rp121
(dp122
S'status'
p123
cpanda_eup.panda_primitive
PandaPrimitiveStatus
p124
(I1
tp125
Rp126
sS'revertible'
p127
I01
sg18
S'A Move to Contact primitive'
p128
sS'starting_arm_state_index'
p129
I0
sS'parameters_with_effects_on_robot_state'
p130
(lp131
S'pose'
p132
aS'force_threshold'
p133
aS'torque_threshold'
p134
asS'expected_container'
p135
cpanda_pbd.msg._MoveToContactGoal
MoveToContactGoal
p136
sS'gui_tunable_parameter_strict_ranges'
p137
(dp138
S'force_threshold'
p139
(lp140
F5.0
aF20.0
asS'position_speed'
p141
(lp142
F0.01
aF0.25
assS'container_update_history'
p143
(lp144
g0
(g136
g2
Ntp145
Rp146
(lp147
g0
(g22
g2
Ntp148
Rp149
(lp150
g0
(g26
g2
Ntp151
Rp152
(lp153
I0
ag0
(g30
g2
Ntp154
Rp155
(lp156
I0
aI0
abaS'panda_link0'
p157
abag0
(g35
g2
Ntp158
Rp159
(lp160
g0
(g39
g2
Ntp161
Rp162
(lp163
F0.5069132714754178
aF0.004873624607929537
aF0.027077189596690976
abag0
(g43
g2
Ntp164
Rp165
(lp166
F0.9995143312059889
aF-0.02583181235790082
aF0.016166211683465017
aF-0.006517114695673689
abababaF0.07
aF-1.0
aF10.0
aF10.0
abag0
(g136
g2
Ntp167
Rp168
(lp169
g0
(g22
g2
Ntp170
Rp171
(lp172
g0
(g26
g2
Ntp173
Rp174
(lp175
I0
ag0
(g30
g2
Ntp176
Rp177
(lp178
I0
aI0
abag157
abag0
(g35
g2
Ntp179
Rp180
(lp181
g0
(g39
g2
Ntp182
Rp183
(lp184
F0.5069132714754178
aF0.004873624607929537
aF0.027077189596690976
abag0
(g43
g2
Ntp185
Rp186
(lp187
F0.9995143312059889
aF-0.02583181235790082
aF0.016166211683465017
aF-0.006517114695673689
abababaF0.07490684862402551
aF-1.0
aF10.0
aF10.0
abag0
(g136
g2
Ntp188
Rp189
(lp190
g0
(g22
g2
Ntp191
Rp192
(lp193
g0
(g26
g2
Ntp194
Rp195
(lp196
I0
ag0
(g30
g2
Ntp197
Rp198
(lp199
I0
aI0
abag157
abag0
(g35
g2
Ntp200
Rp201
(lp202
g0
(g39
g2
Ntp203
Rp204
(lp205
F0.5069132714754178
aF0.004873624607929537
aF0.027077189596690976
abag0
(g43
g2
Ntp206
Rp207
(lp208
F0.9995143312059889
aF-0.02583181235790082
aF0.016166211683465017
aF-0.006517114695673689
abababaF0.07490684862402551
aF-1.0
aF13.823597055077064
aF10.0
abag0
(g136
g2
Ntp209
Rp210
(lp211
g0
(g22
g2
Ntp212
Rp213
(lp214
g0
(g26
g2
Ntp215
Rp216
(lp217
I0
ag0
(g30
g2
Ntp218
Rp219
(lp220
I0
aI0
abag157
abag0
(g35
g2
Ntp221
Rp222
(lp223
g0
(g39
g2
Ntp224
Rp225
(lp226
F0.5069132714754178
aF0.004873624607929537
aF0.027077189596690976
abag0
(g43
g2
Ntp227
Rp228
(lp229
F0.9995143312059889
aF-0.02583181235790082
aF0.016166211683465017
aF-0.006517114695673689
abababaF0.09639999999999999
aF-1.0
aF13.823597055077064
aF10.0
abag0
(g136
g2
Ntp230
Rp231
(lp232
g0
(g22
g2
Ntp233
Rp234
(lp235
g0
(g26
g2
Ntp236
Rp237
(lp238
I0
ag0
(g30
g2
Ntp239
Rp240
(lp241
I0
aI0
abag157
abag0
(g35
g2
Ntp242
Rp243
(lp244
g0
(g39
g2
Ntp245
Rp246
(lp247
F0.5069132714754178
aF0.004873624607929537
aF0.027077189596690976
abag0
(g43
g2
Ntp248
Rp249
(lp250
F0.9995143312059889
aF-0.02583181235790082
aF0.016166211683465017
aF-0.006517114695673689
abababaF0.09639999999999999
aF-1.0
aF8.3
aF10.0
abag0
(g136
g2
Ntp251
Rp252
(lp253
g0
(g22
g2
Ntp254
Rp255
(lp256
g0
(g26
g2
Ntp257
Rp258
(lp259
I0
ag0
(g30
g2
Ntp260
Rp261
(lp262
I0
aI0
abag157
abag0
(g35
g2
Ntp263
Rp264
(lp265
g0
(g39
g2
Ntp266
Rp267
(lp268
F0.5069132714754178
aF0.004873624607929537
aF0.027077189596690976
abag0
(g43
g2
Ntp269
Rp270
(lp271
F0.9995143312059889
aF-0.02583181235790082
aF0.016166211683465017
aF-0.006517114695673689
abababaF0.1396
aF-1.0
aF8.3
aF10.0
abag0
(g136
g2
Ntp272
Rp273
(lp274
g0
(g22
g2
Ntp275
Rp276
(lp277
g0
(g26
g2
Ntp278
Rp279
(lp280
I0
ag0
(g30
g2
Ntp281
Rp282
(lp283
I0
aI0
abag157
abag0
(g35
g2
Ntp284
Rp285
(lp286
g0
(g39
g2
Ntp287
Rp288
(lp289
F0.5069132714754178
aF0.004873624607929537
aF0.027077189596690976
abag0
(g43
g2
Ntp290
Rp291
(lp292
F0.9995143312059889
aF-0.02583181235790082
aF0.016166211683465017
aF-0.006517114695673689
abababaF0.1396
aF-1.0
aF7.1
aF10.0
abag0
(g136
g2
Ntp293
Rp294
(lp295
g0
(g22
g2
Ntp296
Rp297
(lp298
g0
(g26
g2
Ntp299
Rp300
(lp301
I0
ag0
(g30
g2
Ntp302
Rp303
(lp304
I0
aI0
abag157
abag0
(g35
g2
Ntp305
Rp306
(lp307
g0
(g39
g2
Ntp308
Rp309
(lp310
F0.5069132714754178
aF0.004873624607929537
aF0.027077189596690976
abag0
(g43
g2
Ntp311
Rp312
(lp313
F0.9995143312059889
aF-0.02583181235790082
aF0.016166211683465017
aF-0.006517114695673689
abababaF0.1972
aF-1.0
aF7.1
aF10.0
abag0
(g136
g2
Ntp314
Rp315
(lp316
g0
(g22
g2
Ntp317
Rp318
(lp319
g0
(g26
g2
Ntp320
Rp321
(lp322
I0
ag0
(g30
g2
Ntp323
Rp324
(lp325
I0
aI0
abag157
abag0
(g35
g2
Ntp326
Rp327
(lp328
g0
(g39
g2
Ntp329
Rp330
(lp331
F0.5069132714754178
aF0.004873624607929537
aF0.027077189596690976
abag0
(g43
g2
Ntp332
Rp333
(lp334
F0.9995143312059889
aF-0.02583181235790082
aF0.016166211683465017
aF-0.006517114695673689
abababaF0.1972
aF-1.0
aF6.8
aF10.0
abag0
(g136
g2
Ntp335
Rp336
(lp337
g0
(g22
g2
Ntp338
Rp339
(lp340
g0
(g26
g2
Ntp341
Rp342
(lp343
I0
ag0
(g30
g2
Ntp344
Rp345
(lp346
I0
aI0
abag157
abag0
(g35
g2
Ntp347
Rp348
(lp349
g0
(g39
g2
Ntp350
Rp351
(lp352
F0.5069132714754178
aF0.004873624607929537
aF0.027077189596690976
abag0
(g43
g2
Ntp353
Rp354
(lp355
F0.9995143312059889
aF-0.02583181235790082
aF0.016166211683465017
aF-0.006517114695673689
abababaF0.1972
aF-1.0
aF5.6
aF10.0
abasS'starting_gripper_state_index'
p356
I0
sS'parameters_update_history'
p357
(dp358
g133
(lp359
F10.0
aF13.823597055077064
aF8.3
aF7.1
aF6.8
aF5.6
asS'position_speed'
p360
(lp361
F0.07
aF0.07490684862402551
aF0.09639999999999999
aF0.1396
aF0.1972
asS'rotation_speed'
p362
(lp363
F-1.0
asg134
(lp364
F10.0
asg132
(lp365
g0
(g22
g2
Ntp366
Rp367
(lp368
g0
(g26
g2
Ntp369
Rp370
(lp371
I0
ag0
(g30
g2
Ntp372
Rp373
(lp374
I0
aI0
abag157
abag0
(g35
g2
Ntp375
Rp376
(lp377
g0
(g39
g2
Ntp378
Rp379
(lp380
F0.5069132714754178
aF0.004873624607929537
aF0.027077189596690976
abag0
(g43
g2
Ntp381
Rp382
(lp383
F0.9995143312059889
aF-0.02583181235790082
aF0.016166211683465017
aF-0.006517114695673689
abababassS'parameter_container'
p384
g0
(g136
g2
Ntp385
Rp386
(lp387
g0
(g22
g2
Ntp388
Rp389
(lp390
g0
(g26
g2
Ntp391
Rp392
(lp393
I0
ag0
(g30
g2
Ntp394
Rp395
(lp396
I0
aI0
abag157
abag0
(g35
g2
Ntp397
Rp398
(lp399
g0
(g39
g2
Ntp400
Rp401
(lp402
F0.5069132714754178
aF0.004873624607929537
aF0.027077189596690976
abag0
(g43
g2
Ntp403
Rp404
(lp405
F0.9995143312059889
aF-0.02583181235790082
aF0.016166211683465017
aF-0.006517114695673689
abababaF0.1972
aF-1.0
aF5.6
aF10.0
absbag0
(g12
g2
Ntp406
Rp407
(dp408
g123
g126
sg127
I01
sg18
S'A Apply Force (with) Fingers primitive'
p409
sg129
I1
sg130
(lp410
S'force'
p411
asg135
cpanda_pbd.srv._ApplyForceFingers
ApplyForceFingersRequest
p412
sg137
(dp413
g111
(lp414
F20.0
aF60.0
assg143
(lp415
g0
(g412
g2
Ntp416
Rp417
(lp418
F20.0
abag0
(g412
g2
Ntp419
Rp420
(lp421
F44.74824232011043
abag0
(g412
g2
Ntp422
Rp423
(lp424
F24.0
abag0
(g412
g2
Ntp425
Rp426
(lp427
F21.6
abasg356
I0
sg357
(dp428
g411
(lp429
F20.0
aF44.74824232011043
aF24.0
aF21.6
assg384
g0
(g412
g2
Ntp430
Rp431
(lp432
F21.6
absbag0
(g16
g2
Ntp433
Rp434
(dp435
g123
g126
sg127
I01
sg18
S'A Move to End-Effector primitive'
p436
sg129
I1
sg130
(lp437
g132
asg135
cpanda_pbd.msg._MoveToEEGoal
MoveToEEGoal
p438
sg137
(dp439
g141
(lp440
F0.01
aF0.35
assg143
(lp441
g0
(g438
g2
Ntp442
Rp443
(lp444
g0
(g22
g2
Ntp445
Rp446
(lp447
g0
(g26
g2
Ntp448
Rp449
(lp450
I0
ag0
(g30
g2
Ntp451
Rp452
(lp453
I0
aI0
abag75
abag0
(g35
g2
Ntp454
Rp455
(lp456
g0
(g39
g2
Ntp457
Rp458
(lp459
F0.6404225030201885
aF-0.21899515188976365
aF0.31947401035356376
abag0
(g43
g2
Ntp460
Rp461
(lp462
F0.8476936441278499
aF-0.15503337362532482
aF0.5028616917286283
aF0.06715845262823286
abababaF0.07
aF-1.0
abag0
(g438
g2
Ntp463
Rp464
(lp465
g0
(g22
g2
Ntp466
Rp467
(lp468
g0
(g26
g2
Ntp469
Rp470
(lp471
I0
ag0
(g30
g2
Ntp472
Rp473
(lp474
I0
aI0
abag75
abag0
(g35
g2
Ntp475
Rp476
(lp477
g0
(g39
g2
Ntp478
Rp479
(lp480
F0.6404225030201885
aF-0.21899515188976365
aF0.31947401035356376
abag0
(g43
g2
Ntp481
Rp482
(lp483
F0.8476936441278499
aF-0.15503337362532482
aF0.5028616917286283
aF0.06715845262823286
abababaF0.12404050129256591
aF-1.0
abag0
(g438
g2
Ntp484
Rp485
(lp486
g0
(g22
g2
Ntp487
Rp488
(lp489
g0
(g26
g2
Ntp490
Rp491
(lp492
I0
ag0
(g30
g2
Ntp493
Rp494
(lp495
I0
aI0
abag75
abag0
(g35
g2
Ntp496
Rp497
(lp498
g0
(g39
g2
Ntp499
Rp500
(lp501
F0.6404225030201885
aF-0.21899515188976365
aF0.31947401035356376
abag0
(g43
g2
Ntp502
Rp503
(lp504
F0.8476936441278499
aF-0.15503337362532482
aF0.5028616917286283
aF0.06715845262823286
abababaF0.2276
aF-1.0
abag0
(g438
g2
Ntp505
Rp506
(lp507
g0
(g22
g2
Ntp508
Rp509
(lp510
g0
(g26
g2
Ntp511
Rp512
(lp513
I0
ag0
(g30
g2
Ntp514
Rp515
(lp516
I0
aI0
abag75
abag0
(g35
g2
Ntp517
Rp518
(lp519
g0
(g39
g2
Ntp520
Rp521
(lp522
F0.6404225030201885
aF-0.21899515188976365
aF0.31947401035356376
abag0
(g43
g2
Ntp523
Rp524
(lp525
F0.8476936441278499
aF-0.15503337362532482
aF0.5028616917286283
aF0.06715845262823286
abababaF0.3092
aF-1.0
abag0
(g438
g2
Ntp526
Rp527
(lp528
g0
(g22
g2
Ntp529
Rp530
(lp531
g0
(g26
g2
Ntp532
Rp533
(lp534
I0
ag0
(g30
g2
Ntp535
Rp536
(lp537
I0
aI0
abag75
abag0
(g35
g2
Ntp538
Rp539
(lp540
g0
(g39
g2
Ntp541
Rp542
(lp543
F0.6404225030201885
aF-0.21899515188976365
aF0.31947401035356376
abag0
(g43
g2
Ntp544
Rp545
(lp546
F0.8476936441278499
aF-0.15503337362532482
aF0.5028616917286283
aF0.06715845262823286
abababaF0.3432
aF-1.0
abasg356
I1
sg357
(dp547
g360
(lp548
F0.07
aF0.12404050129256591
aF0.2276
aF0.3092
aF0.3432
asg362
(lp549
F-1.0
asg132
(lp550
g0
(g22
g2
Ntp551
Rp552
(lp553
g0
(g26
g2
Ntp554
Rp555
(lp556
I0
ag0
(g30
g2
Ntp557
Rp558
(lp559
I0
aI0
abag75
abag0
(g35
g2
Ntp560
Rp561
(lp562
g0
(g39
g2
Ntp563
Rp564
(lp565
F0.6404225030201885
aF-0.21899515188976365
aF0.31947401035356376
abag0
(g43
g2
Ntp566
Rp567
(lp568
F0.8476936441278499
aF-0.15503337362532482
aF0.5028616917286283
aF0.06715845262823286
abababassg384
g0
(g438
g2
Ntp569
Rp570
(lp571
g67
aF0.3432
aF-1.0
absbag0
(g8
g2
Ntp572
Rp573
(dp574
g123
g126
sg127
I01
sg18
S'A User Synchronization primitive'
p575
sg129
I2
sg130
(lp576
sg135
cpanda_pbd.msg._UserSyncGoal
UserSyncGoal
p577
sg137
(dp578
g139
(lp579
F5.0
aF30.0
assg143
(lp580
g0
(g577
g2
Ntp581
Rp582
(lp583
F10.0
abag0
(g577
g2
Ntp584
Rp585
(lp586
F8.277095790528485
abag0
(g577
g2
Ntp587
Rp588
(lp589
F9.5
abag0
(g577
g2
Ntp590
Rp591
(lp592
F6.5
abag0
(g577
g2
Ntp593
Rp594
(lp595
F5.0
abasg356
I1
sg357
(dp596
g133
(lp597
F10.0
aF8.277095790528485
aF9.5
aF6.5
aF5.0
assg384
g0
(g577
g2
Ntp598
Rp599
(lp600
F5.0
absbag0
(g10
g2
Ntp601
Rp602
(dp603
g123
g126
sg127
I01
sg18
S'A Move Fingers primitive'
p604
sg129
I2
sg130
(lp605
S'width'
p606
asg135
cpanda_pbd.srv._MoveFingers
MoveFingersRequest
p607
sg137
(dp608
g606
(lp609
F0.04758337885141373
aF0.08
assg143
(lp610
g0
(g607
g2
Ntp611
Rp612
(lp613
F0.04758337885141373
abag0
(g607
g2
Ntp614
Rp615
(lp616
F0.05456580773398578
abag0
(g607
g2
Ntp617
Rp618
(lp619
F0.0704
abasg356
I1
sg357
(dp620
g606
(lp621
F0.04758337885141373
aF0.05456580773398578
aF0.0704
assg384
g0
(g607
g2
Ntp622
Rp623
(lp624
F0.0704
absbag0
(g16
g2
Ntp625
Rp626
(dp627
g123
g126
sg127
I01
sg18
g436
sg129
I2
sg130
(lp628
g132
asg135
g438
sg137
g439
sg143
(lp629
g0
(g438
g2
Ntp630
Rp631
(lp632
g0
(g22
g2
Ntp633
Rp634
(lp635
g0
(g26
g2
Ntp636
Rp637
(lp638
I0
ag0
(g30
g2
Ntp639
Rp640
(lp641
I0
aI0
abag94
abag0
(g35
g2
Ntp642
Rp643
(lp644
g0
(g39
g2
Ntp645
Rp646
(lp647
F0.48697273191184176
aF-0.0003249795766055996
aF0.3672047165651558
abag0
(g43
g2
Ntp648
Rp649
(lp650
F0.9986485219265587
aF-0.028677903984510297
aF0.042164274523526495
aF-0.010043974853580964
abababaF0.07
aF-1.0
abag0
(g438
g2
Ntp651
Rp652
(lp653
g0
(g22
g2
Ntp654
Rp655
(lp656
g0
(g26
g2
Ntp657
Rp658
(lp659
I0
ag0
(g30
g2
Ntp660
Rp661
(lp662
I0
aI0
abag94
abag0
(g35
g2
Ntp663
Rp664
(lp665
g0
(g39
g2
Ntp666
Rp667
(lp668
F0.48697273191184176
aF-0.0003249795766055996
aF0.3672047165651558
abag0
(g43
g2
Ntp669
Rp670
(lp671
F0.9986485219265587
aF-0.028677903984510297
aF0.042164274523526495
aF-0.010043974853580964
abababaF0.1071339470967482
aF-1.0
abag0
(g438
g2
Ntp672
Rp673
(lp674
g0
(g22
g2
Ntp675
Rp676
(lp677
g0
(g26
g2
Ntp678
Rp679
(lp680
I0
ag0
(g30
g2
Ntp681
Rp682
(lp683
I0
aI0
abag94
abag0
(g35
g2
Ntp684
Rp685
(lp686
g0
(g39
g2
Ntp687
Rp688
(lp689
F0.48697273191184176
aF-0.0003249795766055996
aF0.3672047165651558
abag0
(g43
g2
Ntp690
Rp691
(lp692
F0.9986485219265587
aF-0.028677903984510297
aF0.042164274523526495
aF-0.010043974853580964
abababaF0.1868
aF-1.0
abag0
(g438
g2
Ntp693
Rp694
(lp695
g0
(g22
g2
Ntp696
Rp697
(lp698
g0
(g26
g2
Ntp699
Rp700
(lp701
I0
ag0
(g30
g2
Ntp702
Rp703
(lp704
I0
aI0
abag94
abag0
(g35
g2
Ntp705
Rp706
(lp707
g0
(g39
g2
Ntp708
Rp709
(lp710
F0.48697273191184176
aF-0.0003249795766055996
aF0.3672047165651558
abag0
(g43
g2
Ntp711
Rp712
(lp713
F0.9986485219265587
aF-0.028677903984510297
aF0.042164274523526495
aF-0.010043974853580964
abababaF0.35
aF-1.0
abasg356
I2
sg357
(dp714
g360
(lp715
F0.07
aF0.1071339470967482
aF0.1868
aF0.35
asg362
(lp716
F-1.0
asg132
(lp717
g0
(g22
g2
Ntp718
Rp719
(lp720
g0
(g26
g2
Ntp721
Rp722
(lp723
I0
ag0
(g30
g2
Ntp724
Rp725
(lp726
I0
aI0
abag94
abag0
(g35
g2
Ntp727
Rp728
(lp729
g0
(g39
g2
Ntp730
Rp731
(lp732
F0.48697273191184176
aF-0.0003249795766055996
aF0.3672047165651558
abag0
(g43
g2
Ntp733
Rp734
(lp735
F0.9986485219265587
aF-0.028677903984510297
aF0.042164274523526495
aF-0.010043974853580964
abababassg384
g0
(g438
g2
Ntp736
Rp737
(lp738
g86
aF0.35
aF-1.0
absbasS'name'
p739
S'A Panda Program'
p740
sb.