(dp0
S'program'
p1
ccopy_reg
_reconstructor
p2
(cpanda_eup.panda_primitive
PandaProgram
p3
c__builtin__
object
p4
Ntp5
Rp6
(dp7
S'effect_of_primitive'
p8
(dp9
cpanda_eup.panda_primitive
MoveToContact
p10
(lp11
I01
aI00
ascpanda_eup.panda_primitive
MoveFingers
p12
(lp13
I00
aI01
ascpanda_eup.panda_primitive
ApplyForceFingers
p14
(lp15
I00
aI01
ascpanda_eup.panda_primitive
MoveToEE
p16
(lp17
I01
aI00
ascpanda_eup.panda_primitive
UserSync
p18
(lp19
I00
aI00
assS'description'
p20
S'Empty Description'
p21
sS'arm_state_list'
p22
(lp23
g2
(cgeometry_msgs.msg._PoseStamped
PoseStamped
p24
g4
Ntp25
Rp26
(lp27
g2
(cstd_msgs.msg._Header
Header
p28
g4
Ntp29
Rp30
(lp31
I0
ag2
(cgenpy.rostime
Time
p32
g4
Ntp33
Rp34
(lp35
I0
aI0
abaS'panda_link0'
p36
abag2
(cgeometry_msgs.msg._Pose
Pose
p37
g4
Ntp38
Rp39
(lp40
g2
(cgeometry_msgs.msg._Point
Point
p41
g4
Ntp42
Rp43
(lp44
F0.4833974233623748
aF0.007318751177980708
aF0.3904495689279949
abag2
(cgeometry_msgs.msg._Quaternion
Quaternion
p45
g4
Ntp46
Rp47
(lp48
F0.9993500431690824
aF-0.014042189921340717
aF-0.02007113406023331
aF-0.026447262574839425
abababag2
(g24
g4
Ntp49
Rp50
(lp51
g2
(g28
g4
Ntp52
Rp53
(lp54
I0
ag2
(g32
g4
Ntp55
Rp56
(lp57
I0
aI0
abaS'panda_link0'
p58
abag2
(g37
g4
Ntp59
Rp60
(lp61
g2
(g41
g4
Ntp62
Rp63
(lp64
F0.501362372473705
aF0.004582922297272136
aF0.02400000701574767
abag2
(g45
g4
Ntp65
Rp66
(lp67
F0.9993878912722312
aF-0.0329382860278419
aF0.007737500575066516
aF-0.00889062297265471
abababag2
(g24
g4
Ntp68
Rp69
(lp70
g2
(g28
g4
Ntp71
Rp72
(lp73
I0
ag2
(g32
g4
Ntp74
Rp75
(lp76
I0
aI0
abaS'panda_link0'
p77
abag2
(g37
g4
Ntp78
Rp79
(lp80
g2
(g41
g4
Ntp81
Rp82
(lp83
F0.6404225030201885
aF-0.21899515188976365
aF0.31947401035356376
abag2
(g45
g4
Ntp84
Rp85
(lp86
F0.8476936441278499
aF-0.15503337362532482
aF0.5028616917286283
aF0.06715845262823286
abababag2
(g24
g4
Ntp87
Rp88
(lp89
g2
(g28
g4
Ntp90
Rp91
(lp92
I0
ag2
(g32
g4
Ntp93
Rp94
(lp95
I0
aI0
abaS'panda_link0'
p96
abag2
(g37
g4
Ntp97
Rp98
(lp99
g2
(g41
g4
Ntp100
Rp101
(lp102
F0.48697273191184176
aF-0.0003249795766055996
aF0.3672047165651558
abag2
(g45
g4
Ntp103
Rp104
(lp105
F0.9986485219265587
aF-0.028677903984510297
aF0.042164274523526495
aF-0.010043974853580964
abababasS'gripper_state_list'
p106
(lp107
g2
(cpanda_eup.panda_primitive
GripperState
p108
g4
Ntp109
Rp110
(dp111
S'width'
p112
F0.08
sS'force'
p113
F0.0
sbag2
(g108
g4
Ntp114
Rp115
(dp116
g112
F0.031623754650354385
sg113
F24.0
sbag2
(g108
g4
Ntp117
Rp118
(dp119
g112
F0.0587184764444828
sg113
F0.0
sbasS'primitives'
p120
(lp121
g2
(g10
g4
Ntp122
Rp123
(dp124
S'status'
p125
cpanda_eup.panda_primitive
PandaPrimitiveStatus
p126
(I1
tp127
Rp128
sS'revertible'
p129
I01
sg20
S'A Move to Contact primitive'
p130
sS'parameters_range_history'
p131
(dp132
S'force_threshold'
p133
(lp134
(lp135
F11.0
aF14.299999999999999
aa(lp136
F8.9
aF14.0
aa(lp137
F6.8
aF8.6
aa(lp138
F5.6
aF7.1
aa(lp139
F5.3
aF6.5
aasS'position_speed'
p140
(lp141
(lp142
F0.10119999999999998
aF0.1588
aa(lp143
F0.11559999999999998
aF0.1588
aa(lp144
F0.11559999999999998
aF0.154
aa(lp145
F0.13
aF0.1732
aa(lp146
F0.10599999999999998
aF0.1444
aa(lp147
F0.09159999999999999
aF0.11559999999999998
aa(lp148
F0.09159999999999999
aF0.11079999999999998
aassS'starting_arm_state_index'
p149
I0
sS'parameters_with_effects_on_robot_state'
p150
(lp151
S'pose'
p152
aS'force_threshold'
p153
aS'torque_threshold'
p154
asS'expected_container'
p155
cpanda_pbd.msg._MoveToContactGoal
MoveToContactGoal
p156
sS'gui_tunable_parameter_strict_ranges'
p157
(dp158
g133
(lp159
F5.0
aF20.0
asg140
(lp160
F0.01
aF0.25
assS'container_update_history'
p161
(lp162
g2
(g156
g4
Ntp163
Rp164
(lp165
g2
(g24
g4
Ntp166
Rp167
(lp168
g2
(g28
g4
Ntp169
Rp170
(lp171
I0
ag2
(g32
g4
Ntp172
Rp173
(lp174
I0
aI0
abaS'panda_link0'
p175
abag2
(g37
g4
Ntp176
Rp177
(lp178
g2
(g41
g4
Ntp179
Rp180
(lp181
F0.5069132714754178
aF0.004873624607929537
aF0.027077189596690976
abag2
(g45
g4
Ntp182
Rp183
(lp184
F0.9995143312059889
aF-0.02583181235790082
aF0.016166211683465017
aF-0.006517114695673689
abababaF0.0463044694675964
aF-1.0
aF19.799208461795793
aF10.0
abag2
(g156
g4
Ntp185
Rp186
(lp187
g2
(g24
g4
Ntp188
Rp189
(lp190
g2
(g28
g4
Ntp191
Rp192
(lp193
I0
ag2
(g32
g4
Ntp194
Rp195
(lp196
I0
aI0
abag175
abag2
(g37
g4
Ntp197
Rp198
(lp199
g2
(g41
g4
Ntp200
Rp201
(lp202
F0.5069132714754178
aF0.004873624607929537
aF0.027077189596690976
abag2
(g45
g4
Ntp203
Rp204
(lp205
F0.9995143312059889
aF-0.02583181235790082
aF0.016166211683465017
aF-0.006517114695673689
abababaF0.0463044694675964
aF-1.0
aF14.299999999999999
aF10.0
abag2
(g156
g4
Ntp206
Rp207
(lp208
g2
(g24
g4
Ntp209
Rp210
(lp211
g2
(g28
g4
Ntp212
Rp213
(lp214
I0
ag2
(g32
g4
Ntp215
Rp216
(lp217
I0
aI0
abag175
abag2
(g37
g4
Ntp218
Rp219
(lp220
g2
(g41
g4
Ntp221
Rp222
(lp223
F0.5069132714754178
aF0.004873624607929537
aF0.027077189596690976
abag2
(g45
g4
Ntp224
Rp225
(lp226
F0.9995143312059889
aF-0.02583181235790082
aF0.016166211683465017
aF-0.006517114695673689
abababaF0.1348
aF-1.0
aF14.299999999999999
aF10.0
abag2
(g156
g4
Ntp227
Rp228
(lp229
g2
(g24
g4
Ntp230
Rp231
(lp232
g2
(g28
g4
Ntp233
Rp234
(lp235
I0
ag2
(g32
g4
Ntp236
Rp237
(lp238
I0
aI0
abag175
abag2
(g37
g4
Ntp239
Rp240
(lp241
g2
(g41
g4
Ntp242
Rp243
(lp244
F0.5069132714754178
aF0.004873624607929537
aF0.027077189596690976
abag2
(g45
g4
Ntp245
Rp246
(lp247
F0.9995143312059889
aF-0.02583181235790082
aF0.016166211683465017
aF-0.006517114695673689
abababaF0.1348
aF-1.0
aF12.5
aF10.0
abag2
(g156
g4
Ntp248
Rp249
(lp250
g2
(g24
g4
Ntp251
Rp252
(lp253
g2
(g28
g4
Ntp254
Rp255
(lp256
I0
ag2
(g32
g4
Ntp257
Rp258
(lp259
I0
aI0
abag175
abag2
(g37
g4
Ntp260
Rp261
(lp262
g2
(g41
g4
Ntp263
Rp264
(lp265
F0.5069132714754178
aF0.004873624607929537
aF0.027077189596690976
abag2
(g45
g4
Ntp266
Rp267
(lp268
F0.9995143312059889
aF-0.02583181235790082
aF0.016166211683465017
aF-0.006517114695673689
abababaF0.11559999999999998
aF-1.0
aF12.5
aF10.0
abag2
(g156
g4
Ntp269
Rp270
(lp271
g2
(g24
g4
Ntp272
Rp273
(lp274
g2
(g28
g4
Ntp275
Rp276
(lp277
I0
ag2
(g32
g4
Ntp278
Rp279
(lp280
I0
aI0
abag175
abag2
(g37
g4
Ntp281
Rp282
(lp283
g2
(g41
g4
Ntp284
Rp285
(lp286
F0.5069132714754178
aF0.004873624607929537
aF0.027077189596690976
abag2
(g45
g4
Ntp287
Rp288
(lp289
F0.9995143312059889
aF-0.02583181235790082
aF0.016166211683465017
aF-0.006517114695673689
abababaF0.11559999999999998
aF-1.0
aF11.0
aF10.0
abag2
(g156
g4
Ntp290
Rp291
(lp292
g2
(g24
g4
Ntp293
Rp294
(lp295
g2
(g28
g4
Ntp296
Rp297
(lp298
I0
ag2
(g32
g4
Ntp299
Rp300
(lp301
I0
aI0
abag175
abag2
(g37
g4
Ntp302
Rp303
(lp304
g2
(g41
g4
Ntp305
Rp306
(lp307
F0.5069132714754178
aF0.004873624607929537
aF0.027077189596690976
abag2
(g45
g4
Ntp308
Rp309
(lp310
F0.9995143312059889
aF-0.02583181235790082
aF0.016166211683465017
aF-0.006517114695673689
abababaF0.1588
aF-1.0
aF11.0
aF10.0
abag2
(g156
g4
Ntp311
Rp312
(lp313
g2
(g24
g4
Ntp314
Rp315
(lp316
g2
(g28
g4
Ntp317
Rp318
(lp319
I0
ag2
(g32
g4
Ntp320
Rp321
(lp322
I0
aI0
abag175
abag2
(g37
g4
Ntp323
Rp324
(lp325
g2
(g41
g4
Ntp326
Rp327
(lp328
F0.5069132714754178
aF0.004873624607929537
aF0.027077189596690976
abag2
(g45
g4
Ntp329
Rp330
(lp331
F0.9995143312059889
aF-0.02583181235790082
aF0.016166211683465017
aF-0.006517114695673689
abababaF0.1588
aF-1.0
aF8.9
aF10.0
abag2
(g156
g4
Ntp332
Rp333
(lp334
g2
(g24
g4
Ntp335
Rp336
(lp337
g2
(g28
g4
Ntp338
Rp339
(lp340
I0
ag2
(g32
g4
Ntp341
Rp342
(lp343
I0
aI0
abag175
abag2
(g37
g4
Ntp344
Rp345
(lp346
g2
(g41
g4
Ntp347
Rp348
(lp349
F0.5069132714754178
aF0.004873624607929537
aF0.027077189596690976
abag2
(g45
g4
Ntp350
Rp351
(lp352
F0.9995143312059889
aF-0.02583181235790082
aF0.016166211683465017
aF-0.006517114695673689
abababaF0.1348
aF-1.0
aF8.9
aF10.0
abag2
(g156
g4
Ntp353
Rp354
(lp355
g2
(g24
g4
Ntp356
Rp357
(lp358
g2
(g28
g4
Ntp359
Rp360
(lp361
I0
ag2
(g32
g4
Ntp362
Rp363
(lp364
I0
aI0
abag175
abag2
(g37
g4
Ntp365
Rp366
(lp367
g2
(g41
g4
Ntp368
Rp369
(lp370
F0.5069132714754178
aF0.004873624607929537
aF0.027077189596690976
abag2
(g45
g4
Ntp371
Rp372
(lp373
F0.9995143312059889
aF-0.02583181235790082
aF0.016166211683465017
aF-0.006517114695673689
abababaF0.1348
aF-1.0
aF7.699999999999999
aF10.0
abag2
(g156
g4
Ntp374
Rp375
(lp376
g2
(g24
g4
Ntp377
Rp378
(lp379
g2
(g28
g4
Ntp380
Rp381
(lp382
I0
ag2
(g32
g4
Ntp383
Rp384
(lp385
I0
aI0
abag175
abag2
(g37
g4
Ntp386
Rp387
(lp388
g2
(g41
g4
Ntp389
Rp390
(lp391
F0.5069132714754178
aF0.004873624607929537
aF0.027077189596690976
abag2
(g45
g4
Ntp392
Rp393
(lp394
F0.9995143312059889
aF-0.02583181235790082
aF0.016166211683465017
aF-0.006517114695673689
abababaF0.1636
aF-1.0
aF7.699999999999999
aF10.0
abag2
(g156
g4
Ntp395
Rp396
(lp397
g2
(g24
g4
Ntp398
Rp399
(lp400
g2
(g28
g4
Ntp401
Rp402
(lp403
I0
ag2
(g32
g4
Ntp404
Rp405
(lp406
I0
aI0
abag175
abag2
(g37
g4
Ntp407
Rp408
(lp409
g2
(g41
g4
Ntp410
Rp411
(lp412
F0.5069132714754178
aF0.004873624607929537
aF0.027077189596690976
abag2
(g45
g4
Ntp413
Rp414
(lp415
F0.9995143312059889
aF-0.02583181235790082
aF0.016166211683465017
aF-0.006517114695673689
abababaF0.1636
aF-1.0
aF5.9
aF10.0
abag2
(g156
g4
Ntp416
Rp417
(lp418
g2
(g24
g4
Ntp419
Rp420
(lp421
g2
(g28
g4
Ntp422
Rp423
(lp424
I0
ag2
(g32
g4
Ntp425
Rp426
(lp427
I0
aI0
abag175
abag2
(g37
g4
Ntp428
Rp429
(lp430
g2
(g41
g4
Ntp431
Rp432
(lp433
F0.5069132714754178
aF0.004873624607929537
aF0.027077189596690976
abag2
(g45
g4
Ntp434
Rp435
(lp436
F0.9995143312059889
aF-0.02583181235790082
aF0.016166211683465017
aF-0.006517114695673689
abababaF0.10599999999999998
aF-1.0
aF5.9
aF10.0
abag2
(g156
g4
Ntp437
Rp438
(lp439
g2
(g24
g4
Ntp440
Rp441
(lp442
g2
(g28
g4
Ntp443
Rp444
(lp445
I0
ag2
(g32
g4
Ntp446
Rp447
(lp448
I0
aI0
abag175
abag2
(g37
g4
Ntp449
Rp450
(lp451
g2
(g41
g4
Ntp452
Rp453
(lp454
F0.5069132714754178
aF0.004873624607929537
aF0.027077189596690976
abag2
(g45
g4
Ntp455
Rp456
(lp457
F0.9995143312059889
aF-0.02583181235790082
aF0.016166211683465017
aF-0.006517114695673689
abababaF0.10599999999999998
aF-1.0
aF5.6
aF10.0
abag2
(g156
g4
Ntp458
Rp459
(lp460
g2
(g24
g4
Ntp461
Rp462
(lp463
g2
(g28
g4
Ntp464
Rp465
(lp466
I0
ag2
(g32
g4
Ntp467
Rp468
(lp469
I0
aI0
abag175
abag2
(g37
g4
Ntp470
Rp471
(lp472
g2
(g41
g4
Ntp473
Rp474
(lp475
F0.5069132714754178
aF0.004873624607929537
aF0.027077189596690976
abag2
(g45
g4
Ntp476
Rp477
(lp478
F0.9995143312059889
aF-0.02583181235790082
aF0.016166211683465017
aF-0.006517114695673689
abababaF0.09159999999999999
aF-1.0
aF5.6
aF10.0
abag2
(g156
g4
Ntp479
Rp480
(lp481
g2
(g24
g4
Ntp482
Rp483
(lp484
g2
(g28
g4
Ntp485
Rp486
(lp487
I0
ag2
(g32
g4
Ntp488
Rp489
(lp490
I0
aI0
abag175
abag2
(g37
g4
Ntp491
Rp492
(lp493
g2
(g41
g4
Ntp494
Rp495
(lp496
F0.5069132714754178
aF0.004873624607929537
aF0.027077189596690976
abag2
(g45
g4
Ntp497
Rp498
(lp499
F0.9995143312059889
aF-0.02583181235790082
aF0.016166211683465017
aF-0.006517114695673689
abababaF0.09159999999999999
aF-1.0
aF5.9
aF10.0
abag2
(g156
g4
Ntp500
Rp501
(lp502
g2
(g24
g4
Ntp503
Rp504
(lp505
g2
(g28
g4
Ntp506
Rp507
(lp508
I0
ag2
(g32
g4
Ntp509
Rp510
(lp511
I0
aI0
abag175
abag2
(g37
g4
Ntp512
Rp513
(lp514
g2
(g41
g4
Ntp515
Rp516
(lp517
F0.5069132714754178
aF0.004873624607929537
aF0.027077189596690976
abag2
(g45
g4
Ntp518
Rp519
(lp520
F0.9995143312059889
aF-0.02583181235790082
aF0.016166211683465017
aF-0.006517114695673689
abababaF0.10119999999999998
aF-1.0
aF5.9
aF10.0
abasS'starting_gripper_state_index'
p521
I0
sS'parameters_update_history'
p522
(dp523
g140
(lp524
F0.0463044694675964
aF0.1348
aF0.11559999999999998
aF0.1588
aF0.1348
aF0.1636
aF0.10599999999999998
aF0.09159999999999999
aF0.10119999999999998
asg133
(lp525
F19.799208461795793
aF14.299999999999999
aF12.5
aF11.0
aF8.9
aF7.699999999999999
aF5.9
aF5.6
aF5.9
asS'pose'
p526
(lp527
g2
(g24
g4
Ntp528
Rp529
(lp530
g2
(g28
g4
Ntp531
Rp532
(lp533
I0
ag2
(g32
g4
Ntp534
Rp535
(lp536
I0
aI0
abag175
abag2
(g37
g4
Ntp537
Rp538
(lp539
g2
(g41
g4
Ntp540
Rp541
(lp542
F0.5069132714754178
aF0.004873624607929537
aF0.027077189596690976
abag2
(g45
g4
Ntp543
Rp544
(lp545
F0.9995143312059889
aF-0.02583181235790082
aF0.016166211683465017
aF-0.006517114695673689
abababasS'rotation_speed'
p546
(lp547
F-1.0
asS'torque_threshold'
p548
(lp549
F10.0
assS'parameter_container'
p550
g2
(g156
g4
Ntp551
Rp552
(lp553
g2
(g24
g4
Ntp554
Rp555
(lp556
g2
(g28
g4
Ntp557
Rp558
(lp559
I0
ag2
(g32
g4
Ntp560
Rp561
(lp562
I0
aI0
abag175
abag2
(g37
g4
Ntp563
Rp564
(lp565
g2
(g41
g4
Ntp566
Rp567
(lp568
F0.5069132714754178
aF0.004873624607929537
aF0.027077189596690976
abag2
(g45
g4
Ntp569
Rp570
(lp571
F0.9995143312059889
aF-0.02583181235790082
aF0.016166211683465017
aF-0.006517114695673689
abababaF0.10119999999999998
aF-1.0
aF5.9
aF10.0
absbag2
(g14
g4
Ntp572
Rp573
(dp574
g125
g128
sg129
I01
sg20
S'A Apply Force (with) Fingers primitive'
p575
sg131
(dp576
g113
(lp577
(lp578
F20.0
aF43.2
aa(lp579
F20.0
aF40.0
aa(lp580
F26.4
aF32.8
aa(lp581
F26.4
aF29.6
aa(lp582
F23.2
aF29.6
aa(lp583
F21.6
aF27.2
aassg149
I1
sg150
(lp584
S'force'
p585
asg155
cpanda_pbd.srv._ApplyForceFingers
ApplyForceFingersRequest
p586
sg157
(dp587
g113
(lp588
F20.0
aF60.0
assg161
(lp589
g2
(g586
g4
Ntp590
Rp591
(lp592
F44.41959556198145
abag2
(g586
g4
Ntp593
Rp594
(lp595
F44.0
abag2
(g586
g4
Ntp596
Rp597
(lp598
F40.0
abag2
(g586
g4
Ntp599
Rp600
(lp601
F32.0
abag2
(g586
g4
Ntp602
Rp603
(lp604
F29.6
abag2
(g586
g4
Ntp605
Rp606
(lp607
F26.4
abag2
(g586
g4
Ntp608
Rp609
(lp610
F23.2
abag2
(g586
g4
Ntp611
Rp612
(lp613
F24.0
abasg521
I0
sg522
(dp614
g113
(lp615
F44.41959556198145
aF44.0
aF40.0
aF32.0
aF29.6
aF26.4
aF23.2
aF24.0
assg550
g2
(g586
g4
Ntp616
Rp617
(lp618
F24.0
absbag2
(g16
g4
Ntp619
Rp620
(dp621
g125
g128
sg129
I01
sg20
S'A Move to End-Effector primitive'
p622
sg131
(dp623
g140
(lp624
(lp625
F0.01
aF0.35
aa(lp626
F0.248
aF0.316
aa(lp627
F0.2752
aF0.316
aassg149
I1
sg150
(lp628
g152
asg155
cpanda_pbd.msg._MoveToEEGoal
MoveToEEGoal
p629
sg157
(dp630
g140
(lp631
F0.01
aF0.35
assg161
(lp632
g2
(g629
g4
Ntp633
Rp634
(lp635
g2
(g24
g4
Ntp636
Rp637
(lp638
g2
(g28
g4
Ntp639
Rp640
(lp641
I0
ag2
(g32
g4
Ntp642
Rp643
(lp644
I0
aI0
abag77
abag2
(g37
g4
Ntp645
Rp646
(lp647
g2
(g41
g4
Ntp648
Rp649
(lp650
F0.6404225030201885
aF-0.21899515188976365
aF0.31947401035356376
abag2
(g45
g4
Ntp651
Rp652
(lp653
F0.8476936441278499
aF-0.15503337362532482
aF0.5028616917286283
aF0.06715845262823286
abababaF0.3029260890746256
aF-1.0
abag2
(g629
g4
Ntp654
Rp655
(lp656
g2
(g24
g4
Ntp657
Rp658
(lp659
g2
(g28
g4
Ntp660
Rp661
(lp662
I0
ag2
(g32
g4
Ntp663
Rp664
(lp665
I0
aI0
abag77
abag2
(g37
g4
Ntp666
Rp667
(lp668
g2
(g41
g4
Ntp669
Rp670
(lp671
F0.6404225030201885
aF-0.21899515188976365
aF0.31947401035356376
abag2
(g45
g4
Ntp672
Rp673
(lp674
F0.8476936441278499
aF-0.15503337362532482
aF0.5028616917286283
aF0.06715845262823286
abababaF0.3024
aF-1.0
abag2
(g629
g4
Ntp675
Rp676
(lp677
g2
(g24
g4
Ntp678
Rp679
(lp680
g2
(g28
g4
Ntp681
Rp682
(lp683
I0
ag2
(g32
g4
Ntp684
Rp685
(lp686
I0
aI0
abag77
abag2
(g37
g4
Ntp687
Rp688
(lp689
g2
(g41
g4
Ntp690
Rp691
(lp692
F0.6404225030201885
aF-0.21899515188976365
aF0.31947401035356376
abag2
(g45
g4
Ntp693
Rp694
(lp695
F0.8476936441278499
aF-0.15503337362532482
aF0.5028616917286283
aF0.06715845262823286
abababaF0.316
aF-1.0
abag2
(g629
g4
Ntp696
Rp697
(lp698
g2
(g24
g4
Ntp699
Rp700
(lp701
g2
(g28
g4
Ntp702
Rp703
(lp704
I0
ag2
(g32
g4
Ntp705
Rp706
(lp707
I0
aI0
abag77
abag2
(g37
g4
Ntp708
Rp709
(lp710
g2
(g41
g4
Ntp711
Rp712
(lp713
F0.6404225030201885
aF-0.21899515188976365
aF0.31947401035356376
abag2
(g45
g4
Ntp714
Rp715
(lp716
F0.8476936441278499
aF-0.15503337362532482
aF0.5028616917286283
aF0.06715845262823286
abababaF0.2752
aF-1.0
abag2
(g629
g4
Ntp717
Rp718
(lp719
g2
(g24
g4
Ntp720
Rp721
(lp722
g2
(g28
g4
Ntp723
Rp724
(lp725
I0
ag2
(g32
g4
Ntp726
Rp727
(lp728
I0
aI0
abag77
abag2
(g37
g4
Ntp729
Rp730
(lp731
g2
(g41
g4
Ntp732
Rp733
(lp734
F0.6404225030201885
aF-0.21899515188976365
aF0.31947401035356376
abag2
(g45
g4
Ntp735
Rp736
(lp737
F0.8476936441278499
aF-0.15503337362532482
aF0.5028616917286283
aF0.06715845262823286
abababaF0.2956
aF-1.0
abasg521
I1
sg522
(dp738
g140
(lp739
F0.3029260890746256
aF0.3024
aF0.316
aF0.2752
aF0.2956
asg526
(lp740
g2
(g24
g4
Ntp741
Rp742
(lp743
g2
(g28
g4
Ntp744
Rp745
(lp746
I0
ag2
(g32
g4
Ntp747
Rp748
(lp749
I0
aI0
abag77
abag2
(g37
g4
Ntp750
Rp751
(lp752
g2
(g41
g4
Ntp753
Rp754
(lp755
F0.6404225030201885
aF-0.21899515188976365
aF0.31947401035356376
abag2
(g45
g4
Ntp756
Rp757
(lp758
F0.8476936441278499
aF-0.15503337362532482
aF0.5028616917286283
aF0.06715845262823286
abababasg546
(lp759
F-1.0
assg550
g2
(g629
g4
Ntp760
Rp761
(lp762
g69
aF0.2956
aF-1.0
absbag2
(g18
g4
Ntp763
Rp764
(dp765
g125
g128
sg129
I01
sg20
S'A User Synchronization primitive'
p766
sg131
(dp767
g133
(lp768
(lp769
F5.0
aF30.0
aa(lp770
F5.0
aF19.0
aa(lp771
F11.5
aF18.0
aassg149
I2
sg150
(lp772
sg155
cpanda_pbd.msg._UserSyncGoal
UserSyncGoal
p773
sg157
(dp774
g133
(lp775
F5.0
aF30.0
assg161
(lp776
g2
(g773
g4
Ntp777
Rp778
(lp779
F29.065973778503334
abag2
(g773
g4
Ntp780
Rp781
(lp782
F19.0
abag2
(g773
g4
Ntp783
Rp784
(lp785
F11.5
abag2
(g773
g4
Ntp786
Rp787
(lp788
F15.0
abag2
(g773
g4
Ntp789
Rp790
(lp791
F18.0
abag2
(g773
g4
Ntp792
Rp793
(lp794
F14.5
abasg521
I1
sg522
(dp795
g133
(lp796
F29.065973778503334
aF19.0
aF11.5
aF15.0
aF18.0
aF14.5
assg550
g2
(g773
g4
Ntp797
Rp798
(lp799
F14.5
absbag2
(g12
g4
Ntp800
Rp801
(dp802
g125
g128
sg129
I01
sg20
S'A Move Fingers primitive'
p803
sg131
(dp804
g112
(lp805
(lp806
F0.04758337885141373
aF0.08
aa(lp807
F0.04758337885141373
aF0.06720000000000001
aa(lp808
F0.056
aF0.06720000000000001
aa(lp809
F0.056
aF0.064
aassg149
I2
sg150
(lp810
S'width'
p811
asg155
cpanda_pbd.srv._MoveFingers
MoveFingersRequest
p812
sg157
(dp813
g811
(lp814
F0.04758337885141373
aF0.08
assg161
(lp815
g2
(g812
g4
Ntp816
Rp817
(lp818
F0.050008065355390305
abag2
(g812
g4
Ntp819
Rp820
(lp821
F0.049600000000000005
abag2
(g812
g4
Ntp822
Rp823
(lp824
F0.06720000000000001
abag2
(g812
g4
Ntp825
Rp826
(lp827
F0.056
abag2
(g812
g4
Ntp828
Rp829
(lp830
F0.062400000000000004
abag2
(g812
g4
Ntp831
Rp832
(lp833
F0.0592
abasg521
I1
sg522
(dp834
g112
(lp835
F0.050008065355390305
aF0.049600000000000005
aF0.06720000000000001
aF0.056
aF0.062400000000000004
aF0.0592
assg550
g2
(g812
g4
Ntp836
Rp837
(lp838
F0.0592
absbag2
(g16
g4
Ntp839
Rp840
(dp841
g125
g126
(I5
tp842
Rp843
sg129
I01
sg20
g622
sg131
(dp844
g140
(lp845
(lp846
F0.25479999999999997
aF0.35
aa(lp847
F0.25479999999999997
aF0.2956
aassg149
I2
sg150
(lp848
g152
asg155
g629
sg157
g630
sg161
(lp849
g2
(g629
g4
Ntp850
Rp851
(lp852
g2
(g24
g4
Ntp853
Rp854
(lp855
g2
(g28
g4
Ntp856
Rp857
(lp858
I0
ag2
(g32
g4
Ntp859
Rp860
(lp861
I0
aI0
abag96
abag2
(g37
g4
Ntp862
Rp863
(lp864
g2
(g41
g4
Ntp865
Rp866
(lp867
F0.48697273191184176
aF-0.0003249795766055996
aF0.3672047165651558
abag2
(g45
g4
Ntp868
Rp869
(lp870
F0.9986485219265587
aF-0.028677903984510297
aF0.042164274523526495
aF-0.010043974853580964
abababaF0.10064615296149017
aF-1.0
abag2
(g629
g4
Ntp871
Rp872
(lp873
g2
(g24
g4
Ntp874
Rp875
(lp876
g2
(g28
g4
Ntp877
Rp878
(lp879
I0
ag2
(g32
g4
Ntp880
Rp881
(lp882
I0
aI0
abag96
abag2
(g37
g4
Ntp883
Rp884
(lp885
g2
(g41
g4
Ntp886
Rp887
(lp888
F0.48697273191184176
aF-0.0003249795766055996
aF0.3672047165651558
abag2
(g45
g4
Ntp889
Rp890
(lp891
F0.9986485219265587
aF-0.028677903984510297
aF0.042164274523526495
aF-0.010043974853580964
abababaF0.2956
aF-1.0
abag2
(g629
g4
Ntp892
Rp893
(lp894
g2
(g24
g4
Ntp895
Rp896
(lp897
g2
(g28
g4
Ntp898
Rp899
(lp900
I0
ag2
(g32
g4
Ntp901
Rp902
(lp903
I0
aI0
abag96
abag2
(g37
g4
Ntp904
Rp905
(lp906
g2
(g41
g4
Ntp907
Rp908
(lp909
F0.48697273191184176
aF-0.0003249795766055996
aF0.3672047165651558
abag2
(g45
g4
Ntp910
Rp911
(lp912
F0.9986485219265587
aF-0.028677903984510297
aF0.042164274523526495
aF-0.010043974853580964
abababaF0.25479999999999997
aF-1.0
abag2
(g629
g4
Ntp913
Rp914
(lp915
g2
(g24
g4
Ntp916
Rp917
(lp918
g2
(g28
g4
Ntp919
Rp920
(lp921
I0
ag2
(g32
g4
Ntp922
Rp923
(lp924
I0
aI0
abag96
abag2
(g37
g4
Ntp925
Rp926
(lp927
g2
(g41
g4
Ntp928
Rp929
(lp930
F0.48697273191184176
aF-0.0003249795766055996
aF0.3672047165651558
abag2
(g45
g4
Ntp931
Rp932
(lp933
F0.9986485219265587
aF-0.028677903984510297
aF0.042164274523526495
aF-0.010043974853580964
abababaF0.2752
aF-1.0
abasg521
I2
sg522
(dp934
g140
(lp935
F0.10064615296149017
aF0.2956
aF0.25479999999999997
aF0.2752
asg526
(lp936
g2
(g24
g4
Ntp937
Rp938
(lp939
g2
(g28
g4
Ntp940
Rp941
(lp942
I0
ag2
(g32
g4
Ntp943
Rp944
(lp945
I0
aI0
abag96
abag2
(g37
g4
Ntp946
Rp947
(lp948
g2
(g41
g4
Ntp949
Rp950
(lp951
F0.48697273191184176
aF-0.0003249795766055996
aF0.3672047165651558
abag2
(g45
g4
Ntp952
Rp953
(lp954
F0.9986485219265587
aF-0.028677903984510297
aF0.042164274523526495
aF-0.010043974853580964
abababasg546
(lp955
F-1.0
assg550
g2
(g629
g4
Ntp956
Rp957
(lp958
g88
aF0.2752
aF-1.0
absbasS'name'
p959
S'A Panda Program'
p960
sbsS'wallclock_time'
p961
F744.0805969238281
sS'execution_timeseries'
p962
(lp963
F1568016686.355413
aF1568016742.589304
aF1568016773.714436
aF1568016840.675345
aF1568016871.922091
aF1568016908.748545
aF1568016942.748318
aF1568016981.284183
aF1568017006.163423
aF1568017017.90221
aF1568017038.68227
aF1568017054.959026
aF1568017073.118566
aF1568017088.680031
aF1568017102.035332
aF1568017113.825508
aF1568017129.656816
aF1568017138.330587
aF1568017172.254481
aF1568017191.937856
aF1568017207.720382
aF1568017221.49724
aF1568017239.031553
aF1568017254.89016
aF1568017264.011265
aF1568017276.414356
aF1568017285.238465
aF1568017305.744014
aF1568017325.50763
aF1568017338.093765
aF1568017355.299362
aF1568017368.544791
aF1568017387.011086
asS'tuning_timeseries'
p964
(lp965
F1568016686.355409
aF1568016742.565114
aF1568016773.701185
aF1568016840.657687
aF1568016871.912645
aF1568016908.721157
aF1568016942.732668
aF1568016981.270534
aF1568017006.15279
aF1568017017.902202
aF1568017054.94456
aF1568017073.092944
aF1568017088.663154
aF1568017102.019855
aF1568017113.805193
aF1568017129.637031
aF1568017138.315235
aF1568017172.235715
aF1568017191.922533
aF1568017207.720375
aF1568017221.479547
aF1568017239.014044
aF1568017254.869513
aF1568017264.011258
aF1568017276.41435
aF1568017285.225168
aF1568017305.744
aF1568017325.48868
aF1568017338.064519
aF1568017355.279823
aF1568017368.532103
aF1568017386.995926
as.