ccopy_reg
_reconstructor
p0
(cpanda_eup.panda_primitive
PandaProgram
p1
c__builtin__
object
p2
Ntp3
Rp4
(dp5
S'effect_of_primitive'
p6
(dp7
cpanda_eup.panda_primitive
MoveFingers
p8
(lp9
I00
aI01
ascpanda_eup.panda_primitive
ApplyForceFingers
p10
(lp11
I00
aI01
ascpanda_eup.panda_primitive
UserSync
p12
(lp13
I00
aI00
ascpanda_eup.panda_primitive
MoveToEE
p14
(lp15
I01
aI00
ascpanda_eup.panda_primitive
MoveToContact
p16
(lp17
I01
aI00
assS'description'
p18
S'Empty Description'
p19
sS'arm_state_list'
p20
(lp21
g0
(cgeometry_msgs.msg._PoseStamped
PoseStamped
p22
g2
Ntp23
Rp24
(lp25
g0
(cstd_msgs.msg._Header
Header
p26
g2
Ntp27
Rp28
(lp29
I0
ag0
(cgenpy.rostime
Time
p30
g2
Ntp31
Rp32
(lp33
I0
aI0
abaS'panda_link0'
p34
abag0
(cgeometry_msgs.msg._Pose
Pose
p35
g2
Ntp36
Rp37
(lp38
g0
(cgeometry_msgs.msg._Point
Point
p39
g2
Ntp40
Rp41
(lp42
F0.4085007637617008
aF-0.04743834298515986
aF0.41592672837953215
abag0
(cgeometry_msgs.msg._Quaternion
Quaternion
p43
g2
Ntp44
Rp45
(lp46
F0.999969677491424
aF0.006662980259596884
aF0.001583209543998861
aF0.0037070526429503078
abababag0
(g22
g2
Ntp47
Rp48
(lp49
g0
(g26
g2
Ntp50
Rp51
(lp52
I0
ag0
(g30
g2
Ntp53
Rp54
(lp55
I0
aI0
abaS'panda_link0'
p56
abag0
(g35
g2
Ntp57
Rp58
(lp59
g0
(g39
g2
Ntp60
Rp61
(lp62
F0.5555374971188675
aF-0.3665594011198935
aF0.2768798697008012
abag0
(g43
g2
Ntp63
Rp64
(lp65
F-0.5202366923331977
aF0.488836282074162
aF-0.4848922246640578
aF0.5052448948168257
abababag0
(g22
g2
Ntp66
Rp67
(lp68
g0
(g26
g2
Ntp69
Rp70
(lp71
I0
ag0
(g30
g2
Ntp72
Rp73
(lp74
I0
aI0
abaS'panda_link0'
p75
abag0
(g35
g2
Ntp76
Rp77
(lp78
g0
(g39
g2
Ntp79
Rp80
(lp81
F0.6925634165505562
aF-0.03161010303150283
aF0.1515468745803516
abag0
(g43
g2
Ntp82
Rp83
(lp84
F-0.5472531305577372
aF0.48193816034954157
aF-0.4457876407294544
aF0.5191560459693428
abababag0
(g22
g2
Ntp85
Rp86
(lp87
g0
(g26
g2
Ntp88
Rp89
(lp90
I0
ag0
(g30
g2
Ntp91
Rp92
(lp93
I0
aI0
abaS'panda_link0'
p94
abag0
(g35
g2
Ntp95
Rp96
(lp97
g0
(g39
g2
Ntp98
Rp99
(lp100
F0.581848720349036
aF0.37632116390939524
aF0.3458198812985057
abag0
(g43
g2
Ntp101
Rp102
(lp103
F-0.6558731655374604
aF0.2796442810897982
aF-0.2831432228500472
aF0.6414509974547778
abababag0
(g22
g2
Ntp104
Rp105
(lp106
g0
(g26
g2
Ntp107
Rp108
(lp109
I0
ag0
(g30
g2
Ntp110
Rp111
(lp112
I0
aI0
abaS'panda_link0'
p113
abag0
(g35
g2
Ntp114
Rp115
(lp116
g0
(g39
g2
Ntp117
Rp118
(lp119
F0.44612082019446336
aF-0.04256435300120127
aF0.408240721202241
abag0
(g43
g2
Ntp120
Rp121
(lp122
F0.9998713088044058
aF-0.010703239032880212
aF-0.0070168970835132564
aF-0.009673141128363653
abababasS'gripper_state_list'
p123
(lp124
g0
(cpanda_eup.panda_primitive
GripperState
p125
g2
Ntp126
Rp127
(dp128
S'width'
p129
F0.08
sS'force'
p130
F0.0
sbag0
(g125
g2
Ntp131
Rp132
(dp133
g129
F0.0021821032278239727
sg130
F24.8
sbag0
(g125
g2
Ntp134
Rp135
(dp136
g129
F0.04410567507147789
sg130
F0.0
sbasS'primitives'
p137
(lp138
g0
(g14
g2
Ntp139
Rp140
(dp141
S'status'
p142
cpanda_eup.panda_primitive
PandaPrimitiveStatus
p143
(I1
tp144
Rp145
sS'revertible'
p146
I01
sg18
S'A Move to End-Effector primitive'
p147
sS'starting_arm_state_index'
p148
I0
sS'parameters_with_effects_on_robot_state'
p149
(lp150
S'pose'
p151
asS'expected_container'
p152
cpanda_pbd.msg._MoveToEEGoal
MoveToEEGoal
p153
sS'gui_tunable_parameter_strict_ranges'
p154
(dp155
S'position_speed'
p156
(lp157
F0.01
aF0.35
assS'container_update_history'
p158
(lp159
g0
(g153
g2
Ntp160
Rp161
(lp162
g0
(g22
g2
Ntp163
Rp164
(lp165
g0
(g26
g2
Ntp166
Rp167
(lp168
I0
ag0
(g30
g2
Ntp169
Rp170
(lp171
I0
aI0
abag56
abag0
(g35
g2
Ntp172
Rp173
(lp174
g0
(g39
g2
Ntp175
Rp176
(lp177
F0.5555374971188675
aF-0.3665594011198935
aF0.2768798697008012
abag0
(g43
g2
Ntp178
Rp179
(lp180
F-0.5202366923331977
aF0.488836282074162
aF-0.4848922246640578
aF0.5052448948168257
abababaF0.07
aF-1.0
abag0
(g153
g2
Ntp181
Rp182
(lp183
g0
(g22
g2
Ntp184
Rp185
(lp186
g0
(g26
g2
Ntp187
Rp188
(lp189
I0
ag0
(g30
g2
Ntp190
Rp191
(lp192
I0
aI0
abag56
abag0
(g35
g2
Ntp193
Rp194
(lp195
g0
(g39
g2
Ntp196
Rp197
(lp198
F0.5555374971188675
aF-0.3665594011198935
aF0.2768798697008012
abag0
(g43
g2
Ntp199
Rp200
(lp201
F-0.5202366923331977
aF0.488836282074162
aF-0.4848922246640578
aF0.5052448948168257
abababaF0.265500545910495
aF-1.0
abag0
(g153
g2
Ntp202
Rp203
(lp204
g0
(g22
g2
Ntp205
Rp206
(lp207
g0
(g26
g2
Ntp208
Rp209
(lp210
I0
ag0
(g30
g2
Ntp211
Rp212
(lp213
I0
aI0
abag56
abag0
(g35
g2
Ntp214
Rp215
(lp216
g0
(g39
g2
Ntp217
Rp218
(lp219
F0.5555374971188675
aF-0.3665594011198935
aF0.2768798697008012
abag0
(g43
g2
Ntp220
Rp221
(lp222
F-0.5202366923331977
aF0.488836282074162
aF-0.4848922246640578
aF0.5052448948168257
abababaF0.3024
aF-1.0
abasS'starting_gripper_state_index'
p223
I0
sS'parameters_update_history'
p224
(dp225
S'position_speed'
p226
(lp227
F0.07
aF0.265500545910495
aF0.3024
asS'rotation_speed'
p228
(lp229
F-1.0
asg151
(lp230
g0
(g22
g2
Ntp231
Rp232
(lp233
g0
(g26
g2
Ntp234
Rp235
(lp236
I0
ag0
(g30
g2
Ntp237
Rp238
(lp239
I0
aI0
abag56
abag0
(g35
g2
Ntp240
Rp241
(lp242
g0
(g39
g2
Ntp243
Rp244
(lp245
F0.5555374971188675
aF-0.3665594011198935
aF0.2768798697008012
abag0
(g43
g2
Ntp246
Rp247
(lp248
F-0.5202366923331977
aF0.488836282074162
aF-0.4848922246640578
aF0.5052448948168257
abababassS'parameter_container'
p249
g0
(g153
g2
Ntp250
Rp251
(lp252
g48
aF0.3024
aF-1.0
absbag0
(g12
g2
Ntp253
Rp254
(dp255
g142
g145
sg146
I01
sg18
S'A User Synchronization primitive'
p256
sg148
I1
sg149
(lp257
sg152
cpanda_pbd.msg._UserSyncGoal
UserSyncGoal
p258
sg154
(dp259
S'force_threshold'
p260
(lp261
F5.0
aF30.0
assg158
(lp262
g0
(g258
g2
Ntp263
Rp264
(lp265
F10.0
abag0
(g258
g2
Ntp266
Rp267
(lp268
F23.826556200474194
abag0
(g258
g2
Ntp269
Rp270
(lp271
F9.0
abag0
(g258
g2
Ntp272
Rp273
(lp274
F7.0
abasg223
I0
sg224
(dp275
S'force_threshold'
p276
(lp277
F10.0
aF23.826556200474194
aF9.0
aF7.0
assg249
g0
(g258
g2
Ntp278
Rp279
(lp280
F7.0
absbag0
(g10
g2
Ntp281
Rp282
(dp283
g142
g145
sg146
I01
sg18
S'A Apply Force (with) Fingers primitive'
p284
sg148
I1
sg149
(lp285
S'force'
p286
asg152
cpanda_pbd.srv._ApplyForceFingers
ApplyForceFingersRequest
p287
sg154
(dp288
g130
(lp289
F20.0
aF60.0
assg158
(lp290
g0
(g287
g2
Ntp291
Rp292
(lp293
F20.0
abag0
(g287
g2
Ntp294
Rp295
(lp296
F24.858547016190297
abag0
(g287
g2
Ntp297
Rp298
(lp299
F24.8
abasg223
I0
sg224
(dp300
g286
(lp301
F20.0
aF24.858547016190297
aF24.8
assg249
g0
(g287
g2
Ntp302
Rp303
(lp304
F24.8
absbag0
(g14
g2
Ntp305
Rp306
(dp307
g142
g145
sg146
I01
sg18
g147
sg148
I1
sg149
(lp308
g151
asg152
g153
sg154
g155
sg158
(lp309
g0
(g153
g2
Ntp310
Rp311
(lp312
g0
(g22
g2
Ntp313
Rp314
(lp315
g0
(g26
g2
Ntp316
Rp317
(lp318
I0
ag0
(g30
g2
Ntp319
Rp320
(lp321
I0
aI0
abag75
abag0
(g35
g2
Ntp322
Rp323
(lp324
g0
(g39
g2
Ntp325
Rp326
(lp327
F0.6925634165505562
aF-0.03161010303150283
aF0.1515468745803516
abag0
(g43
g2
Ntp328
Rp329
(lp330
F-0.5472531305577372
aF0.48193816034954157
aF-0.4457876407294544
aF0.5191560459693428
abababaF0.07
aF-1.0
abag0
(g153
g2
Ntp331
Rp332
(lp333
g0
(g22
g2
Ntp334
Rp335
(lp336
g0
(g26
g2
Ntp337
Rp338
(lp339
I0
ag0
(g30
g2
Ntp340
Rp341
(lp342
I0
aI0
abag75
abag0
(g35
g2
Ntp343
Rp344
(lp345
g0
(g39
g2
Ntp346
Rp347
(lp348
F0.6925634165505562
aF-0.03161010303150283
aF0.1515468745803516
abag0
(g43
g2
Ntp349
Rp350
(lp351
F-0.5472531305577372
aF0.48193816034954157
aF-0.4457876407294544
aF0.5191560459693428
abababaF0.28909159166230236
aF-1.0
abag0
(g153
g2
Ntp352
Rp353
(lp354
g0
(g22
g2
Ntp355
Rp356
(lp357
g0
(g26
g2
Ntp358
Rp359
(lp360
I0
ag0
(g30
g2
Ntp361
Rp362
(lp363
I0
aI0
abag75
abag0
(g35
g2
Ntp364
Rp365
(lp366
g0
(g39
g2
Ntp367
Rp368
(lp369
F0.6925634165505562
aF-0.03161010303150283
aF0.1515468745803516
abag0
(g43
g2
Ntp370
Rp371
(lp372
F-0.5472531305577372
aF0.48193816034954157
aF-0.4457876407294544
aF0.5191560459693428
abababaF0.10519999999999999
aF-1.0
abag0
(g153
g2
Ntp373
Rp374
(lp375
g0
(g22
g2
Ntp376
Rp377
(lp378
g0
(g26
g2
Ntp379
Rp380
(lp381
I0
ag0
(g30
g2
Ntp382
Rp383
(lp384
I0
aI0
abag75
abag0
(g35
g2
Ntp385
Rp386
(lp387
g0
(g39
g2
Ntp388
Rp389
(lp390
F0.6925634165505562
aF-0.03161010303150283
aF0.1515468745803516
abag0
(g43
g2
Ntp391
Rp392
(lp393
F-0.5472531305577372
aF0.48193816034954157
aF-0.4457876407294544
aF0.5191560459693428
abababaF0.08479999999999999
aF-1.0
abag0
(g153
g2
Ntp394
Rp395
(lp396
g0
(g22
g2
Ntp397
Rp398
(lp399
g0
(g26
g2
Ntp400
Rp401
(lp402
I0
ag0
(g30
g2
Ntp403
Rp404
(lp405
I0
aI0
abag75
abag0
(g35
g2
Ntp406
Rp407
(lp408
g0
(g39
g2
Ntp409
Rp410
(lp411
F0.6925634165505562
aF-0.03161010303150283
aF0.1515468745803516
abag0
(g43
g2
Ntp412
Rp413
(lp414
F-0.5472531305577372
aF0.48193816034954157
aF-0.4457876407294544
aF0.5191560459693428
abababaF0.2752
aF-1.0
abag0
(g153
g2
Ntp415
Rp416
(lp417
g0
(g22
g2
Ntp418
Rp419
(lp420
g0
(g26
g2
Ntp421
Rp422
(lp423
I0
ag0
(g30
g2
Ntp424
Rp425
(lp426
I0
aI0
abag75
abag0
(g35
g2
Ntp427
Rp428
(lp429
g0
(g39
g2
Ntp430
Rp431
(lp432
F0.6925634165505562
aF-0.03161010303150283
aF0.1515468745803516
abag0
(g43
g2
Ntp433
Rp434
(lp435
F-0.5472531305577372
aF0.48193816034954157
aF-0.4457876407294544
aF0.5191560459693428
abababaF0.1596
aF-1.0
abag0
(g153
g2
Ntp436
Rp437
(lp438
g0
(g22
g2
Ntp439
Rp440
(lp441
g0
(g26
g2
Ntp442
Rp443
(lp444
I0
ag0
(g30
g2
Ntp445
Rp446
(lp447
I0
aI0
abag75
abag0
(g35
g2
Ntp448
Rp449
(lp450
g0
(g39
g2
Ntp451
Rp452
(lp453
F0.6925634165505562
aF-0.03161010303150283
aF0.1515468745803516
abag0
(g43
g2
Ntp454
Rp455
(lp456
F-0.5472531305577372
aF0.48193816034954157
aF-0.4457876407294544
aF0.5191560459693428
abababaF0.18
aF-1.0
abag0
(g153
g2
Ntp457
Rp458
(lp459
g0
(g22
g2
Ntp460
Rp461
(lp462
g0
(g26
g2
Ntp463
Rp464
(lp465
I0
ag0
(g30
g2
Ntp466
Rp467
(lp468
I0
aI0
abag75
abag0
(g35
g2
Ntp469
Rp470
(lp471
g0
(g39
g2
Ntp472
Rp473
(lp474
F0.6925634165505562
aF-0.03161010303150283
aF0.1515468745803516
abag0
(g43
g2
Ntp475
Rp476
(lp477
F-0.5472531305577372
aF0.48193816034954157
aF-0.4457876407294544
aF0.5191560459693428
abababaF0.1732
aF-1.0
abag0
(g153
g2
Ntp478
Rp479
(lp480
g0
(g22
g2
Ntp481
Rp482
(lp483
g0
(g26
g2
Ntp484
Rp485
(lp486
I0
ag0
(g30
g2
Ntp487
Rp488
(lp489
I0
aI0
abag75
abag0
(g35
g2
Ntp490
Rp491
(lp492
g0
(g39
g2
Ntp493
Rp494
(lp495
F0.6925634165505562
aF-0.03161010303150283
aF0.1515468745803516
abag0
(g43
g2
Ntp496
Rp497
(lp498
F-0.5472531305577372
aF0.48193816034954157
aF-0.4457876407294544
aF0.5191560459693428
abababaF0.1596
aF-1.0
abasg223
I1
sg224
(dp499
g226
(lp500
F0.07
aF0.28909159166230236
aF0.10519999999999999
aF0.08479999999999999
aF0.2752
aF0.1596
aF0.18
aF0.1732
aF0.1596
asg228
(lp501
F-1.0
asg151
(lp502
g0
(g22
g2
Ntp503
Rp504
(lp505
g0
(g26
g2
Ntp506
Rp507
(lp508
I0
ag0
(g30
g2
Ntp509
Rp510
(lp511
I0
aI0
abag75
abag0
(g35
g2
Ntp512
Rp513
(lp514
g0
(g39
g2
Ntp515
Rp516
(lp517
F0.6925634165505562
aF-0.03161010303150283
aF0.1515468745803516
abag0
(g43
g2
Ntp518
Rp519
(lp520
F-0.5472531305577372
aF0.48193816034954157
aF-0.4457876407294544
aF0.5191560459693428
abababassg249
g0
(g153
g2
Ntp521
Rp522
(lp523
g67
aF0.1596
aF-1.0
absbag0
(g14
g2
Ntp524
Rp525
(dp526
g142
g145
sg146
I01
sg18
g147
sg148
I2
sg149
(lp527
g151
asg152
g153
sg154
g155
sg158
(lp528
g0
(g153
g2
Ntp529
Rp530
(lp531
g0
(g22
g2
Ntp532
Rp533
(lp534
g0
(g26
g2
Ntp535
Rp536
(lp537
I0
ag0
(g30
g2
Ntp538
Rp539
(lp540
I0
aI0
abag94
abag0
(g35
g2
Ntp541
Rp542
(lp543
g0
(g39
g2
Ntp544
Rp545
(lp546
F0.581848720349036
aF0.37632116390939524
aF0.3458198812985057
abag0
(g43
g2
Ntp547
Rp548
(lp549
F-0.6558731655374604
aF0.2796442810897982
aF-0.2831432228500472
aF0.6414509974547778
abababaF0.07
aF-1.0
abag0
(g153
g2
Ntp550
Rp551
(lp552
g0
(g22
g2
Ntp553
Rp554
(lp555
g0
(g26
g2
Ntp556
Rp557
(lp558
I0
ag0
(g30
g2
Ntp559
Rp560
(lp561
I0
aI0
abag94
abag0
(g35
g2
Ntp562
Rp563
(lp564
g0
(g39
g2
Ntp565
Rp566
(lp567
F0.581848720349036
aF0.37632116390939524
aF0.3458198812985057
abag0
(g43
g2
Ntp568
Rp569
(lp570
F-0.6558731655374604
aF0.2796442810897982
aF-0.2831432228500472
aF0.6414509974547778
abababaF0.2866419786395502
aF-1.0
abag0
(g153
g2
Ntp571
Rp572
(lp573
g0
(g22
g2
Ntp574
Rp575
(lp576
g0
(g26
g2
Ntp577
Rp578
(lp579
I0
ag0
(g30
g2
Ntp580
Rp581
(lp582
I0
aI0
abag94
abag0
(g35
g2
Ntp583
Rp584
(lp585
g0
(g39
g2
Ntp586
Rp587
(lp588
F0.581848720349036
aF0.37632116390939524
aF0.3458198812985057
abag0
(g43
g2
Ntp589
Rp590
(lp591
F-0.6558731655374604
aF0.2796442810897982
aF-0.2831432228500472
aF0.6414509974547778
abababaF0.2752
aF-1.0
abag0
(g153
g2
Ntp592
Rp593
(lp594
g0
(g22
g2
Ntp595
Rp596
(lp597
g0
(g26
g2
Ntp598
Rp599
(lp600
I0
ag0
(g30
g2
Ntp601
Rp602
(lp603
I0
aI0
abag94
abag0
(g35
g2
Ntp604
Rp605
(lp606
g0
(g39
g2
Ntp607
Rp608
(lp609
F0.581848720349036
aF0.37632116390939524
aF0.3458198812985057
abag0
(g43
g2
Ntp610
Rp611
(lp612
F-0.6558731655374604
aF0.2796442810897982
aF-0.2831432228500472
aF0.6414509974547778
abababaF0.18
aF-1.0
abasg223
I1
sg224
(dp613
g226
(lp614
F0.07
aF0.2866419786395502
aF0.2752
aF0.18
asg228
(lp615
F-1.0
asg151
(lp616
g0
(g22
g2
Ntp617
Rp618
(lp619
g0
(g26
g2
Ntp620
Rp621
(lp622
I0
ag0
(g30
g2
Ntp623
Rp624
(lp625
I0
aI0
abag94
abag0
(g35
g2
Ntp626
Rp627
(lp628
g0
(g39
g2
Ntp629
Rp630
(lp631
F0.581848720349036
aF0.37632116390939524
aF0.3458198812985057
abag0
(g43
g2
Ntp632
Rp633
(lp634
F-0.6558731655374604
aF0.2796442810897982
aF-0.2831432228500472
aF0.6414509974547778
abababassg249
g0
(g153
g2
Ntp635
Rp636
(lp637
g86
aF0.18
aF-1.0
absbag0
(g12
g2
Ntp638
Rp639
(dp640
g142
g145
sg146
I01
sg18
g256
sg148
I3
sg149
(lp641
sg152
g258
sg154
g259
sg158
(lp642
g0
(g258
g2
Ntp643
Rp644
(lp645
F10.0
abag0
(g258
g2
Ntp646
Rp647
(lp648
F22.831800730697186
abag0
(g258
g2
Ntp649
Rp650
(lp651
F7.0
abasg223
I1
sg224
(dp652
g276
(lp653
F10.0
aF22.831800730697186
aF7.0
assg249
g0
(g258
g2
Ntp654
Rp655
(lp656
F7.0
absbag0
(g8
g2
Ntp657
Rp658
(dp659
g142
g145
sg146
I01
sg18
S'A Move Fingers primitive'
p660
sg148
I3
sg149
(lp661
S'width'
p662
asg152
cpanda_pbd.srv._MoveFingers
MoveFingersRequest
p663
sg154
(dp664
g662
(lp665
F0.04410567507147789
aF0.08
assg158
(lp666
g0
(g663
g2
Ntp667
Rp668
(lp669
F0.04410567507147789
abag0
(g663
g2
Ntp670
Rp671
(lp672
F0.07205668597125747
abasg223
I1
sg224
(dp673
g662
(lp674
F0.04410567507147789
aF0.07205668597125747
assg249
g0
(g663
g2
Ntp675
Rp676
(lp677
F0.07205668597125747
absbag0
(g14
g2
Ntp678
Rp679
(dp680
g142
g145
sg146
I01
sg18
g147
sg148
I3
sg149
(lp681
g151
asg152
g153
sg154
g155
sg158
(lp682
g0
(g153
g2
Ntp683
Rp684
(lp685
g0
(g22
g2
Ntp686
Rp687
(lp688
g0
(g26
g2
Ntp689
Rp690
(lp691
I0
ag0
(g30
g2
Ntp692
Rp693
(lp694
I0
aI0
abag113
abag0
(g35
g2
Ntp695
Rp696
(lp697
g0
(g39
g2
Ntp698
Rp699
(lp700
F0.44612082019446336
aF-0.04256435300120127
aF0.408240721202241
abag0
(g43
g2
Ntp701
Rp702
(lp703
F0.9998713088044058
aF-0.010703239032880212
aF-0.0070168970835132564
aF-0.009673141128363653
abababaF0.07
aF-1.0
abag0
(g153
g2
Ntp704
Rp705
(lp706
g0
(g22
g2
Ntp707
Rp708
(lp709
g0
(g26
g2
Ntp710
Rp711
(lp712
I0
ag0
(g30
g2
Ntp713
Rp714
(lp715
I0
aI0
abag113
abag0
(g35
g2
Ntp716
Rp717
(lp718
g0
(g39
g2
Ntp719
Rp720
(lp721
F0.44612082019446336
aF-0.04256435300120127
aF0.408240721202241
abag0
(g43
g2
Ntp722
Rp723
(lp724
F0.9998713088044058
aF-0.010703239032880212
aF-0.0070168970835132564
aF-0.009673141128363653
abababaF0.07343791095108446
aF-1.0
abag0
(g153
g2
Ntp725
Rp726
(lp727
g0
(g22
g2
Ntp728
Rp729
(lp730
g0
(g26
g2
Ntp731
Rp732
(lp733
I0
ag0
(g30
g2
Ntp734
Rp735
(lp736
I0
aI0
abag113
abag0
(g35
g2
Ntp737
Rp738
(lp739
g0
(g39
g2
Ntp740
Rp741
(lp742
F0.44612082019446336
aF-0.04256435300120127
aF0.408240721202241
abag0
(g43
g2
Ntp743
Rp744
(lp745
F0.9998713088044058
aF-0.010703239032880212
aF-0.0070168970835132564
aF-0.009673141128363653
abababaF0.3024
aF-1.0
abasg223
I2
sg224
(dp746
g226
(lp747
F0.07
aF0.07343791095108446
aF0.3024
asg228
(lp748
F-1.0
asg151
(lp749
g0
(g22
g2
Ntp750
Rp751
(lp752
g0
(g26
g2
Ntp753
Rp754
(lp755
I0
ag0
(g30
g2
Ntp756
Rp757
(lp758
I0
aI0
abag113
abag0
(g35
g2
Ntp759
Rp760
(lp761
g0
(g39
g2
Ntp762
Rp763
(lp764
F0.44612082019446336
aF-0.04256435300120127
aF0.408240721202241
abag0
(g43
g2
Ntp765
Rp766
(lp767
F0.9998713088044058
aF-0.010703239032880212
aF-0.0070168970835132564
aF-0.009673141128363653
abababassg249
g0
(g153
g2
Ntp768
Rp769
(lp770
g105
aF0.3024
aF-1.0
absbasS'name'
p771
S'A Panda Program'
p772
sb.