(dp0
S'program'
p1
ccopy_reg
_reconstructor
p2
(cpanda_eup.panda_primitive
PandaProgram
p3
c__builtin__
object
p4
Ntp5
Rp6
(dp7
S'effect_of_primitive'
p8
(dp9
cpanda_eup.panda_primitive
ApplyForceFingers
p10
(lp11
I00
aI01
ascpanda_eup.panda_primitive
MoveToContact
p12
(lp13
I01
aI00
ascpanda_eup.panda_primitive
MoveToEE
p14
(lp15
I01
aI00
ascpanda_eup.panda_primitive
MoveFingers
p16
(lp17
I00
aI01
ascpanda_eup.panda_primitive
UserSync
p18
(lp19
I00
aI00
assS'description'
p20
S'Empty Description'
p21
sS'arm_state_list'
p22
(lp23
g2
(cgeometry_msgs.msg._PoseStamped
PoseStamped
p24
g4
Ntp25
Rp26
(lp27
g2
(cstd_msgs.msg._Header
Header
p28
g4
Ntp29
Rp30
(lp31
I0
ag2
(cgenpy.rostime
Time
p32
g4
Ntp33
Rp34
(lp35
I0
aI0
abaS'panda_link0'
p36
abag2
(cgeometry_msgs.msg._Pose
Pose
p37
g4
Ntp38
Rp39
(lp40
g2
(cgeometry_msgs.msg._Point
Point
p41
g4
Ntp42
Rp43
(lp44
F0.4833974233623748
aF0.007318751177980708
aF0.3904495689279949
abag2
(cgeometry_msgs.msg._Quaternion
Quaternion
p45
g4
Ntp46
Rp47
(lp48
F0.9993500431690824
aF-0.014042189921340717
aF-0.02007113406023331
aF-0.026447262574839425
abababag2
(g24
g4
Ntp49
Rp50
(lp51
g2
(g28
g4
Ntp52
Rp53
(lp54
I0
ag2
(g32
g4
Ntp55
Rp56
(lp57
I0
aI0
abaS'panda_link0'
p58
abag2
(g37
g4
Ntp59
Rp60
(lp61
g2
(g41
g4
Ntp62
Rp63
(lp64
F0.5004011848018897
aF0.004248381936558044
aF0.020962564933294625
abag2
(g45
g4
Ntp65
Rp66
(lp67
F0.9994813627485916
aF-0.02821070189899131
aF0.009469696856409936
aF-0.012307991632771182
abababag2
(g24
g4
Ntp68
Rp69
(lp70
g2
(g28
g4
Ntp71
Rp72
(lp73
I0
ag2
(g32
g4
Ntp74
Rp75
(lp76
I0
aI0
abaS'panda_link0'
p77
abag2
(g37
g4
Ntp78
Rp79
(lp80
g2
(g41
g4
Ntp81
Rp82
(lp83
F0.6404225030201885
aF-0.21899515188976365
aF0.31947401035356376
abag2
(g45
g4
Ntp84
Rp85
(lp86
F0.8476936441278499
aF-0.15503337362532482
aF0.5028616917286283
aF0.06715845262823286
abababag2
(g24
g4
Ntp87
Rp88
(lp89
g2
(g28
g4
Ntp90
Rp91
(lp92
I0
ag2
(g32
g4
Ntp93
Rp94
(lp95
I0
aI0
abaS'panda_link0'
p96
abag2
(g37
g4
Ntp97
Rp98
(lp99
g2
(g41
g4
Ntp100
Rp101
(lp102
F0.48697273191184176
aF-0.0003249795766055996
aF0.3672047165651558
abag2
(g45
g4
Ntp103
Rp104
(lp105
F0.9986485219265587
aF-0.028677903984510297
aF0.042164274523526495
aF-0.010043974853580964
abababasS'gripper_state_list'
p106
(lp107
g2
(cpanda_eup.panda_primitive
GripperState
p108
g4
Ntp109
Rp110
(dp111
S'width'
p112
F0.08
sS'force'
p113
F0.0
sbag2
(g108
g4
Ntp114
Rp115
(dp116
g112
F0.03309468552470207
sg113
F39.2
sbag2
(g108
g4
Ntp117
Rp118
(dp119
g112
F0.06192497909069061
sg113
F0.0
sbasS'primitives'
p120
(lp121
g2
(g12
g4
Ntp122
Rp123
(dp124
S'status'
p125
cpanda_eup.panda_primitive
PandaPrimitiveStatus
p126
(I1
tp127
Rp128
sS'revertible'
p129
I01
sg20
S'A Move to Contact primitive'
p130
sS'parameters_range_history'
p131
(dp132
S'force_threshold'
p133
(lp134
(lp135
F6.5
aF16.1
aa(lp136
F5.9
aF10.1
aa(lp137
F5.9
aF8.0
aa(lp138
F5.3
aF6.8
aa(lp139
F5.3
aF6.2
aa(lp140
F5.3
aF5.6
aa(lp141
F5.0
aF5.3
aa(lp142
F5.0
aF5.0
aasS'position_speed'
p143
(lp144
(lp145
F0.01
aF0.25
aa(lp146
F0.1348
aF0.25
aa(lp147
F0.1636
aF0.25
aa(lp148
F0.1684
aF0.25
aa(lp149
F0.1684
aF0.22599999999999998
aa(lp150
F0.178
aF0.23079999999999998
aa(lp151
F0.1876
aF0.23079999999999998
aa(lp152
F0.20679999999999998
aF0.23079999999999998
aa(lp153
F0.20199999999999999
aF0.23079999999999998
aa(lp154
F0.1828
aF0.20199999999999999
aa(lp155
F0.1876
aF0.20199999999999999
aa(lp156
F0.1828
aF0.1972
aassS'starting_arm_state_index'
p157
I0
sS'parameters_with_effects_on_robot_state'
p158
(lp159
S'pose'
p160
aS'force_threshold'
p161
aS'torque_threshold'
p162
asS'expected_container'
p163
cpanda_pbd.msg._MoveToContactGoal
MoveToContactGoal
p164
sS'gui_tunable_parameter_strict_ranges'
p165
(dp166
g133
(lp167
F5.0
aF20.0
asg143
(lp168
F0.01
aF0.25
assS'container_update_history'
p169
(lp170
g2
(g164
g4
Ntp171
Rp172
(lp173
g2
(g24
g4
Ntp174
Rp175
(lp176
g2
(g28
g4
Ntp177
Rp178
(lp179
I0
ag2
(g32
g4
Ntp180
Rp181
(lp182
I0
aI0
abaS'panda_link0'
p183
abag2
(g37
g4
Ntp184
Rp185
(lp186
g2
(g41
g4
Ntp187
Rp188
(lp189
F0.5069132714754178
aF0.004873624607929537
aF0.027077189596690976
abag2
(g45
g4
Ntp190
Rp191
(lp192
F0.9995143312059889
aF-0.02583181235790082
aF0.016166211683465017
aF-0.006517114695673689
abababaF0.06888033389925657
aF-1.0
aF6.008974924703055
aF10.0
abag2
(g164
g4
Ntp193
Rp194
(lp195
g2
(g24
g4
Ntp196
Rp197
(lp198
g2
(g28
g4
Ntp199
Rp200
(lp201
I0
ag2
(g32
g4
Ntp202
Rp203
(lp204
I0
aI0
abag183
abag2
(g37
g4
Ntp205
Rp206
(lp207
g2
(g41
g4
Ntp208
Rp209
(lp210
F0.5069132714754178
aF0.004873624607929537
aF0.027077189596690976
abag2
(g45
g4
Ntp211
Rp212
(lp213
F0.9995143312059889
aF-0.02583181235790082
aF0.016166211683465017
aF-0.006517114695673689
abababaF0.06888033389925657
aF-1.0
aF5.9
aF10.0
abag2
(g164
g4
Ntp214
Rp215
(lp216
g2
(g24
g4
Ntp217
Rp218
(lp219
g2
(g28
g4
Ntp220
Rp221
(lp222
I0
ag2
(g32
g4
Ntp223
Rp224
(lp225
I0
aI0
abag183
abag2
(g37
g4
Ntp226
Rp227
(lp228
g2
(g41
g4
Ntp229
Rp230
(lp231
F0.5069132714754178
aF0.004873624607929537
aF0.027077189596690976
abag2
(g45
g4
Ntp232
Rp233
(lp234
F0.9995143312059889
aF-0.02583181235790082
aF0.016166211683465017
aF-0.006517114695673689
abababaF0.0196
aF-1.0
aF5.9
aF10.0
abag2
(g164
g4
Ntp235
Rp236
(lp237
g2
(g24
g4
Ntp238
Rp239
(lp240
g2
(g28
g4
Ntp241
Rp242
(lp243
I0
ag2
(g32
g4
Ntp244
Rp245
(lp246
I0
aI0
abag183
abag2
(g37
g4
Ntp247
Rp248
(lp249
g2
(g41
g4
Ntp250
Rp251
(lp252
F0.5069132714754178
aF0.004873624607929537
aF0.027077189596690976
abag2
(g45
g4
Ntp253
Rp254
(lp255
F0.9995143312059889
aF-0.02583181235790082
aF0.016166211683465017
aF-0.006517114695673689
abababaF0.0196
aF-1.0
aF7.1
aF10.0
abag2
(g164
g4
Ntp256
Rp257
(lp258
g2
(g24
g4
Ntp259
Rp260
(lp261
g2
(g28
g4
Ntp262
Rp263
(lp264
I0
ag2
(g32
g4
Ntp265
Rp266
(lp267
I0
aI0
abag183
abag2
(g37
g4
Ntp268
Rp269
(lp270
g2
(g41
g4
Ntp271
Rp272
(lp273
F0.5069132714754178
aF0.004873624607929537
aF0.027077189596690976
abag2
(g45
g4
Ntp274
Rp275
(lp276
F0.9995143312059889
aF-0.02583181235790082
aF0.016166211683465017
aF-0.006517114695673689
abababaF0.1444
aF-1.0
aF7.1
aF10.0
abag2
(g164
g4
Ntp277
Rp278
(lp279
g2
(g24
g4
Ntp280
Rp281
(lp282
g2
(g28
g4
Ntp283
Rp284
(lp285
I0
ag2
(g32
g4
Ntp286
Rp287
(lp288
I0
aI0
abag183
abag2
(g37
g4
Ntp289
Rp290
(lp291
g2
(g41
g4
Ntp292
Rp293
(lp294
F0.5069132714754178
aF0.004873624607929537
aF0.027077189596690976
abag2
(g45
g4
Ntp295
Rp296
(lp297
F0.9995143312059889
aF-0.02583181235790082
aF0.016166211683465017
aF-0.006517114695673689
abababaF0.1444
aF-1.0
aF6.2
aF10.0
abag2
(g164
g4
Ntp298
Rp299
(lp300
g2
(g24
g4
Ntp301
Rp302
(lp303
g2
(g28
g4
Ntp304
Rp305
(lp306
I0
ag2
(g32
g4
Ntp307
Rp308
(lp309
I0
aI0
abag183
abag2
(g37
g4
Ntp310
Rp311
(lp312
g2
(g41
g4
Ntp313
Rp314
(lp315
F0.5069132714754178
aF0.004873624607929537
aF0.027077189596690976
abag2
(g45
g4
Ntp316
Rp317
(lp318
F0.9995143312059889
aF-0.02583181235790082
aF0.016166211683465017
aF-0.006517114695673689
abababaF0.1732
aF-1.0
aF6.2
aF10.0
abag2
(g164
g4
Ntp319
Rp320
(lp321
g2
(g24
g4
Ntp322
Rp323
(lp324
g2
(g28
g4
Ntp325
Rp326
(lp327
I0
ag2
(g32
g4
Ntp328
Rp329
(lp330
I0
aI0
abag183
abag2
(g37
g4
Ntp331
Rp332
(lp333
g2
(g41
g4
Ntp334
Rp335
(lp336
F0.5069132714754178
aF0.004873624607929537
aF0.027077189596690976
abag2
(g45
g4
Ntp337
Rp338
(lp339
F0.9995143312059889
aF-0.02583181235790082
aF0.016166211683465017
aF-0.006517114695673689
abababaF0.1732
aF-1.0
aF5.9
aF10.0
abag2
(g164
g4
Ntp340
Rp341
(lp342
g2
(g24
g4
Ntp343
Rp344
(lp345
g2
(g28
g4
Ntp346
Rp347
(lp348
I0
ag2
(g32
g4
Ntp349
Rp350
(lp351
I0
aI0
abag183
abag2
(g37
g4
Ntp352
Rp353
(lp354
g2
(g41
g4
Ntp355
Rp356
(lp357
F0.5069132714754178
aF0.004873624607929537
aF0.027077189596690976
abag2
(g45
g4
Ntp358
Rp359
(lp360
F0.9995143312059889
aF-0.02583181235790082
aF0.016166211683465017
aF-0.006517114695673689
abababaF0.1732
aF-1.0
aF5.6
aF10.0
abag2
(g164
g4
Ntp361
Rp362
(lp363
g2
(g24
g4
Ntp364
Rp365
(lp366
g2
(g28
g4
Ntp367
Rp368
(lp369
I0
ag2
(g32
g4
Ntp370
Rp371
(lp372
I0
aI0
abag183
abag2
(g37
g4
Ntp373
Rp374
(lp375
g2
(g41
g4
Ntp376
Rp377
(lp378
F0.5069132714754178
aF0.004873624607929537
aF0.027077189596690976
abag2
(g45
g4
Ntp379
Rp380
(lp381
F0.9995143312059889
aF-0.02583181235790082
aF0.016166211683465017
aF-0.006517114695673689
abababaF0.1828
aF-1.0
aF5.6
aF10.0
abag2
(g164
g4
Ntp382
Rp383
(lp384
g2
(g24
g4
Ntp385
Rp386
(lp387
g2
(g28
g4
Ntp388
Rp389
(lp390
I0
ag2
(g32
g4
Ntp391
Rp392
(lp393
I0
aI0
abag183
abag2
(g37
g4
Ntp394
Rp395
(lp396
g2
(g41
g4
Ntp397
Rp398
(lp399
F0.5069132714754178
aF0.004873624607929537
aF0.027077189596690976
abag2
(g45
g4
Ntp400
Rp401
(lp402
F0.9995143312059889
aF-0.02583181235790082
aF0.016166211683465017
aF-0.006517114695673689
abababaF0.1828
aF-1.0
aF5.3
aF10.0
abag2
(g164
g4
Ntp403
Rp404
(lp405
g2
(g24
g4
Ntp406
Rp407
(lp408
g2
(g28
g4
Ntp409
Rp410
(lp411
I0
ag2
(g32
g4
Ntp412
Rp413
(lp414
I0
aI0
abag183
abag2
(g37
g4
Ntp415
Rp416
(lp417
g2
(g41
g4
Ntp418
Rp419
(lp420
F0.5069132714754178
aF0.004873624607929537
aF0.027077189596690976
abag2
(g45
g4
Ntp421
Rp422
(lp423
F0.9995143312059889
aF-0.02583181235790082
aF0.016166211683465017
aF-0.006517114695673689
abababaF0.1828
aF-1.0
aF5.3
aF10.0
abag2
(g164
g4
Ntp424
Rp425
(lp426
g2
(g24
g4
Ntp427
Rp428
(lp429
g2
(g28
g4
Ntp430
Rp431
(lp432
I0
ag2
(g32
g4
Ntp433
Rp434
(lp435
I0
aI0
abag183
abag2
(g37
g4
Ntp436
Rp437
(lp438
g2
(g41
g4
Ntp439
Rp440
(lp441
F0.5069132714754178
aF0.004873624607929537
aF0.027077189596690976
abag2
(g45
g4
Ntp442
Rp443
(lp444
F0.9995143312059889
aF-0.02583181235790082
aF0.016166211683465017
aF-0.006517114695673689
abababaF0.1828
aF-1.0
aF5.0
aF10.0
abag2
(g164
g4
Ntp445
Rp446
(lp447
g2
(g24
g4
Ntp448
Rp449
(lp450
g2
(g28
g4
Ntp451
Rp452
(lp453
I0
ag2
(g32
g4
Ntp454
Rp455
(lp456
I0
aI0
abag183
abag2
(g37
g4
Ntp457
Rp458
(lp459
g2
(g41
g4
Ntp460
Rp461
(lp462
F0.5069132714754178
aF0.004873624607929537
aF0.027077189596690976
abag2
(g45
g4
Ntp463
Rp464
(lp465
F0.9995143312059889
aF-0.02583181235790082
aF0.016166211683465017
aF-0.006517114695673689
abababaF0.178
aF-1.0
aF5.0
aF10.0
abag2
(g164
g4
Ntp466
Rp467
(lp468
g2
(g24
g4
Ntp469
Rp470
(lp471
g2
(g28
g4
Ntp472
Rp473
(lp474
I0
ag2
(g32
g4
Ntp475
Rp476
(lp477
I0
aI0
abag183
abag2
(g37
g4
Ntp478
Rp479
(lp480
g2
(g41
g4
Ntp481
Rp482
(lp483
F0.5069132714754178
aF0.004873624607929537
aF0.027077189596690976
abag2
(g45
g4
Ntp484
Rp485
(lp486
F0.9995143312059889
aF-0.02583181235790082
aF0.016166211683465017
aF-0.006517114695673689
abababaF0.21639999999999998
aF-1.0
aF5.0
aF10.0
abag2
(g164
g4
Ntp487
Rp488
(lp489
g2
(g24
g4
Ntp490
Rp491
(lp492
g2
(g28
g4
Ntp493
Rp494
(lp495
I0
ag2
(g32
g4
Ntp496
Rp497
(lp498
I0
aI0
abag183
abag2
(g37
g4
Ntp499
Rp500
(lp501
g2
(g41
g4
Ntp502
Rp503
(lp504
F0.5069132714754178
aF0.004873624607929537
aF0.027077189596690976
abag2
(g45
g4
Ntp505
Rp506
(lp507
F0.9995143312059889
aF-0.02583181235790082
aF0.016166211683465017
aF-0.006517114695673689
abababaF0.1972
aF-1.0
aF5.0
aF10.0
abag2
(g164
g4
Ntp508
Rp509
(lp510
g2
(g24
g4
Ntp511
Rp512
(lp513
g2
(g28
g4
Ntp514
Rp515
(lp516
I0
ag2
(g32
g4
Ntp517
Rp518
(lp519
I0
aI0
abag183
abag2
(g37
g4
Ntp520
Rp521
(lp522
g2
(g41
g4
Ntp523
Rp524
(lp525
F0.5069132714754178
aF0.004873624607929537
aF0.027077189596690976
abag2
(g45
g4
Ntp526
Rp527
(lp528
F0.9995143312059889
aF-0.02583181235790082
aF0.016166211683465017
aF-0.006517114695673689
abababaF0.1924
aF-1.0
aF5.0
aF10.0
abasS'starting_gripper_state_index'
p529
I0
sS'parameters_update_history'
p530
(dp531
g143
(lp532
F0.06888033389925657
aF0.0196
aF0.1444
aF0.1732
aF0.1828
aF0.178
aF0.21639999999999998
aF0.1972
aF0.1924
asg133
(lp533
F6.008974924703055
aF5.9
aF7.1
aF6.2
aF5.9
aF5.6
aF5.3
aF5.3
aF5.0
asS'pose'
p534
(lp535
g2
(g24
g4
Ntp536
Rp537
(lp538
g2
(g28
g4
Ntp539
Rp540
(lp541
I0
ag2
(g32
g4
Ntp542
Rp543
(lp544
I0
aI0
abag183
abag2
(g37
g4
Ntp545
Rp546
(lp547
g2
(g41
g4
Ntp548
Rp549
(lp550
F0.5069132714754178
aF0.004873624607929537
aF0.027077189596690976
abag2
(g45
g4
Ntp551
Rp552
(lp553
F0.9995143312059889
aF-0.02583181235790082
aF0.016166211683465017
aF-0.006517114695673689
abababasS'rotation_speed'
p554
(lp555
F-1.0
asS'torque_threshold'
p556
(lp557
F10.0
assS'parameter_container'
p558
g2
(g164
g4
Ntp559
Rp560
(lp561
g2
(g24
g4
Ntp562
Rp563
(lp564
g2
(g28
g4
Ntp565
Rp566
(lp567
I0
ag2
(g32
g4
Ntp568
Rp569
(lp570
I0
aI0
abag183
abag2
(g37
g4
Ntp571
Rp572
(lp573
g2
(g41
g4
Ntp574
Rp575
(lp576
F0.5069132714754178
aF0.004873624607929537
aF0.027077189596690976
abag2
(g45
g4
Ntp577
Rp578
(lp579
F0.9995143312059889
aF-0.02583181235790082
aF0.016166211683465017
aF-0.006517114695673689
abababaF0.1924
aF-1.0
aF5.0
aF10.0
absbag2
(g10
g4
Ntp580
Rp581
(dp582
g125
g128
sg129
I01
sg20
S'A Apply Force (with) Fingers primitive'
p583
sg131
(dp584
g113
(lp585
(lp586
F20.0
aF49.6
aa(lp587
F32.0
aF49.6
aa(lp588
F32.8
aF46.400000000000006
aa(lp589
F34.4
aF41.6
aa(lp590
F37.6
aF40.8
aa(lp591
F38.400000000000006
aF40.0
aassg157
I1
sg158
(lp592
S'force'
p593
asg163
cpanda_pbd.srv._ApplyForceFingers
ApplyForceFingersRequest
p594
sg165
(dp595
g113
(lp596
F20.0
aF60.0
assg169
(lp597
g2
(g594
g4
Ntp598
Rp599
(lp600
F52.99594956484977
abag2
(g594
g4
Ntp601
Rp602
(lp603
F52.800000000000004
abag2
(g594
g4
Ntp604
Rp605
(lp606
F33.6
abag2
(g594
g4
Ntp607
Rp608
(lp609
F39.2
abasg529
I0
sg530
(dp610
g113
(lp611
F52.99594956484977
aF52.800000000000004
aF33.6
aF39.2
assg558
g2
(g594
g4
Ntp612
Rp613
(lp614
F39.2
absbag2
(g14
g4
Ntp615
Rp616
(dp617
g125
g128
sg129
I01
sg20
S'A Move to End-Effector primitive'
p618
sg131
(dp619
g143
(lp620
(lp621
F0.18
aF0.2344
aa(lp622
F0.2072
aF0.2412
aa(lp623
F0.2208
aF0.2412
aa(lp624
F0.2276
aF0.248
aassg157
I1
sg158
(lp625
g160
asg163
cpanda_pbd.msg._MoveToEEGoal
MoveToEEGoal
p626
sg165
(dp627
g143
(lp628
F0.01
aF0.35
assg169
(lp629
g2
(g626
g4
Ntp630
Rp631
(lp632
g2
(g24
g4
Ntp633
Rp634
(lp635
g2
(g28
g4
Ntp636
Rp637
(lp638
I0
ag2
(g32
g4
Ntp639
Rp640
(lp641
I0
aI0
abag77
abag2
(g37
g4
Ntp642
Rp643
(lp644
g2
(g41
g4
Ntp645
Rp646
(lp647
F0.6404225030201885
aF-0.21899515188976365
aF0.31947401035356376
abag2
(g45
g4
Ntp648
Rp649
(lp650
F0.8476936441278499
aF-0.15503337362532482
aF0.5028616917286283
aF0.06715845262823286
abababaF0.15645573479901234
aF-1.0
abag2
(g626
g4
Ntp651
Rp652
(lp653
g2
(g24
g4
Ntp654
Rp655
(lp656
g2
(g28
g4
Ntp657
Rp658
(lp659
I0
ag2
(g32
g4
Ntp660
Rp661
(lp662
I0
aI0
abag77
abag2
(g37
g4
Ntp663
Rp664
(lp665
g2
(g41
g4
Ntp666
Rp667
(lp668
F0.6404225030201885
aF-0.21899515188976365
aF0.31947401035356376
abag2
(g45
g4
Ntp669
Rp670
(lp671
F0.8476936441278499
aF-0.15503337362532482
aF0.5028616917286283
aF0.06715845262823286
abababaF0.1528
aF-1.0
abag2
(g626
g4
Ntp672
Rp673
(lp674
g2
(g24
g4
Ntp675
Rp676
(lp677
g2
(g28
g4
Ntp678
Rp679
(lp680
I0
ag2
(g32
g4
Ntp681
Rp682
(lp683
I0
aI0
abag77
abag2
(g37
g4
Ntp684
Rp685
(lp686
g2
(g41
g4
Ntp687
Rp688
(lp689
F0.6404225030201885
aF-0.21899515188976365
aF0.31947401035356376
abag2
(g45
g4
Ntp690
Rp691
(lp692
F0.8476936441278499
aF-0.15503337362532482
aF0.5028616917286283
aF0.06715845262823286
abababaF0.1868
aF-1.0
abag2
(g626
g4
Ntp693
Rp694
(lp695
g2
(g24
g4
Ntp696
Rp697
(lp698
g2
(g28
g4
Ntp699
Rp700
(lp701
I0
ag2
(g32
g4
Ntp702
Rp703
(lp704
I0
aI0
abag77
abag2
(g37
g4
Ntp705
Rp706
(lp707
g2
(g41
g4
Ntp708
Rp709
(lp710
F0.6404225030201885
aF-0.21899515188976365
aF0.31947401035356376
abag2
(g45
g4
Ntp711
Rp712
(lp713
F0.8476936441278499
aF-0.15503337362532482
aF0.5028616917286283
aF0.06715845262823286
abababaF0.2276
aF-1.0
abag2
(g626
g4
Ntp714
Rp715
(lp716
g2
(g24
g4
Ntp717
Rp718
(lp719
g2
(g28
g4
Ntp720
Rp721
(lp722
I0
ag2
(g32
g4
Ntp723
Rp724
(lp725
I0
aI0
abag77
abag2
(g37
g4
Ntp726
Rp727
(lp728
g2
(g41
g4
Ntp729
Rp730
(lp731
F0.6404225030201885
aF-0.21899515188976365
aF0.31947401035356376
abag2
(g45
g4
Ntp732
Rp733
(lp734
F0.8476936441278499
aF-0.15503337362532482
aF0.5028616917286283
aF0.06715845262823286
abababaF0.2344
aF-1.0
abag2
(g626
g4
Ntp735
Rp736
(lp737
g2
(g24
g4
Ntp738
Rp739
(lp740
g2
(g28
g4
Ntp741
Rp742
(lp743
I0
ag2
(g32
g4
Ntp744
Rp745
(lp746
I0
aI0
abag77
abag2
(g37
g4
Ntp747
Rp748
(lp749
g2
(g41
g4
Ntp750
Rp751
(lp752
F0.6404225030201885
aF-0.21899515188976365
aF0.31947401035356376
abag2
(g45
g4
Ntp753
Rp754
(lp755
F0.8476936441278499
aF-0.15503337362532482
aF0.5028616917286283
aF0.06715845262823286
abababaF0.2412
aF-1.0
abasg529
I1
sg530
(dp756
g143
(lp757
F0.15645573479901234
aF0.1528
aF0.1868
aF0.2276
aF0.2344
aF0.2412
asg534
(lp758
g2
(g24
g4
Ntp759
Rp760
(lp761
g2
(g28
g4
Ntp762
Rp763
(lp764
I0
ag2
(g32
g4
Ntp765
Rp766
(lp767
I0
aI0
abag77
abag2
(g37
g4
Ntp768
Rp769
(lp770
g2
(g41
g4
Ntp771
Rp772
(lp773
F0.6404225030201885
aF-0.21899515188976365
aF0.31947401035356376
abag2
(g45
g4
Ntp774
Rp775
(lp776
F0.8476936441278499
aF-0.15503337362532482
aF0.5028616917286283
aF0.06715845262823286
abababasg554
(lp777
F-1.0
assg558
g2
(g626
g4
Ntp778
Rp779
(lp780
g69
aF0.2412
aF-1.0
absbag2
(g18
g4
Ntp781
Rp782
(dp783
g125
g128
sg129
I01
sg20
S'A User Synchronization primitive'
p784
sg131
(dp785
g133
(lp786
(lp787
F14.0
aF18.0
aa(lp788
F16.0
aF18.0
aa(lp789
F17.0
aF19.0
aa(lp790
F18.0
aF20.5
aa(lp791
F16.5
aF18.0
aassg157
I2
sg158
(lp792
sg163
cpanda_pbd.msg._UserSyncGoal
UserSyncGoal
p793
sg165
(dp794
g133
(lp795
F5.0
aF30.0
assg169
(lp796
g2
(g793
g4
Ntp797
Rp798
(lp799
F28.69381977993511
abag2
(g793
g4
Ntp800
Rp801
(lp802
F28.5
abag2
(g793
g4
Ntp803
Rp804
(lp805
F17.0
abag2
(g793
g4
Ntp806
Rp807
(lp808
F18.0
abag2
(g793
g4
Ntp809
Rp810
(lp811
F19.0
abag2
(g793
g4
Ntp812
Rp813
(lp814
F17.5
abasg529
I1
sg530
(dp815
g133
(lp816
F28.69381977993511
aF28.5
aF17.0
aF18.0
aF19.0
aF17.5
assg558
g2
(g793
g4
Ntp817
Rp818
(lp819
F17.5
absbag2
(g16
g4
Ntp820
Rp821
(dp822
g125
g128
sg129
I01
sg20
S'A Move Fingers primitive'
p823
sg131
(dp824
g112
(lp825
(lp826
F0.04758337885141373
aF0.08
aa(lp827
F0.0528
aF0.06720000000000001
aa(lp828
F0.056
aF0.0688
aassg157
I2
sg158
(lp829
S'width'
p830
asg163
cpanda_pbd.srv._MoveFingers
MoveFingersRequest
p831
sg165
(dp832
g830
(lp833
F0.04758337885141373
aF0.08
assg169
(lp834
g2
(g831
g4
Ntp835
Rp836
(lp837
F0.055149318528987315
abag2
(g831
g4
Ntp838
Rp839
(lp840
F0.054400000000000004
abag2
(g831
g4
Ntp841
Rp842
(lp843
F0.0592
abag2
(g831
g4
Ntp844
Rp845
(lp846
F0.062400000000000004
abasg529
I1
sg530
(dp847
g112
(lp848
F0.055149318528987315
aF0.054400000000000004
aF0.0592
aF0.062400000000000004
assg558
g2
(g831
g4
Ntp849
Rp850
(lp851
F0.062400000000000004
absbag2
(g14
g4
Ntp852
Rp853
(dp854
g125
g126
(I5
tp855
Rp856
sg129
I01
sg20
g618
sg131
(dp857
g143
(lp858
(lp859
F0.01
aF0.35
aa(lp860
F0.1528
aF0.18
aassg157
I2
sg158
(lp861
g160
asg163
g626
sg165
g627
sg169
(lp862
g2
(g626
g4
Ntp863
Rp864
(lp865
g2
(g24
g4
Ntp866
Rp867
(lp868
g2
(g28
g4
Ntp869
Rp870
(lp871
I0
ag2
(g32
g4
Ntp872
Rp873
(lp874
I0
aI0
abag96
abag2
(g37
g4
Ntp875
Rp876
(lp877
g2
(g41
g4
Ntp878
Rp879
(lp880
F0.48697273191184176
aF-0.0003249795766055996
aF0.3672047165651558
abag2
(g45
g4
Ntp881
Rp882
(lp883
F0.9986485219265587
aF-0.028677903984510297
aF0.042164274523526495
aF-0.010043974853580964
abababaF0.19596767211288735
aF-1.0
abag2
(g626
g4
Ntp884
Rp885
(lp886
g2
(g24
g4
Ntp887
Rp888
(lp889
g2
(g28
g4
Ntp890
Rp891
(lp892
I0
ag2
(g32
g4
Ntp893
Rp894
(lp895
I0
aI0
abag96
abag2
(g37
g4
Ntp896
Rp897
(lp898
g2
(g41
g4
Ntp899
Rp900
(lp901
F0.48697273191184176
aF-0.0003249795766055996
aF0.3672047165651558
abag2
(g45
g4
Ntp902
Rp903
(lp904
F0.9986485219265587
aF-0.028677903984510297
aF0.042164274523526495
aF-0.010043974853580964
abababaF0.1936
aF-1.0
abag2
(g626
g4
Ntp905
Rp906
(lp907
g2
(g24
g4
Ntp908
Rp909
(lp910
g2
(g28
g4
Ntp911
Rp912
(lp913
I0
ag2
(g32
g4
Ntp914
Rp915
(lp916
I0
aI0
abag96
abag2
(g37
g4
Ntp917
Rp918
(lp919
g2
(g41
g4
Ntp920
Rp921
(lp922
F0.48697273191184176
aF-0.0003249795766055996
aF0.3672047165651558
abag2
(g45
g4
Ntp923
Rp924
(lp925
F0.9986485219265587
aF-0.028677903984510297
aF0.042164274523526495
aF-0.010043974853580964
abababaF0.1732
aF-1.0
abasg529
I2
sg530
(dp926
g143
(lp927
F0.19596767211288735
aF0.1936
aF0.1732
asg534
(lp928
g2
(g24
g4
Ntp929
Rp930
(lp931
g2
(g28
g4
Ntp932
Rp933
(lp934
I0
ag2
(g32
g4
Ntp935
Rp936
(lp937
I0
aI0
abag96
abag2
(g37
g4
Ntp938
Rp939
(lp940
g2
(g41
g4
Ntp941
Rp942
(lp943
F0.48697273191184176
aF-0.0003249795766055996
aF0.3672047165651558
abag2
(g45
g4
Ntp944
Rp945
(lp946
F0.9986485219265587
aF-0.028677903984510297
aF0.042164274523526495
aF-0.010043974853580964
abababasg554
(lp947
F-1.0
assg558
g2
(g626
g4
Ntp948
Rp949
(lp950
g88
aF0.1732
aF-1.0
absbasS'name'
p951
S'A Panda Program'
p952
sbsS'wallclock_time'
p953
F1158.3761508464813
sS'execution_timeseries'
p954
(lp955
F1567762384.96095
aF1567762440.45221
aF1567762480.216773
aF1567762500.690127
aF1567762523.52509
aF1567762549.164818
aF1567762573.771653
aF1567762598.387105
aF1567762640.381405
aF1567762662.833813
aF1567762684.336591
aF1567762700.434019
aF1567762722.039585
aF1567762744.931522
aF1567762765.279313
aF1567762793.665733
aF1567762813.36039
aF1567762847.976136
aF1567762874.689226
aF1567762894.392346
aF1567762910.504381
aF1567762932.052973
aF1567762949.463013
aF1567762962.018169
aF1567762997.418653
aF1567763016.850878
aF1567763039.802623
aF1567763062.33722
aF1567763086.642294
aF1567763126.729856
aF1567763140.469029
aF1567763166.019218
aF1567763197.327734
aF1567763242.604919
aF1567763266.230099
aF1567763307.742416
aF1567763330.28007
aF1567763368.794166
aF1567763388.603137
aF1567763400.067695
asS'tuning_timeseries'
p956
(lp957
F1567762384.950208
aF1567762440.440278
aF1567762480.196916
aF1567762500.674425
aF1567762549.149048
aF1567762573.757205
aF1567762598.37205
aF1567762640.362937
aF1567762722.026092
aF1567762744.912249
aF1567762793.654606
aF1567762813.360384
aF1567762847.962126
aF1567762894.377862
aF1567762962.018158
aF1567762997.397953
aF1567763016.834642
aF1567763039.784717
aF1567763062.321285
aF1567763086.642289
aF1567763126.710728
aF1567763166.001078
aF1567763197.311295
aF1567763266.209068
aF1567763330.266353
aF1567763368.774643
aF1567763388.587112
aF1567763400.047844
aF1567763427.989406
as.