ccopy_reg
_reconstructor
p0
(cpanda_eup.panda_primitive
PandaProgram
p1
c__builtin__
object
p2
Ntp3
Rp4
(dp5
S'effect_of_primitive'
p6
(dp7
cpanda_eup.panda_primitive
ApplyForceFingers
p8
(lp9
I00
aI01
ascpanda_eup.panda_primitive
MoveToContact
p10
(lp11
I01
aI00
ascpanda_eup.panda_primitive
MoveToEE
p12
(lp13
I01
aI00
ascpanda_eup.panda_primitive
MoveFingers
p14
(lp15
I00
aI01
ascpanda_eup.panda_primitive
UserSync
p16
(lp17
I00
aI00
assS'description'
p18
S'Empty Description'
p19
sS'arm_state_list'
p20
(lp21
g0
(cgeometry_msgs.msg._PoseStamped
PoseStamped
p22
g2
Ntp23
Rp24
(lp25
g0
(cstd_msgs.msg._Header
Header
p26
g2
Ntp27
Rp28
(lp29
I0
ag0
(cgenpy.rostime
Time
p30
g2
Ntp31
Rp32
(lp33
I0
aI0
abaS'panda_link0'
p34
abag0
(cgeometry_msgs.msg._Pose
Pose
p35
g2
Ntp36
Rp37
(lp38
g0
(cgeometry_msgs.msg._Point
Point
p39
g2
Ntp40
Rp41
(lp42
F0.4833974233623748
aF0.007318751177980708
aF0.3904495689279949
abag0
(cgeometry_msgs.msg._Quaternion
Quaternion
p43
g2
Ntp44
Rp45
(lp46
F0.9993500431690824
aF-0.014042189921340717
aF-0.02007113406023331
aF-0.026447262574839425
abababag0
(g22
g2
Ntp47
Rp48
(lp49
g0
(g26
g2
Ntp50
Rp51
(lp52
I0
ag0
(g30
g2
Ntp53
Rp54
(lp55
I0
aI0
abaS'panda_link0'
p56
abag0
(g35
g2
Ntp57
Rp58
(lp59
g0
(g39
g2
Ntp60
Rp61
(lp62
F0.5004794358432223
aF0.00014867857230042728
aF0.02094413718840532
abag0
(g43
g2
Ntp63
Rp64
(lp65
F0.9996907421065898
aF-0.022079729526509478
aF0.010829401636310548
aF-0.0036918492129857693
abababag0
(g22
g2
Ntp66
Rp67
(lp68
g0
(g26
g2
Ntp69
Rp70
(lp71
I0
ag0
(g30
g2
Ntp72
Rp73
(lp74
I0
aI0
abaS'panda_link0'
p75
abag0
(g35
g2
Ntp76
Rp77
(lp78
g0
(g39
g2
Ntp79
Rp80
(lp81
F0.6404225030201885
aF-0.21899515188976365
aF0.31947401035356376
abag0
(g43
g2
Ntp82
Rp83
(lp84
F0.8476936441278499
aF-0.15503337362532482
aF0.5028616917286283
aF0.06715845262823286
abababag0
(g22
g2
Ntp85
Rp86
(lp87
g0
(g26
g2
Ntp88
Rp89
(lp90
I0
ag0
(g30
g2
Ntp91
Rp92
(lp93
I0
aI0
abaS'panda_link0'
p94
abag0
(g35
g2
Ntp95
Rp96
(lp97
g0
(g39
g2
Ntp98
Rp99
(lp100
F0.48697273191184176
aF-0.0003249795766055996
aF0.3672047165651558
abag0
(g43
g2
Ntp101
Rp102
(lp103
F0.9986485219265587
aF-0.028677903984510297
aF0.042164274523526495
aF-0.010043974853580964
abababasS'gripper_state_list'
p104
(lp105
g0
(cpanda_eup.panda_primitive
GripperState
p106
g2
Ntp107
Rp108
(dp109
S'width'
p110
F0.08
sS'force'
p111
F0.0
sbag0
(g106
g2
Ntp112
Rp113
(dp114
g110
F0.033291686326265335
sg111
F20.0
sbag0
(g106
g2
Ntp115
Rp116
(dp117
g110
F0.04758337885141373
sg111
F0.0
sbasS'primitives'
p118
(lp119
g0
(g10
g2
Ntp120
Rp121
(dp122
S'status'
p123
cpanda_eup.panda_primitive
PandaPrimitiveStatus
p124
(I1
tp125
Rp126
sS'revertible'
p127
I01
sg18
S'A Move to Contact primitive'
p128
sS'starting_arm_state_index'
p129
I0
sS'parameters_with_effects_on_robot_state'
p130
(lp131
S'pose'
p132
aS'force_threshold'
p133
aS'torque_threshold'
p134
asS'expected_container'
p135
cpanda_pbd.msg._MoveToContactGoal
MoveToContactGoal
p136
sS'gui_tunable_parameter_strict_ranges'
p137
(dp138
S'force_threshold'
p139
(lp140
F5.0
aF20.0
asS'position_speed'
p141
(lp142
F0.01
aF0.25
assS'container_update_history'
p143
(lp144
g0
(g136
g2
Ntp145
Rp146
(lp147
g0
(g22
g2
Ntp148
Rp149
(lp150
g0
(g26
g2
Ntp151
Rp152
(lp153
I0
ag0
(g30
g2
Ntp154
Rp155
(lp156
I0
aI0
abaS'panda_link0'
p157
abag0
(g35
g2
Ntp158
Rp159
(lp160
g0
(g39
g2
Ntp161
Rp162
(lp163
F0.5069132714754178
aF0.004873624607929537
aF0.027077189596690976
abag0
(g43
g2
Ntp164
Rp165
(lp166
F0.9995143312059889
aF-0.02583181235790082
aF0.016166211683465017
aF-0.006517114695673689
abababaF0.07
aF-1.0
aF10.0
aF10.0
abag0
(g136
g2
Ntp167
Rp168
(lp169
g0
(g22
g2
Ntp170
Rp171
(lp172
g0
(g26
g2
Ntp173
Rp174
(lp175
I0
ag0
(g30
g2
Ntp176
Rp177
(lp178
I0
aI0
abag157
abag0
(g35
g2
Ntp179
Rp180
(lp181
g0
(g39
g2
Ntp182
Rp183
(lp184
F0.5069132714754178
aF0.004873624607929537
aF0.027077189596690976
abag0
(g43
g2
Ntp185
Rp186
(lp187
F0.9995143312059889
aF-0.02583181235790082
aF0.016166211683465017
aF-0.006517114695673689
abababaF0.1809594745749323
aF-1.0
aF10.0
aF10.0
abag0
(g136
g2
Ntp188
Rp189
(lp190
g0
(g22
g2
Ntp191
Rp192
(lp193
g0
(g26
g2
Ntp194
Rp195
(lp196
I0
ag0
(g30
g2
Ntp197
Rp198
(lp199
I0
aI0
abag157
abag0
(g35
g2
Ntp200
Rp201
(lp202
g0
(g39
g2
Ntp203
Rp204
(lp205
F0.5069132714754178
aF0.004873624607929537
aF0.027077189596690976
abag0
(g43
g2
Ntp206
Rp207
(lp208
F0.9995143312059889
aF-0.02583181235790082
aF0.016166211683465017
aF-0.006517114695673689
abababaF0.1809594745749323
aF-1.0
aF15.063615067962798
aF10.0
abag0
(g136
g2
Ntp209
Rp210
(lp211
g0
(g22
g2
Ntp212
Rp213
(lp214
g0
(g26
g2
Ntp215
Rp216
(lp217
I0
ag0
(g30
g2
Ntp218
Rp219
(lp220
I0
aI0
abag157
abag0
(g35
g2
Ntp221
Rp222
(lp223
g0
(g39
g2
Ntp224
Rp225
(lp226
F0.5069132714754178
aF0.004873624607929537
aF0.027077189596690976
abag0
(g43
g2
Ntp227
Rp228
(lp229
F0.9995143312059889
aF-0.02583181235790082
aF0.016166211683465017
aF-0.006517114695673689
abababaF0.1828
aF-1.0
aF15.063615067962798
aF10.0
abag0
(g136
g2
Ntp230
Rp231
(lp232
g0
(g22
g2
Ntp233
Rp234
(lp235
g0
(g26
g2
Ntp236
Rp237
(lp238
I0
ag0
(g30
g2
Ntp239
Rp240
(lp241
I0
aI0
abag157
abag0
(g35
g2
Ntp242
Rp243
(lp244
g0
(g39
g2
Ntp245
Rp246
(lp247
F0.5069132714754178
aF0.004873624607929537
aF0.027077189596690976
abag0
(g43
g2
Ntp248
Rp249
(lp250
F0.9995143312059889
aF-0.02583181235790082
aF0.016166211683465017
aF-0.006517114695673689
abababaF0.1828
aF-1.0
aF12.8
aF10.0
abag0
(g136
g2
Ntp251
Rp252
(lp253
g0
(g22
g2
Ntp254
Rp255
(lp256
g0
(g26
g2
Ntp257
Rp258
(lp259
I0
ag0
(g30
g2
Ntp260
Rp261
(lp262
I0
aI0
abag157
abag0
(g35
g2
Ntp263
Rp264
(lp265
g0
(g39
g2
Ntp266
Rp267
(lp268
F0.5069132714754178
aF0.004873624607929537
aF0.027077189596690976
abag0
(g43
g2
Ntp269
Rp270
(lp271
F0.9995143312059889
aF-0.02583181235790082
aF0.016166211683465017
aF-0.006517114695673689
abababaF0.22119999999999998
aF-1.0
aF12.8
aF10.0
abasS'starting_gripper_state_index'
p272
I0
sS'parameters_update_history'
p273
(dp274
g133
(lp275
F10.0
aF15.063615067962798
aF12.8
asS'position_speed'
p276
(lp277
F0.07
aF0.1809594745749323
aF0.1828
aF0.22119999999999998
asS'rotation_speed'
p278
(lp279
F-1.0
asg134
(lp280
F10.0
asg132
(lp281
g0
(g22
g2
Ntp282
Rp283
(lp284
g0
(g26
g2
Ntp285
Rp286
(lp287
I0
ag0
(g30
g2
Ntp288
Rp289
(lp290
I0
aI0
abag157
abag0
(g35
g2
Ntp291
Rp292
(lp293
g0
(g39
g2
Ntp294
Rp295
(lp296
F0.5069132714754178
aF0.004873624607929537
aF0.027077189596690976
abag0
(g43
g2
Ntp297
Rp298
(lp299
F0.9995143312059889
aF-0.02583181235790082
aF0.016166211683465017
aF-0.006517114695673689
abababassS'parameter_container'
p300
g0
(g136
g2
Ntp301
Rp302
(lp303
g0
(g22
g2
Ntp304
Rp305
(lp306
g0
(g26
g2
Ntp307
Rp308
(lp309
I0
ag0
(g30
g2
Ntp310
Rp311
(lp312
I0
aI0
abag157
abag0
(g35
g2
Ntp313
Rp314
(lp315
g0
(g39
g2
Ntp316
Rp317
(lp318
F0.5069132714754178
aF0.004873624607929537
aF0.027077189596690976
abag0
(g43
g2
Ntp319
Rp320
(lp321
F0.9995143312059889
aF-0.02583181235790082
aF0.016166211683465017
aF-0.006517114695673689
abababaF0.22119999999999998
aF-1.0
aF12.8
aF10.0
absbag0
(g8
g2
Ntp322
Rp323
(dp324
g123
g126
sg127
I01
sg18
S'A Apply Force (with) Fingers primitive'
p325
sg129
I1
sg130
(lp326
S'force'
p327
asg135
cpanda_pbd.srv._ApplyForceFingers
ApplyForceFingersRequest
p328
sg137
(dp329
g111
(lp330
F20.0
aF60.0
assg143
(lp331
g0
(g328
g2
Ntp332
Rp333
(lp334
F20.0
abag0
(g328
g2
Ntp335
Rp336
(lp337
F50.84338064349694
abasg272
I0
sg273
(dp338
g327
(lp339
F20.0
aF50.84338064349694
assg300
g0
(g328
g2
Ntp340
Rp341
(lp342
F50.84338064349694
absbag0
(g12
g2
Ntp343
Rp344
(dp345
g123
g126
sg127
I01
sg18
S'A Move to End-Effector primitive'
p346
sg129
I1
sg130
(lp347
g132
asg135
cpanda_pbd.msg._MoveToEEGoal
MoveToEEGoal
p348
sg137
(dp349
g141
(lp350
F0.01
aF0.35
assg143
(lp351
g0
(g348
g2
Ntp352
Rp353
(lp354
g0
(g22
g2
Ntp355
Rp356
(lp357
g0
(g26
g2
Ntp358
Rp359
(lp360
I0
ag0
(g30
g2
Ntp361
Rp362
(lp363
I0
aI0
abag75
abag0
(g35
g2
Ntp364
Rp365
(lp366
g0
(g39
g2
Ntp367
Rp368
(lp369
F0.6404225030201885
aF-0.21899515188976365
aF0.31947401035356376
abag0
(g43
g2
Ntp370
Rp371
(lp372
F0.8476936441278499
aF-0.15503337362532482
aF0.5028616917286283
aF0.06715845262823286
abababaF0.07
aF-1.0
abag0
(g348
g2
Ntp373
Rp374
(lp375
g0
(g22
g2
Ntp376
Rp377
(lp378
g0
(g26
g2
Ntp379
Rp380
(lp381
I0
ag0
(g30
g2
Ntp382
Rp383
(lp384
I0
aI0
abag75
abag0
(g35
g2
Ntp385
Rp386
(lp387
g0
(g39
g2
Ntp388
Rp389
(lp390
F0.6404225030201885
aF-0.21899515188976365
aF0.31947401035356376
abag0
(g43
g2
Ntp391
Rp392
(lp393
F0.8476936441278499
aF-0.15503337362532482
aF0.5028616917286283
aF0.06715845262823286
abababaF0.031353965463591836
aF-1.0
abag0
(g348
g2
Ntp394
Rp395
(lp396
g0
(g22
g2
Ntp397
Rp398
(lp399
g0
(g26
g2
Ntp400
Rp401
(lp402
I0
ag0
(g30
g2
Ntp403
Rp404
(lp405
I0
aI0
abag75
abag0
(g35
g2
Ntp406
Rp407
(lp408
g0
(g39
g2
Ntp409
Rp410
(lp411
F0.6404225030201885
aF-0.21899515188976365
aF0.31947401035356376
abag0
(g43
g2
Ntp412
Rp413
(lp414
F0.8476936441278499
aF-0.15503337362532482
aF0.5028616917286283
aF0.06715845262823286
abababaF0.1596
aF-1.0
abasg272
I1
sg273
(dp415
g276
(lp416
F0.07
aF0.031353965463591836
aF0.1596
asg278
(lp417
F-1.0
asg132
(lp418
g0
(g22
g2
Ntp419
Rp420
(lp421
g0
(g26
g2
Ntp422
Rp423
(lp424
I0
ag0
(g30
g2
Ntp425
Rp426
(lp427
I0
aI0
abag75
abag0
(g35
g2
Ntp428
Rp429
(lp430
g0
(g39
g2
Ntp431
Rp432
(lp433
F0.6404225030201885
aF-0.21899515188976365
aF0.31947401035356376
abag0
(g43
g2
Ntp434
Rp435
(lp436
F0.8476936441278499
aF-0.15503337362532482
aF0.5028616917286283
aF0.06715845262823286
abababassg300
g0
(g348
g2
Ntp437
Rp438
(lp439
g67
aF0.1596
aF-1.0
absbag0
(g16
g2
Ntp440
Rp441
(dp442
g123
g126
sg127
I01
sg18
S'A User Synchronization primitive'
p443
sg129
I2
sg130
(lp444
sg135
cpanda_pbd.msg._UserSyncGoal
UserSyncGoal
p445
sg137
(dp446
g139
(lp447
F5.0
aF30.0
assg143
(lp448
g0
(g445
g2
Ntp449
Rp450
(lp451
F10.0
abag0
(g445
g2
Ntp452
Rp453
(lp454
F24.598775796645672
abag0
(g445
g2
Ntp455
Rp456
(lp457
F6.0
abasg272
I1
sg273
(dp458
g133
(lp459
F10.0
aF24.598775796645672
aF6.0
assg300
g0
(g445
g2
Ntp460
Rp461
(lp462
F6.0
absbag0
(g14
g2
Ntp463
Rp464
(dp465
g123
g126
sg127
I01
sg18
S'A Move Fingers primitive'
p466
sg129
I2
sg130
(lp467
S'width'
p468
asg135
cpanda_pbd.srv._MoveFingers
MoveFingersRequest
p469
sg137
(dp470
g468
(lp471
F0.04758337885141373
aF0.08
assg143
(lp472
g0
(g469
g2
Ntp473
Rp474
(lp475
F0.04758337885141373
abag0
(g469
g2
Ntp476
Rp477
(lp478
F0.05943938825735933
abasg272
I1
sg273
(dp479
g468
(lp480
F0.04758337885141373
aF0.05943938825735933
assg300
g0
(g469
g2
Ntp481
Rp482
(lp483
F0.05943938825735933
absbag0
(g12
g2
Ntp484
Rp485
(dp486
g123
g126
sg127
I01
sg18
g346
sg129
I2
sg130
(lp487
g132
asg135
g348
sg137
g349
sg143
(lp488
g0
(g348
g2
Ntp489
Rp490
(lp491
g0
(g22
g2
Ntp492
Rp493
(lp494
g0
(g26
g2
Ntp495
Rp496
(lp497
I0
ag0
(g30
g2
Ntp498
Rp499
(lp500
I0
aI0
abag94
abag0
(g35
g2
Ntp501
Rp502
(lp503
g0
(g39
g2
Ntp504
Rp505
(lp506
F0.48697273191184176
aF-0.0003249795766055996
aF0.3672047165651558
abag0
(g43
g2
Ntp507
Rp508
(lp509
F0.9986485219265587
aF-0.028677903984510297
aF0.042164274523526495
aF-0.010043974853580964
abababaF0.07
aF-1.0
abag0
(g348
g2
Ntp510
Rp511
(lp512
g0
(g22
g2
Ntp513
Rp514
(lp515
g0
(g26
g2
Ntp516
Rp517
(lp518
I0
ag0
(g30
g2
Ntp519
Rp520
(lp521
I0
aI0
abag94
abag0
(g35
g2
Ntp522
Rp523
(lp524
g0
(g39
g2
Ntp525
Rp526
(lp527
F0.48697273191184176
aF-0.0003249795766055996
aF0.3672047165651558
abag0
(g43
g2
Ntp528
Rp529
(lp530
F0.9986485219265587
aF-0.028677903984510297
aF0.042164274523526495
aF-0.010043974853580964
abababaF0.18067565441685196
aF-1.0
abag0
(g348
g2
Ntp531
Rp532
(lp533
g0
(g22
g2
Ntp534
Rp535
(lp536
g0
(g26
g2
Ntp537
Rp538
(lp539
I0
ag0
(g30
g2
Ntp540
Rp541
(lp542
I0
aI0
abag94
abag0
(g35
g2
Ntp543
Rp544
(lp545
g0
(g39
g2
Ntp546
Rp547
(lp548
F0.48697273191184176
aF-0.0003249795766055996
aF0.3672047165651558
abag0
(g43
g2
Ntp549
Rp550
(lp551
F0.9986485219265587
aF-0.028677903984510297
aF0.042164274523526495
aF-0.010043974853580964
abababaF0.214
aF-1.0
abasg272
I2
sg273
(dp552
g276
(lp553
F0.07
aF0.18067565441685196
aF0.214
asg278
(lp554
F-1.0
asg132
(lp555
g0
(g22
g2
Ntp556
Rp557
(lp558
g0
(g26
g2
Ntp559
Rp560
(lp561
I0
ag0
(g30
g2
Ntp562
Rp563
(lp564
I0
aI0
abag94
abag0
(g35
g2
Ntp565
Rp566
(lp567
g0
(g39
g2
Ntp568
Rp569
(lp570
F0.48697273191184176
aF-0.0003249795766055996
aF0.3672047165651558
abag0
(g43
g2
Ntp571
Rp572
(lp573
F0.9986485219265587
aF-0.028677903984510297
aF0.042164274523526495
aF-0.010043974853580964
abababassg300
g0
(g348
g2
Ntp574
Rp575
(lp576
g86
aF0.214
aF-1.0
absbasS'name'
p577
S'A Panda Program'
p578
sb.