ccopy_reg
_reconstructor
p0
(cpanda_eup.panda_primitive
PandaProgram
p1
c__builtin__
object
p2
Ntp3
Rp4
(dp5
S'effect_of_primitive'
p6
(dp7
cpanda_eup.panda_primitive
MoveToEE
p8
(lp9
I01
aI00
ascpanda_eup.panda_primitive
MoveToContact
p10
(lp11
I01
aI00
ascpanda_eup.panda_primitive
MoveFingers
p12
(lp13
I00
aI01
ascpanda_eup.panda_primitive
UserSync
p14
(lp15
I00
aI00
ascpanda_eup.panda_primitive
ApplyForceFingers
p16
(lp17
I00
aI01
assS'description'
p18
S'Empty Description'
p19
sS'arm_state_list'
p20
(lp21
g0
(cgeometry_msgs.msg._PoseStamped
PoseStamped
p22
g2
Ntp23
Rp24
(lp25
g0
(cstd_msgs.msg._Header
Header
p26
g2
Ntp27
Rp28
(lp29
I0
ag0
(cgenpy.rostime
Time
p30
g2
Ntp31
Rp32
(lp33
I0
aI0
abaS'panda_link0'
p34
abag0
(cgeometry_msgs.msg._Pose
Pose
p35
g2
Ntp36
Rp37
(lp38
g0
(cgeometry_msgs.msg._Point
Point
p39
g2
Ntp40
Rp41
(lp42
F0.4085007637617008
aF-0.04743834298515986
aF0.41592672837953215
abag0
(cgeometry_msgs.msg._Quaternion
Quaternion
p43
g2
Ntp44
Rp45
(lp46
F0.999969677491424
aF0.006662980259596884
aF0.001583209543998861
aF0.0037070526429503078
abababag0
(g22
g2
Ntp47
Rp48
(lp49
g0
(g26
g2
Ntp50
Rp51
(lp52
I0
ag0
(g30
g2
Ntp53
Rp54
(lp55
I0
aI0
abaS'panda_link0'
p56
abag0
(g35
g2
Ntp57
Rp58
(lp59
g0
(g39
g2
Ntp60
Rp61
(lp62
F0.5555374971188675
aF-0.3665594011198935
aF0.2768798697008012
abag0
(g43
g2
Ntp63
Rp64
(lp65
F-0.5202366923331977
aF0.488836282074162
aF-0.4848922246640578
aF0.5052448948168257
abababag0
(g22
g2
Ntp66
Rp67
(lp68
g0
(g26
g2
Ntp69
Rp70
(lp71
I0
ag0
(g30
g2
Ntp72
Rp73
(lp74
I0
aI0
abaS'panda_link0'
p75
abag0
(g35
g2
Ntp76
Rp77
(lp78
g0
(g39
g2
Ntp79
Rp80
(lp81
F0.6925634165505562
aF-0.03161010303150283
aF0.1515468745803516
abag0
(g43
g2
Ntp82
Rp83
(lp84
F-0.5472531305577372
aF0.48193816034954157
aF-0.4457876407294544
aF0.5191560459693428
abababag0
(g22
g2
Ntp85
Rp86
(lp87
g0
(g26
g2
Ntp88
Rp89
(lp90
I0
ag0
(g30
g2
Ntp91
Rp92
(lp93
I0
aI0
abaS'panda_link0'
p94
abag0
(g35
g2
Ntp95
Rp96
(lp97
g0
(g39
g2
Ntp98
Rp99
(lp100
F0.581848720349036
aF0.37632116390939524
aF0.3458198812985057
abag0
(g43
g2
Ntp101
Rp102
(lp103
F-0.6558731655374604
aF0.2796442810897982
aF-0.2831432228500472
aF0.6414509974547778
abababag0
(g22
g2
Ntp104
Rp105
(lp106
g0
(g26
g2
Ntp107
Rp108
(lp109
I0
ag0
(g30
g2
Ntp110
Rp111
(lp112
I0
aI0
abaS'panda_link0'
p113
abag0
(g35
g2
Ntp114
Rp115
(lp116
g0
(g39
g2
Ntp117
Rp118
(lp119
F0.44612082019446336
aF-0.04256435300120127
aF0.408240721202241
abag0
(g43
g2
Ntp120
Rp121
(lp122
F0.9998713088044058
aF-0.010703239032880212
aF-0.0070168970835132564
aF-0.009673141128363653
abababasS'gripper_state_list'
p123
(lp124
g0
(cpanda_eup.panda_primitive
GripperState
p125
g2
Ntp126
Rp127
(dp128
S'width'
p129
F0.08
sS'force'
p130
F0.0
sbag0
(g125
g2
Ntp131
Rp132
(dp133
g129
F0.0013586432905867696
sg130
F20.0
sbag0
(g125
g2
Ntp134
Rp135
(dp136
g129
F0.04235237464308739
sg130
F0.0
sbasS'primitives'
p137
(lp138
g0
(g8
g2
Ntp139
Rp140
(dp141
S'status'
p142
cpanda_eup.panda_primitive
PandaPrimitiveStatus
p143
(I1
tp144
Rp145
sS'revertible'
p146
I01
sg18
S'A Move to End-Effector primitive'
p147
sS'starting_arm_state_index'
p148
I0
sS'parameters_with_effects_on_robot_state'
p149
(lp150
S'pose'
p151
asS'expected_container'
p152
cpanda_pbd.msg._MoveToEEGoal
MoveToEEGoal
p153
sS'gui_tunable_parameter_strict_ranges'
p154
(dp155
S'position_speed'
p156
(lp157
F0.01
aF0.35
assS'container_update_history'
p158
(lp159
g0
(g153
g2
Ntp160
Rp161
(lp162
g0
(g22
g2
Ntp163
Rp164
(lp165
g0
(g26
g2
Ntp166
Rp167
(lp168
I0
ag0
(g30
g2
Ntp169
Rp170
(lp171
I0
aI0
abag56
abag0
(g35
g2
Ntp172
Rp173
(lp174
g0
(g39
g2
Ntp175
Rp176
(lp177
F0.5555374971188675
aF-0.3665594011198935
aF0.2768798697008012
abag0
(g43
g2
Ntp178
Rp179
(lp180
F-0.5202366923331977
aF0.488836282074162
aF-0.4848922246640578
aF0.5052448948168257
abababaF0.07
aF-1.0
abag0
(g153
g2
Ntp181
Rp182
(lp183
g0
(g22
g2
Ntp184
Rp185
(lp186
g0
(g26
g2
Ntp187
Rp188
(lp189
I0
ag0
(g30
g2
Ntp190
Rp191
(lp192
I0
aI0
abag56
abag0
(g35
g2
Ntp193
Rp194
(lp195
g0
(g39
g2
Ntp196
Rp197
(lp198
F0.5555374971188675
aF-0.3665594011198935
aF0.2768798697008012
abag0
(g43
g2
Ntp199
Rp200
(lp201
F-0.5202366923331977
aF0.488836282074162
aF-0.4848922246640578
aF0.5052448948168257
abababaF0.2862953101931989
aF-1.0
abag0
(g153
g2
Ntp202
Rp203
(lp204
g0
(g22
g2
Ntp205
Rp206
(lp207
g0
(g26
g2
Ntp208
Rp209
(lp210
I0
ag0
(g30
g2
Ntp211
Rp212
(lp213
I0
aI0
abag56
abag0
(g35
g2
Ntp214
Rp215
(lp216
g0
(g39
g2
Ntp217
Rp218
(lp219
F0.5555374971188675
aF-0.3665594011198935
aF0.2768798697008012
abag0
(g43
g2
Ntp220
Rp221
(lp222
F-0.5202366923331977
aF0.488836282074162
aF-0.4848922246640578
aF0.5052448948168257
abababaF0.11879999999999999
aF-1.0
abasS'starting_gripper_state_index'
p223
I0
sS'parameters_update_history'
p224
(dp225
S'position_speed'
p226
F0.11879999999999999
sS'rotation_speed'
p227
(lp228
F-1.0
asg151
(lp229
g0
(g22
g2
Ntp230
Rp231
(lp232
g0
(g26
g2
Ntp233
Rp234
(lp235
I0
ag0
(g30
g2
Ntp236
Rp237
(lp238
I0
aI0
abag56
abag0
(g35
g2
Ntp239
Rp240
(lp241
g0
(g39
g2
Ntp242
Rp243
(lp244
F0.5555374971188675
aF-0.3665594011198935
aF0.2768798697008012
abag0
(g43
g2
Ntp245
Rp246
(lp247
F-0.5202366923331977
aF0.488836282074162
aF-0.4848922246640578
aF0.5052448948168257
abababassS'parameter_container'
p248
g0
(g153
g2
Ntp249
Rp250
(lp251
g48
aF0.11879999999999999
aF-1.0
absbag0
(g14
g2
Ntp252
Rp253
(dp254
g142
g145
sg146
I01
sg18
S'A User Synchronization primitive'
p255
sg148
I1
sg149
(lp256
sg152
cpanda_pbd.msg._UserSyncGoal
UserSyncGoal
p257
sg154
(dp258
S'force_threshold'
p259
(lp260
F5.0
aF30.0
assg158
(lp261
g0
(g257
g2
Ntp262
Rp263
(lp264
F10.0
abag0
(g257
g2
Ntp265
Rp266
(lp267
F11.36539602696637
abasg223
I0
sg224
(dp268
S'force_threshold'
p269
F11.36539602696637
ssg248
g0
(g257
g2
Ntp270
Rp271
(lp272
F11.36539602696637
absbag0
(g16
g2
Ntp273
Rp274
(dp275
g142
g145
sg146
I01
sg18
S'A Apply Force (with) Fingers primitive'
p276
sg148
I1
sg149
(lp277
S'force'
p278
asg152
cpanda_pbd.srv._ApplyForceFingers
ApplyForceFingersRequest
p279
sg154
(dp280
g130
(lp281
F20.0
aF60.0
assg158
(lp282
g0
(g279
g2
Ntp283
Rp284
(lp285
F20.0
abag0
(g279
g2
Ntp286
Rp287
(lp288
F30.54938720013238
abasg223
I0
sg224
(dp289
g278
F30.54938720013238
ssg248
g0
(g279
g2
Ntp290
Rp291
(lp292
F30.54938720013238
absbag0
(g8
g2
Ntp293
Rp294
(dp295
g142
g145
sg146
I01
sg18
g147
sg148
I1
sg149
(lp296
g151
asg152
g153
sg154
g155
sg158
(lp297
g0
(g153
g2
Ntp298
Rp299
(lp300
g0
(g22
g2
Ntp301
Rp302
(lp303
g0
(g26
g2
Ntp304
Rp305
(lp306
I0
ag0
(g30
g2
Ntp307
Rp308
(lp309
I0
aI0
abag75
abag0
(g35
g2
Ntp310
Rp311
(lp312
g0
(g39
g2
Ntp313
Rp314
(lp315
F0.6925634165505562
aF-0.03161010303150283
aF0.1515468745803516
abag0
(g43
g2
Ntp316
Rp317
(lp318
F-0.5472531305577372
aF0.48193816034954157
aF-0.4457876407294544
aF0.5191560459693428
abababaF0.07
aF-1.0
abag0
(g153
g2
Ntp319
Rp320
(lp321
g0
(g22
g2
Ntp322
Rp323
(lp324
g0
(g26
g2
Ntp325
Rp326
(lp327
I0
ag0
(g30
g2
Ntp328
Rp329
(lp330
I0
aI0
abag75
abag0
(g35
g2
Ntp331
Rp332
(lp333
g0
(g39
g2
Ntp334
Rp335
(lp336
F0.6925634165505562
aF-0.03161010303150283
aF0.1515468745803516
abag0
(g43
g2
Ntp337
Rp338
(lp339
F-0.5472531305577372
aF0.48193816034954157
aF-0.4457876407294544
aF0.5191560459693428
abababaF0.06429019653831168
aF-1.0
abasg223
I1
sg224
(dp340
g226
F0.06429019653831168
sg227
(lp341
F-1.0
asg151
(lp342
g0
(g22
g2
Ntp343
Rp344
(lp345
g0
(g26
g2
Ntp346
Rp347
(lp348
I0
ag0
(g30
g2
Ntp349
Rp350
(lp351
I0
aI0
abag75
abag0
(g35
g2
Ntp352
Rp353
(lp354
g0
(g39
g2
Ntp355
Rp356
(lp357
F0.6925634165505562
aF-0.03161010303150283
aF0.1515468745803516
abag0
(g43
g2
Ntp358
Rp359
(lp360
F-0.5472531305577372
aF0.48193816034954157
aF-0.4457876407294544
aF0.5191560459693428
abababassg248
g0
(g153
g2
Ntp361
Rp362
(lp363
g67
aF0.06429019653831168
aF-1.0
absbag0
(g8
g2
Ntp364
Rp365
(dp366
g142
g145
sg146
I01
sg18
g147
sg148
I2
sg149
(lp367
g151
asg152
g153
sg154
g155
sg158
(lp368
g0
(g153
g2
Ntp369
Rp370
(lp371
g0
(g22
g2
Ntp372
Rp373
(lp374
g0
(g26
g2
Ntp375
Rp376
(lp377
I0
ag0
(g30
g2
Ntp378
Rp379
(lp380
I0
aI0
abag94
abag0
(g35
g2
Ntp381
Rp382
(lp383
g0
(g39
g2
Ntp384
Rp385
(lp386
F0.581848720349036
aF0.37632116390939524
aF0.3458198812985057
abag0
(g43
g2
Ntp387
Rp388
(lp389
F-0.6558731655374604
aF0.2796442810897982
aF-0.2831432228500472
aF0.6414509974547778
abababaF0.07
aF-1.0
abag0
(g153
g2
Ntp390
Rp391
(lp392
g0
(g22
g2
Ntp393
Rp394
(lp395
g0
(g26
g2
Ntp396
Rp397
(lp398
I0
ag0
(g30
g2
Ntp399
Rp400
(lp401
I0
aI0
abag94
abag0
(g35
g2
Ntp402
Rp403
(lp404
g0
(g39
g2
Ntp405
Rp406
(lp407
F0.581848720349036
aF0.37632116390939524
aF0.3458198812985057
abag0
(g43
g2
Ntp408
Rp409
(lp410
F-0.6558731655374604
aF0.2796442810897982
aF-0.2831432228500472
aF0.6414509974547778
abababaF0.20485914997291674
aF-1.0
abag0
(g153
g2
Ntp411
Rp412
(lp413
g0
(g22
g2
Ntp414
Rp415
(lp416
g0
(g26
g2
Ntp417
Rp418
(lp419
I0
ag0
(g30
g2
Ntp420
Rp421
(lp422
I0
aI0
abag94
abag0
(g35
g2
Ntp423
Rp424
(lp425
g0
(g39
g2
Ntp426
Rp427
(lp428
F0.581848720349036
aF0.37632116390939524
aF0.3458198812985057
abag0
(g43
g2
Ntp429
Rp430
(lp431
F-0.6558731655374604
aF0.2796442810897982
aF-0.2831432228500472
aF0.6414509974547778
abababaF0.1324
aF-1.0
abasg223
I1
sg224
(dp432
g226
F0.1324
sg227
(lp433
F-1.0
asg151
(lp434
g0
(g22
g2
Ntp435
Rp436
(lp437
g0
(g26
g2
Ntp438
Rp439
(lp440
I0
ag0
(g30
g2
Ntp441
Rp442
(lp443
I0
aI0
abag94
abag0
(g35
g2
Ntp444
Rp445
(lp446
g0
(g39
g2
Ntp447
Rp448
(lp449
F0.581848720349036
aF0.37632116390939524
aF0.3458198812985057
abag0
(g43
g2
Ntp450
Rp451
(lp452
F-0.6558731655374604
aF0.2796442810897982
aF-0.2831432228500472
aF0.6414509974547778
abababassg248
g0
(g153
g2
Ntp453
Rp454
(lp455
g86
aF0.1324
aF-1.0
absbag0
(g14
g2
Ntp456
Rp457
(dp458
g142
g145
sg146
I01
sg18
g255
sg148
I3
sg149
(lp459
sg152
g257
sg154
g258
sg158
(lp460
g0
(g257
g2
Ntp461
Rp462
(lp463
F10.0
abag0
(g257
g2
Ntp464
Rp465
(lp466
F16.401117063550316
abag0
(g257
g2
Ntp467
Rp468
(lp469
F9.0
abasg223
I1
sg224
(dp470
g269
F9.0
ssg248
g0
(g257
g2
Ntp471
Rp472
(lp473
F9.0
absbag0
(g12
g2
Ntp474
Rp475
(dp476
g142
g145
sg146
I01
sg18
S'A Move Fingers primitive'
p477
sg148
I3
sg149
(lp478
S'width'
p479
asg152
cpanda_pbd.srv._MoveFingers
MoveFingersRequest
p480
sg154
(dp481
g479
(lp482
F0.04410567507147789
aF0.08
assg158
(lp483
g0
(g480
g2
Ntp484
Rp485
(lp486
F0.04410567507147789
abag0
(g480
g2
Ntp487
Rp488
(lp489
F0.06462740937265597
abag0
(g480
g2
Ntp490
Rp491
(lp492
F0.0432
abag0
(g480
g2
Ntp493
Rp494
(lp495
F0.0432
abasg223
I1
sg224
(dp496
g479
F0.0432
ssg248
g0
(g480
g2
Ntp497
Rp498
(lp499
F0.0432
absbag0
(g8
g2
Ntp500
Rp501
(dp502
g142
g145
sg146
I01
sg18
g147
sg148
I3
sg149
(lp503
g151
asg152
g153
sg154
g155
sg158
(lp504
g0
(g153
g2
Ntp505
Rp506
(lp507
g0
(g22
g2
Ntp508
Rp509
(lp510
g0
(g26
g2
Ntp511
Rp512
(lp513
I0
ag0
(g30
g2
Ntp514
Rp515
(lp516
I0
aI0
abag113
abag0
(g35
g2
Ntp517
Rp518
(lp519
g0
(g39
g2
Ntp520
Rp521
(lp522
F0.44612082019446336
aF-0.04256435300120127
aF0.408240721202241
abag0
(g43
g2
Ntp523
Rp524
(lp525
F0.9998713088044058
aF-0.010703239032880212
aF-0.0070168970835132564
aF-0.009673141128363653
abababaF0.07
aF-1.0
abag0
(g153
g2
Ntp526
Rp527
(lp528
g0
(g22
g2
Ntp529
Rp530
(lp531
g0
(g26
g2
Ntp532
Rp533
(lp534
I0
ag0
(g30
g2
Ntp535
Rp536
(lp537
I0
aI0
abag113
abag0
(g35
g2
Ntp538
Rp539
(lp540
g0
(g39
g2
Ntp541
Rp542
(lp543
F0.44612082019446336
aF-0.04256435300120127
aF0.408240721202241
abag0
(g43
g2
Ntp544
Rp545
(lp546
F0.9998713088044058
aF-0.010703239032880212
aF-0.0070168970835132564
aF-0.009673141128363653
abababaF0.30229584911970875
aF-1.0
abag0
(g153
g2
Ntp547
Rp548
(lp549
g0
(g22
g2
Ntp550
Rp551
(lp552
g0
(g26
g2
Ntp553
Rp554
(lp555
I0
ag0
(g30
g2
Ntp556
Rp557
(lp558
I0
aI0
abag113
abag0
(g35
g2
Ntp559
Rp560
(lp561
g0
(g39
g2
Ntp562
Rp563
(lp564
F0.44612082019446336
aF-0.04256435300120127
aF0.408240721202241
abag0
(g43
g2
Ntp565
Rp566
(lp567
F0.9998713088044058
aF-0.010703239032880212
aF-0.0070168970835132564
aF-0.009673141128363653
abababaF0.09159999999999999
aF-1.0
abasg223
I2
sg224
(dp568
g226
F0.09159999999999999
sg227
(lp569
F-1.0
asg151
(lp570
g0
(g22
g2
Ntp571
Rp572
(lp573
g0
(g26
g2
Ntp574
Rp575
(lp576
I0
ag0
(g30
g2
Ntp577
Rp578
(lp579
I0
aI0
abag113
abag0
(g35
g2
Ntp580
Rp581
(lp582
g0
(g39
g2
Ntp583
Rp584
(lp585
F0.44612082019446336
aF-0.04256435300120127
aF0.408240721202241
abag0
(g43
g2
Ntp586
Rp587
(lp588
F0.9998713088044058
aF-0.010703239032880212
aF-0.0070168970835132564
aF-0.009673141128363653
abababassg248
g0
(g153
g2
Ntp589
Rp590
(lp591
g105
aF0.09159999999999999
aF-1.0
absbasS'name'
p592
S'A Panda Program'
p593
sb.