ccopy_reg
_reconstructor
p0
(cpanda_eup.panda_primitive
PandaProgram
p1
c__builtin__
object
p2
Ntp3
Rp4
(dp5
S'effect_of_primitive'
p6
(dp7
cpanda_eup.panda_primitive
MoveToEE
p8
(lp9
I01
aI00
ascpanda_eup.panda_primitive
MoveToContact
p10
(lp11
I01
aI00
ascpanda_eup.panda_primitive
MoveFingers
p12
(lp13
I00
aI01
ascpanda_eup.panda_primitive
UserSync
p14
(lp15
I00
aI00
ascpanda_eup.panda_primitive
ApplyForceFingers
p16
(lp17
I00
aI01
assS'description'
p18
S'Empty Description'
p19
sS'arm_state_list'
p20
(lp21
g0
(cgeometry_msgs.msg._PoseStamped
PoseStamped
p22
g2
Ntp23
Rp24
(lp25
g0
(cstd_msgs.msg._Header
Header
p26
g2
Ntp27
Rp28
(lp29
I0
ag0
(cgenpy.rostime
Time
p30
g2
Ntp31
Rp32
(lp33
I0
aI0
abaS'panda_link0'
p34
abag0
(cgeometry_msgs.msg._Pose
Pose
p35
g2
Ntp36
Rp37
(lp38
g0
(cgeometry_msgs.msg._Point
Point
p39
g2
Ntp40
Rp41
(lp42
F0.4085007637617008
aF-0.04743834298515986
aF0.41592672837953215
abag0
(cgeometry_msgs.msg._Quaternion
Quaternion
p43
g2
Ntp44
Rp45
(lp46
F0.999969677491424
aF0.006662980259596884
aF0.001583209543998861
aF0.0037070526429503078
abababag0
(g22
g2
Ntp47
Rp48
(lp49
g0
(g26
g2
Ntp50
Rp51
(lp52
I0
ag0
(g30
g2
Ntp53
Rp54
(lp55
I0
aI0
abaS'panda_link0'
p56
abag0
(g35
g2
Ntp57
Rp58
(lp59
g0
(g39
g2
Ntp60
Rp61
(lp62
F0.5555374971188675
aF-0.3665594011198935
aF0.2768798697008012
abag0
(g43
g2
Ntp63
Rp64
(lp65
F-0.5202366923331977
aF0.488836282074162
aF-0.4848922246640578
aF0.5052448948168257
abababag0
(g22
g2
Ntp66
Rp67
(lp68
g0
(g26
g2
Ntp69
Rp70
(lp71
I0
ag0
(g30
g2
Ntp72
Rp73
(lp74
I0
aI0
abaS'panda_link0'
p75
abag0
(g35
g2
Ntp76
Rp77
(lp78
g0
(g39
g2
Ntp79
Rp80
(lp81
F0.6925634165505562
aF-0.03161010303150283
aF0.1515468745803516
abag0
(g43
g2
Ntp82
Rp83
(lp84
F-0.5472531305577372
aF0.48193816034954157
aF-0.4457876407294544
aF0.5191560459693428
abababag0
(g22
g2
Ntp85
Rp86
(lp87
g0
(g26
g2
Ntp88
Rp89
(lp90
I0
ag0
(g30
g2
Ntp91
Rp92
(lp93
I0
aI0
abaS'panda_link0'
p94
abag0
(g35
g2
Ntp95
Rp96
(lp97
g0
(g39
g2
Ntp98
Rp99
(lp100
F0.581848720349036
aF0.37632116390939524
aF0.3458198812985057
abag0
(g43
g2
Ntp101
Rp102
(lp103
F-0.6558731655374604
aF0.2796442810897982
aF-0.2831432228500472
aF0.6414509974547778
abababag0
(g22
g2
Ntp104
Rp105
(lp106
g0
(g26
g2
Ntp107
Rp108
(lp109
I0
ag0
(g30
g2
Ntp110
Rp111
(lp112
I0
aI0
abaS'panda_link0'
p113
abag0
(g35
g2
Ntp114
Rp115
(lp116
g0
(g39
g2
Ntp117
Rp118
(lp119
F0.44612082019446336
aF-0.04256435300120127
aF0.408240721202241
abag0
(g43
g2
Ntp120
Rp121
(lp122
F0.9998713088044058
aF-0.010703239032880212
aF-0.0070168970835132564
aF-0.009673141128363653
abababasS'gripper_state_list'
p123
(lp124
g0
(cpanda_eup.panda_primitive
GripperState
p125
g2
Ntp126
Rp127
(dp128
S'width'
p129
F0.08
sS'force'
p130
F0.0
sbag0
(g125
g2
Ntp131
Rp132
(dp133
g129
F0.002187356585636735
sg130
F35.2
sbag0
(g125
g2
Ntp134
Rp135
(dp136
g129
F0.047549232840538025
sg130
F0.0
sbasS'primitives'
p137
(lp138
g0
(g8
g2
Ntp139
Rp140
(dp141
S'status'
p142
cpanda_eup.panda_primitive
PandaPrimitiveStatus
p143
(I1
tp144
Rp145
sS'revertible'
p146
I01
sg18
S'A Move to End-Effector primitive'
p147
sS'starting_arm_state_index'
p148
I0
sS'parameters_with_effects_on_robot_state'
p149
(lp150
S'pose'
p151
asS'expected_container'
p152
cpanda_pbd.msg._MoveToEEGoal
MoveToEEGoal
p153
sS'gui_tunable_parameter_strict_ranges'
p154
(dp155
S'position_speed'
p156
(lp157
F0.01
aF0.35
assS'container_update_history'
p158
(lp159
g0
(g153
g2
Ntp160
Rp161
(lp162
g0
(g22
g2
Ntp163
Rp164
(lp165
g0
(g26
g2
Ntp166
Rp167
(lp168
I0
ag0
(g30
g2
Ntp169
Rp170
(lp171
I0
aI0
abag56
abag0
(g35
g2
Ntp172
Rp173
(lp174
g0
(g39
g2
Ntp175
Rp176
(lp177
F0.5555374971188675
aF-0.3665594011198935
aF0.2768798697008012
abag0
(g43
g2
Ntp178
Rp179
(lp180
F-0.5202366923331977
aF0.488836282074162
aF-0.4848922246640578
aF0.5052448948168257
abababaF0.07
aF-1.0
abag0
(g153
g2
Ntp181
Rp182
(lp183
g0
(g22
g2
Ntp184
Rp185
(lp186
g0
(g26
g2
Ntp187
Rp188
(lp189
I0
ag0
(g30
g2
Ntp190
Rp191
(lp192
I0
aI0
abag56
abag0
(g35
g2
Ntp193
Rp194
(lp195
g0
(g39
g2
Ntp196
Rp197
(lp198
F0.5555374971188675
aF-0.3665594011198935
aF0.2768798697008012
abag0
(g43
g2
Ntp199
Rp200
(lp201
F-0.5202366923331977
aF0.488836282074162
aF-0.4848922246640578
aF0.5052448948168257
abababaF0.02160928441206447
aF-1.0
abag0
(g153
g2
Ntp202
Rp203
(lp204
g0
(g22
g2
Ntp205
Rp206
(lp207
g0
(g26
g2
Ntp208
Rp209
(lp210
I0
ag0
(g30
g2
Ntp211
Rp212
(lp213
I0
aI0
abag56
abag0
(g35
g2
Ntp214
Rp215
(lp216
g0
(g39
g2
Ntp217
Rp218
(lp219
F0.5555374971188675
aF-0.3665594011198935
aF0.2768798697008012
abag0
(g43
g2
Ntp220
Rp221
(lp222
F-0.5202366923331977
aF0.488836282074162
aF-0.4848922246640578
aF0.5052448948168257
abababaF0.3296
aF-1.0
abag0
(g153
g2
Ntp223
Rp224
(lp225
g0
(g22
g2
Ntp226
Rp227
(lp228
g0
(g26
g2
Ntp229
Rp230
(lp231
I0
ag0
(g30
g2
Ntp232
Rp233
(lp234
I0
aI0
abag56
abag0
(g35
g2
Ntp235
Rp236
(lp237
g0
(g39
g2
Ntp238
Rp239
(lp240
F0.5555374971188675
aF-0.3665594011198935
aF0.2768798697008012
abag0
(g43
g2
Ntp241
Rp242
(lp243
F-0.5202366923331977
aF0.488836282074162
aF-0.4848922246640578
aF0.5052448948168257
abababaF0.35
aF-1.0
abasS'starting_gripper_state_index'
p244
I0
sS'parameters_update_history'
p245
(dp246
S'position_speed'
p247
(lp248
F0.07
aF0.02160928441206447
aF0.3296
aF0.35
asS'rotation_speed'
p249
(lp250
F-1.0
asg151
(lp251
g0
(g22
g2
Ntp252
Rp253
(lp254
g0
(g26
g2
Ntp255
Rp256
(lp257
I0
ag0
(g30
g2
Ntp258
Rp259
(lp260
I0
aI0
abag56
abag0
(g35
g2
Ntp261
Rp262
(lp263
g0
(g39
g2
Ntp264
Rp265
(lp266
F0.5555374971188675
aF-0.3665594011198935
aF0.2768798697008012
abag0
(g43
g2
Ntp267
Rp268
(lp269
F-0.5202366923331977
aF0.488836282074162
aF-0.4848922246640578
aF0.5052448948168257
abababassS'parameter_container'
p270
g0
(g153
g2
Ntp271
Rp272
(lp273
g48
aF0.35
aF-1.0
absbag0
(g14
g2
Ntp274
Rp275
(dp276
g142
g145
sg146
I01
sg18
S'A User Synchronization primitive'
p277
sg148
I1
sg149
(lp278
sg152
cpanda_pbd.msg._UserSyncGoal
UserSyncGoal
p279
sg154
(dp280
S'force_threshold'
p281
(lp282
F5.0
aF30.0
assg158
(lp283
g0
(g279
g2
Ntp284
Rp285
(lp286
F10.0
abag0
(g279
g2
Ntp287
Rp288
(lp289
F26.10188982710894
abag0
(g279
g2
Ntp290
Rp291
(lp292
F5.0
abasg244
I0
sg245
(dp293
S'force_threshold'
p294
(lp295
F10.0
aF26.10188982710894
aF5.0
assg270
g0
(g279
g2
Ntp296
Rp297
(lp298
F5.0
absbag0
(g16
g2
Ntp299
Rp300
(dp301
g142
g145
sg146
I01
sg18
S'A Apply Force (with) Fingers primitive'
p302
sg148
I1
sg149
(lp303
S'force'
p304
asg152
cpanda_pbd.srv._ApplyForceFingers
ApplyForceFingersRequest
p305
sg154
(dp306
g130
(lp307
F20.0
aF60.0
assg158
(lp308
g0
(g305
g2
Ntp309
Rp310
(lp311
F20.0
abag0
(g305
g2
Ntp312
Rp313
(lp314
F37.8306977463903
abag0
(g305
g2
Ntp315
Rp316
(lp317
F24.0
abag0
(g305
g2
Ntp318
Rp319
(lp320
F35.2
abasg244
I0
sg245
(dp321
g304
(lp322
F20.0
aF37.8306977463903
aF24.0
aF35.2
assg270
g0
(g305
g2
Ntp323
Rp324
(lp325
F35.2
absbag0
(g8
g2
Ntp326
Rp327
(dp328
g142
g145
sg146
I01
sg18
g147
sg148
I1
sg149
(lp329
g151
asg152
g153
sg154
g155
sg158
(lp330
g0
(g153
g2
Ntp331
Rp332
(lp333
g0
(g22
g2
Ntp334
Rp335
(lp336
g0
(g26
g2
Ntp337
Rp338
(lp339
I0
ag0
(g30
g2
Ntp340
Rp341
(lp342
I0
aI0
abag75
abag0
(g35
g2
Ntp343
Rp344
(lp345
g0
(g39
g2
Ntp346
Rp347
(lp348
F0.6925634165505562
aF-0.03161010303150283
aF0.1515468745803516
abag0
(g43
g2
Ntp349
Rp350
(lp351
F-0.5472531305577372
aF0.48193816034954157
aF-0.4457876407294544
aF0.5191560459693428
abababaF0.07
aF-1.0
abag0
(g153
g2
Ntp352
Rp353
(lp354
g0
(g22
g2
Ntp355
Rp356
(lp357
g0
(g26
g2
Ntp358
Rp359
(lp360
I0
ag0
(g30
g2
Ntp361
Rp362
(lp363
I0
aI0
abag75
abag0
(g35
g2
Ntp364
Rp365
(lp366
g0
(g39
g2
Ntp367
Rp368
(lp369
F0.6925634165505562
aF-0.03161010303150283
aF0.1515468745803516
abag0
(g43
g2
Ntp370
Rp371
(lp372
F-0.5472531305577372
aF0.48193816034954157
aF-0.4457876407294544
aF0.5191560459693428
abababaF0.05272986923547769
aF-1.0
abag0
(g153
g2
Ntp373
Rp374
(lp375
g0
(g22
g2
Ntp376
Rp377
(lp378
g0
(g26
g2
Ntp379
Rp380
(lp381
I0
ag0
(g30
g2
Ntp382
Rp383
(lp384
I0
aI0
abag75
abag0
(g35
g2
Ntp385
Rp386
(lp387
g0
(g39
g2
Ntp388
Rp389
(lp390
F0.6925634165505562
aF-0.03161010303150283
aF0.1515468745803516
abag0
(g43
g2
Ntp391
Rp392
(lp393
F-0.5472531305577372
aF0.48193816034954157
aF-0.4457876407294544
aF0.5191560459693428
abababaF0.146
aF-1.0
abag0
(g153
g2
Ntp394
Rp395
(lp396
g0
(g22
g2
Ntp397
Rp398
(lp399
g0
(g26
g2
Ntp400
Rp401
(lp402
I0
ag0
(g30
g2
Ntp403
Rp404
(lp405
I0
aI0
abag75
abag0
(g35
g2
Ntp406
Rp407
(lp408
g0
(g39
g2
Ntp409
Rp410
(lp411
F0.6925634165505562
aF-0.03161010303150283
aF0.1515468745803516
abag0
(g43
g2
Ntp412
Rp413
(lp414
F-0.5472531305577372
aF0.48193816034954157
aF-0.4457876407294544
aF0.5191560459693428
abababaF0.2208
aF-1.0
abag0
(g153
g2
Ntp415
Rp416
(lp417
g0
(g22
g2
Ntp418
Rp419
(lp420
g0
(g26
g2
Ntp421
Rp422
(lp423
I0
ag0
(g30
g2
Ntp424
Rp425
(lp426
I0
aI0
abag75
abag0
(g35
g2
Ntp427
Rp428
(lp429
g0
(g39
g2
Ntp430
Rp431
(lp432
F0.6925634165505562
aF-0.03161010303150283
aF0.1515468745803516
abag0
(g43
g2
Ntp433
Rp434
(lp435
F-0.5472531305577372
aF0.48193816034954157
aF-0.4457876407294544
aF0.5191560459693428
abababaF0.1732
aF-1.0
abasg244
I1
sg245
(dp436
g247
(lp437
F0.07
aF0.05272986923547769
aF0.146
aF0.2208
aF0.1732
asg249
(lp438
F-1.0
asg151
(lp439
g0
(g22
g2
Ntp440
Rp441
(lp442
g0
(g26
g2
Ntp443
Rp444
(lp445
I0
ag0
(g30
g2
Ntp446
Rp447
(lp448
I0
aI0
abag75
abag0
(g35
g2
Ntp449
Rp450
(lp451
g0
(g39
g2
Ntp452
Rp453
(lp454
F0.6925634165505562
aF-0.03161010303150283
aF0.1515468745803516
abag0
(g43
g2
Ntp455
Rp456
(lp457
F-0.5472531305577372
aF0.48193816034954157
aF-0.4457876407294544
aF0.5191560459693428
abababassg270
g0
(g153
g2
Ntp458
Rp459
(lp460
g67
aF0.1732
aF-1.0
absbag0
(g8
g2
Ntp461
Rp462
(dp463
g142
g145
sg146
I01
sg18
g147
sg148
I2
sg149
(lp464
g151
asg152
g153
sg154
g155
sg158
(lp465
g0
(g153
g2
Ntp466
Rp467
(lp468
g0
(g22
g2
Ntp469
Rp470
(lp471
g0
(g26
g2
Ntp472
Rp473
(lp474
I0
ag0
(g30
g2
Ntp475
Rp476
(lp477
I0
aI0
abag94
abag0
(g35
g2
Ntp478
Rp479
(lp480
g0
(g39
g2
Ntp481
Rp482
(lp483
F0.581848720349036
aF0.37632116390939524
aF0.3458198812985057
abag0
(g43
g2
Ntp484
Rp485
(lp486
F-0.6558731655374604
aF0.2796442810897982
aF-0.2831432228500472
aF0.6414509974547778
abababaF0.07
aF-1.0
abag0
(g153
g2
Ntp487
Rp488
(lp489
g0
(g22
g2
Ntp490
Rp491
(lp492
g0
(g26
g2
Ntp493
Rp494
(lp495
I0
ag0
(g30
g2
Ntp496
Rp497
(lp498
I0
aI0
abag94
abag0
(g35
g2
Ntp499
Rp500
(lp501
g0
(g39
g2
Ntp502
Rp503
(lp504
F0.581848720349036
aF0.37632116390939524
aF0.3458198812985057
abag0
(g43
g2
Ntp505
Rp506
(lp507
F-0.6558731655374604
aF0.2796442810897982
aF-0.2831432228500472
aF0.6414509974547778
abababaF0.10049896038941752
aF-1.0
abag0
(g153
g2
Ntp508
Rp509
(lp510
g0
(g22
g2
Ntp511
Rp512
(lp513
g0
(g26
g2
Ntp514
Rp515
(lp516
I0
ag0
(g30
g2
Ntp517
Rp518
(lp519
I0
aI0
abag94
abag0
(g35
g2
Ntp520
Rp521
(lp522
g0
(g39
g2
Ntp523
Rp524
(lp525
F0.581848720349036
aF0.37632116390939524
aF0.3458198812985057
abag0
(g43
g2
Ntp526
Rp527
(lp528
F-0.6558731655374604
aF0.2796442810897982
aF-0.2831432228500472
aF0.6414509974547778
abababaF0.1936
aF-1.0
abag0
(g153
g2
Ntp529
Rp530
(lp531
g0
(g22
g2
Ntp532
Rp533
(lp534
g0
(g26
g2
Ntp535
Rp536
(lp537
I0
ag0
(g30
g2
Ntp538
Rp539
(lp540
I0
aI0
abag94
abag0
(g35
g2
Ntp541
Rp542
(lp543
g0
(g39
g2
Ntp544
Rp545
(lp546
F0.581848720349036
aF0.37632116390939524
aF0.3458198812985057
abag0
(g43
g2
Ntp547
Rp548
(lp549
F-0.6558731655374604
aF0.2796442810897982
aF-0.2831432228500472
aF0.6414509974547778
abababaF0.2752
aF-1.0
abag0
(g153
g2
Ntp550
Rp551
(lp552
g0
(g22
g2
Ntp553
Rp554
(lp555
g0
(g26
g2
Ntp556
Rp557
(lp558
I0
ag0
(g30
g2
Ntp559
Rp560
(lp561
I0
aI0
abag94
abag0
(g35
g2
Ntp562
Rp563
(lp564
g0
(g39
g2
Ntp565
Rp566
(lp567
F0.581848720349036
aF0.37632116390939524
aF0.3458198812985057
abag0
(g43
g2
Ntp568
Rp569
(lp570
F-0.6558731655374604
aF0.2796442810897982
aF-0.2831432228500472
aF0.6414509974547778
abababaF0.3296
aF-1.0
abag0
(g153
g2
Ntp571
Rp572
(lp573
g0
(g22
g2
Ntp574
Rp575
(lp576
g0
(g26
g2
Ntp577
Rp578
(lp579
I0
ag0
(g30
g2
Ntp580
Rp581
(lp582
I0
aI0
abag94
abag0
(g35
g2
Ntp583
Rp584
(lp585
g0
(g39
g2
Ntp586
Rp587
(lp588
F0.581848720349036
aF0.37632116390939524
aF0.3458198812985057
abag0
(g43
g2
Ntp589
Rp590
(lp591
F-0.6558731655374604
aF0.2796442810897982
aF-0.2831432228500472
aF0.6414509974547778
abababaF0.2752
aF-1.0
abasg244
I1
sg245
(dp592
g247
(lp593
F0.07
aF0.10049896038941752
aF0.1936
aF0.2752
aF0.3296
aF0.2752
asg249
(lp594
F-1.0
asg151
(lp595
g0
(g22
g2
Ntp596
Rp597
(lp598
g0
(g26
g2
Ntp599
Rp600
(lp601
I0
ag0
(g30
g2
Ntp602
Rp603
(lp604
I0
aI0
abag94
abag0
(g35
g2
Ntp605
Rp606
(lp607
g0
(g39
g2
Ntp608
Rp609
(lp610
F0.581848720349036
aF0.37632116390939524
aF0.3458198812985057
abag0
(g43
g2
Ntp611
Rp612
(lp613
F-0.6558731655374604
aF0.2796442810897982
aF-0.2831432228500472
aF0.6414509974547778
abababassg270
g0
(g153
g2
Ntp614
Rp615
(lp616
g86
aF0.2752
aF-1.0
absbag0
(g14
g2
Ntp617
Rp618
(dp619
g142
g145
sg146
I01
sg18
g277
sg148
I3
sg149
(lp620
sg152
g279
sg154
g280
sg158
(lp621
g0
(g279
g2
Ntp622
Rp623
(lp624
F10.0
abag0
(g279
g2
Ntp625
Rp626
(lp627
F16.272469845821092
abag0
(g279
g2
Ntp628
Rp629
(lp630
F5.0
abasg244
I1
sg245
(dp631
g294
(lp632
F10.0
aF16.272469845821092
aF5.0
assg270
g0
(g279
g2
Ntp633
Rp634
(lp635
F5.0
absbag0
(g12
g2
Ntp636
Rp637
(dp638
g142
g145
sg146
I01
sg18
S'A Move Fingers primitive'
p639
sg148
I3
sg149
(lp640
S'width'
p641
asg152
cpanda_pbd.srv._MoveFingers
MoveFingersRequest
p642
sg154
(dp643
g641
(lp644
F0.04410567507147789
aF0.08
assg158
(lp645
g0
(g642
g2
Ntp646
Rp647
(lp648
F0.04410567507147789
abag0
(g642
g2
Ntp649
Rp650
(lp651
F0.04703050004368702
abag0
(g642
g2
Ntp652
Rp653
(lp654
F0.048
abasg244
I1
sg245
(dp655
g641
(lp656
F0.04410567507147789
aF0.04703050004368702
aF0.048
assg270
g0
(g642
g2
Ntp657
Rp658
(lp659
F0.048
absbag0
(g8
g2
Ntp660
Rp661
(dp662
g142
g145
sg146
I01
sg18
g147
sg148
I3
sg149
(lp663
g151
asg152
g153
sg154
g155
sg158
(lp664
g0
(g153
g2
Ntp665
Rp666
(lp667
g0
(g22
g2
Ntp668
Rp669
(lp670
g0
(g26
g2
Ntp671
Rp672
(lp673
I0
ag0
(g30
g2
Ntp674
Rp675
(lp676
I0
aI0
abag113
abag0
(g35
g2
Ntp677
Rp678
(lp679
g0
(g39
g2
Ntp680
Rp681
(lp682
F0.44612082019446336
aF-0.04256435300120127
aF0.408240721202241
abag0
(g43
g2
Ntp683
Rp684
(lp685
F0.9998713088044058
aF-0.010703239032880212
aF-0.0070168970835132564
aF-0.009673141128363653
abababaF0.07
aF-1.0
abag0
(g153
g2
Ntp686
Rp687
(lp688
g0
(g22
g2
Ntp689
Rp690
(lp691
g0
(g26
g2
Ntp692
Rp693
(lp694
I0
ag0
(g30
g2
Ntp695
Rp696
(lp697
I0
aI0
abag113
abag0
(g35
g2
Ntp698
Rp699
(lp700
g0
(g39
g2
Ntp701
Rp702
(lp703
F0.44612082019446336
aF-0.04256435300120127
aF0.408240721202241
abag0
(g43
g2
Ntp704
Rp705
(lp706
F0.9998713088044058
aF-0.010703239032880212
aF-0.0070168970835132564
aF-0.009673141128363653
abababaF0.026641007139815938
aF-1.0
abag0
(g153
g2
Ntp707
Rp708
(lp709
g0
(g22
g2
Ntp710
Rp711
(lp712
g0
(g26
g2
Ntp713
Rp714
(lp715
I0
ag0
(g30
g2
Ntp716
Rp717
(lp718
I0
aI0
abag113
abag0
(g35
g2
Ntp719
Rp720
(lp721
g0
(g39
g2
Ntp722
Rp723
(lp724
F0.44612082019446336
aF-0.04256435300120127
aF0.408240721202241
abag0
(g43
g2
Ntp725
Rp726
(lp727
F0.9998713088044058
aF-0.010703239032880212
aF-0.0070168970835132564
aF-0.009673141128363653
abababaF0.35
aF-1.0
abasg244
I2
sg245
(dp728
g247
(lp729
F0.07
aF0.026641007139815938
aF0.35
asg249
(lp730
F-1.0
asg151
(lp731
g0
(g22
g2
Ntp732
Rp733
(lp734
g0
(g26
g2
Ntp735
Rp736
(lp737
I0
ag0
(g30
g2
Ntp738
Rp739
(lp740
I0
aI0
abag113
abag0
(g35
g2
Ntp741
Rp742
(lp743
g0
(g39
g2
Ntp744
Rp745
(lp746
F0.44612082019446336
aF-0.04256435300120127
aF0.408240721202241
abag0
(g43
g2
Ntp747
Rp748
(lp749
F0.9998713088044058
aF-0.010703239032880212
aF-0.0070168970835132564
aF-0.009673141128363653
abababassg270
g0
(g153
g2
Ntp750
Rp751
(lp752
g105
aF0.35
aF-1.0
absbasS'name'
p753
S'A Panda Program'
p754
sb.