(dp0
S'program'
p1
ccopy_reg
_reconstructor
p2
(cpanda_eup.panda_primitive
PandaProgram
p3
c__builtin__
object
p4
Ntp5
Rp6
(dp7
S'effect_of_primitive'
p8
(dp9
cpanda_eup.panda_primitive
MoveToContact
p10
(lp11
I01
aI00
ascpanda_eup.panda_primitive
UserSync
p12
(lp13
I00
aI00
ascpanda_eup.panda_primitive
MoveToEE
p14
(lp15
I01
aI00
ascpanda_eup.panda_primitive
ApplyForceFingers
p16
(lp17
I00
aI01
ascpanda_eup.panda_primitive
MoveFingers
p18
(lp19
I00
aI01
assS'description'
p20
S'Empty Description'
p21
sS'arm_state_list'
p22
(lp23
g2
(cgeometry_msgs.msg._PoseStamped
PoseStamped
p24
g4
Ntp25
Rp26
(lp27
g2
(cstd_msgs.msg._Header
Header
p28
g4
Ntp29
Rp30
(lp31
I0
ag2
(cgenpy.rostime
Time
p32
g4
Ntp33
Rp34
(lp35
I0
aI0
abaS'panda_link0'
p36
abag2
(cgeometry_msgs.msg._Pose
Pose
p37
g4
Ntp38
Rp39
(lp40
g2
(cgeometry_msgs.msg._Point
Point
p41
g4
Ntp42
Rp43
(lp44
F0.4833974233623748
aF0.007318751177980708
aF0.3904495689279949
abag2
(cgeometry_msgs.msg._Quaternion
Quaternion
p45
g4
Ntp46
Rp47
(lp48
F0.9993500431690824
aF-0.014042189921340717
aF-0.02007113406023331
aF-0.026447262574839425
abababag2
(g24
g4
Ntp49
Rp50
(lp51
g2
(g28
g4
Ntp52
Rp53
(lp54
I0
ag2
(g32
g4
Ntp55
Rp56
(lp57
I0
aI0
abaS'panda_link0'
p58
abag2
(g37
g4
Ntp59
Rp60
(lp61
g2
(g41
g4
Ntp62
Rp63
(lp64
F0.5039153637706817
aF0.006563561602324353
aF0.024112276056863113
abag2
(g45
g4
Ntp65
Rp66
(lp67
F0.9994626726291765
aF-0.027769854714286817
aF0.005165135725159717
aF-0.016628967587664096
abababag2
(g24
g4
Ntp68
Rp69
(lp70
g2
(g28
g4
Ntp71
Rp72
(lp73
I0
ag2
(g32
g4
Ntp74
Rp75
(lp76
I0
aI0
abaS'panda_link0'
p77
abag2
(g37
g4
Ntp78
Rp79
(lp80
g2
(g41
g4
Ntp81
Rp82
(lp83
F0.6404225030201885
aF-0.21899515188976365
aF0.31947401035356376
abag2
(g45
g4
Ntp84
Rp85
(lp86
F0.8476936441278499
aF-0.15503337362532482
aF0.5028616917286283
aF0.06715845262823286
abababag2
(g24
g4
Ntp87
Rp88
(lp89
g2
(g28
g4
Ntp90
Rp91
(lp92
I0
ag2
(g32
g4
Ntp93
Rp94
(lp95
I0
aI0
abaS'panda_link0'
p96
abag2
(g37
g4
Ntp97
Rp98
(lp99
g2
(g41
g4
Ntp100
Rp101
(lp102
F0.48697273191184176
aF-0.0003249795766055996
aF0.3672047165651558
abag2
(g45
g4
Ntp103
Rp104
(lp105
F0.9986485219265587
aF-0.028677903984510297
aF0.042164274523526495
aF-0.010043974853580964
abababasS'gripper_state_list'
p106
(lp107
g2
(cpanda_eup.panda_primitive
GripperState
p108
g4
Ntp109
Rp110
(dp111
S'width'
p112
F0.08
sS'force'
p113
F0.0
sbag2
(g108
g4
Ntp114
Rp115
(dp116
g112
F0.03179579973220825
sg113
F20.8
sbag2
(g108
g4
Ntp117
Rp118
(dp119
g112
F0.058987054973840714
sg113
F0.0
sbasS'primitives'
p120
(lp121
g2
(g10
g4
Ntp122
Rp123
(dp124
S'status'
p125
cpanda_eup.panda_primitive
PandaPrimitiveStatus
p126
(I1
tp127
Rp128
sS'revertible'
p129
I01
sg20
S'A Move to Contact primitive'
p130
sS'parameters_range_history'
p131
(dp132
S'force_threshold'
p133
(lp134
(lp135
F5.0
aF8.0
aa(lp136
F5.0
aF6.5
aa(lp137
F5.0
aF5.9
aasS'position_speed'
p138
(lp139
(lp140
F0.0676
aF0.25
aa(lp141
F0.0676
aF0.1876
aa(lp142
F0.09639999999999999
aF0.1876
aa(lp143
F0.09639999999999999
aF0.1588
aa(lp144
F0.09639999999999999
aF0.1348
aa(lp145
F0.09639999999999999
aF0.11079999999999998
aassS'starting_arm_state_index'
p146
I0
sS'parameters_with_effects_on_robot_state'
p147
(lp148
S'pose'
p149
aS'force_threshold'
p150
aS'torque_threshold'
p151
asS'expected_container'
p152
cpanda_pbd.msg._MoveToContactGoal
MoveToContactGoal
p153
sS'gui_tunable_parameter_strict_ranges'
p154
(dp155
g133
(lp156
F5.0
aF20.0
asg138
(lp157
F0.01
aF0.25
assS'container_update_history'
p158
(lp159
g2
(g153
g4
Ntp160
Rp161
(lp162
g2
(g24
g4
Ntp163
Rp164
(lp165
g2
(g28
g4
Ntp166
Rp167
(lp168
I0
ag2
(g32
g4
Ntp169
Rp170
(lp171
I0
aI0
abaS'panda_link0'
p172
abag2
(g37
g4
Ntp173
Rp174
(lp175
g2
(g41
g4
Ntp176
Rp177
(lp178
F0.5069132714754178
aF0.004873624607929537
aF0.027077189596690976
abag2
(g45
g4
Ntp179
Rp180
(lp181
F0.9995143312059889
aF-0.02583181235790082
aF0.016166211683465017
aF-0.006517114695673689
abababaF0.07206475844220953
aF-1.0
aF8.431831805576774
aF10.0
abag2
(g153
g4
Ntp182
Rp183
(lp184
g2
(g24
g4
Ntp185
Rp186
(lp187
g2
(g28
g4
Ntp188
Rp189
(lp190
I0
ag2
(g32
g4
Ntp191
Rp192
(lp193
I0
aI0
abag172
abag2
(g37
g4
Ntp194
Rp195
(lp196
g2
(g41
g4
Ntp197
Rp198
(lp199
F0.5069132714754178
aF0.004873624607929537
aF0.027077189596690976
abag2
(g45
g4
Ntp200
Rp201
(lp202
F0.9995143312059889
aF-0.02583181235790082
aF0.016166211683465017
aF-0.006517114695673689
abababaF0.07206475844220953
aF-1.0
aF8.3
aF10.0
abag2
(g153
g4
Ntp203
Rp204
(lp205
g2
(g24
g4
Ntp206
Rp207
(lp208
g2
(g28
g4
Ntp209
Rp210
(lp211
I0
ag2
(g32
g4
Ntp212
Rp213
(lp214
I0
aI0
abag172
abag2
(g37
g4
Ntp215
Rp216
(lp217
g2
(g41
g4
Ntp218
Rp219
(lp220
F0.5069132714754178
aF0.004873624607929537
aF0.027077189596690976
abag2
(g45
g4
Ntp221
Rp222
(lp223
F0.9995143312059889
aF-0.02583181235790082
aF0.016166211683465017
aF-0.006517114695673689
abababaF0.057999999999999996
aF-1.0
aF8.3
aF10.0
abag2
(g153
g4
Ntp224
Rp225
(lp226
g2
(g24
g4
Ntp227
Rp228
(lp229
g2
(g28
g4
Ntp230
Rp231
(lp232
I0
ag2
(g32
g4
Ntp233
Rp234
(lp235
I0
aI0
abag172
abag2
(g37
g4
Ntp236
Rp237
(lp238
g2
(g41
g4
Ntp239
Rp240
(lp241
F0.5069132714754178
aF0.004873624607929537
aF0.027077189596690976
abag2
(g45
g4
Ntp242
Rp243
(lp244
F0.9995143312059889
aF-0.02583181235790082
aF0.016166211683465017
aF-0.006517114695673689
abababaF0.20679999999999998
aF-1.0
aF8.3
aF10.0
abag2
(g153
g4
Ntp245
Rp246
(lp247
g2
(g24
g4
Ntp248
Rp249
(lp250
g2
(g28
g4
Ntp251
Rp252
(lp253
I0
ag2
(g32
g4
Ntp254
Rp255
(lp256
I0
aI0
abag172
abag2
(g37
g4
Ntp257
Rp258
(lp259
g2
(g41
g4
Ntp260
Rp261
(lp262
F0.5069132714754178
aF0.004873624607929537
aF0.027077189596690976
abag2
(g45
g4
Ntp263
Rp264
(lp265
F0.9995143312059889
aF-0.02583181235790082
aF0.016166211683465017
aF-0.006517114695673689
abababaF0.09159999999999999
aF-1.0
aF8.3
aF10.0
abag2
(g153
g4
Ntp266
Rp267
(lp268
g2
(g24
g4
Ntp269
Rp270
(lp271
g2
(g28
g4
Ntp272
Rp273
(lp274
I0
ag2
(g32
g4
Ntp275
Rp276
(lp277
I0
aI0
abag172
abag2
(g37
g4
Ntp278
Rp279
(lp280
g2
(g41
g4
Ntp281
Rp282
(lp283
F0.5069132714754178
aF0.004873624607929537
aF0.027077189596690976
abag2
(g45
g4
Ntp284
Rp285
(lp286
F0.9995143312059889
aF-0.02583181235790082
aF0.016166211683465017
aF-0.006517114695673689
abababaF0.1732
aF-1.0
aF8.3
aF10.0
abag2
(g153
g4
Ntp287
Rp288
(lp289
g2
(g24
g4
Ntp290
Rp291
(lp292
g2
(g28
g4
Ntp293
Rp294
(lp295
I0
ag2
(g32
g4
Ntp296
Rp297
(lp298
I0
aI0
abag172
abag2
(g37
g4
Ntp299
Rp300
(lp301
g2
(g41
g4
Ntp302
Rp303
(lp304
F0.5069132714754178
aF0.004873624607929537
aF0.027077189596690976
abag2
(g45
g4
Ntp305
Rp306
(lp307
F0.9995143312059889
aF-0.02583181235790082
aF0.016166211683465017
aF-0.006517114695673689
abababaF0.1732
aF-1.0
aF6.5
aF10.0
abag2
(g153
g4
Ntp308
Rp309
(lp310
g2
(g24
g4
Ntp311
Rp312
(lp313
g2
(g28
g4
Ntp314
Rp315
(lp316
I0
ag2
(g32
g4
Ntp317
Rp318
(lp319
I0
aI0
abag172
abag2
(g37
g4
Ntp320
Rp321
(lp322
g2
(g41
g4
Ntp323
Rp324
(lp325
F0.5069132714754178
aF0.004873624607929537
aF0.027077189596690976
abag2
(g45
g4
Ntp326
Rp327
(lp328
F0.9995143312059889
aF-0.02583181235790082
aF0.016166211683465017
aF-0.006517114695673689
abababaF0.1732
aF-1.0
aF5.9
aF10.0
abag2
(g153
g4
Ntp329
Rp330
(lp331
g2
(g24
g4
Ntp332
Rp333
(lp334
g2
(g28
g4
Ntp335
Rp336
(lp337
I0
ag2
(g32
g4
Ntp338
Rp339
(lp340
I0
aI0
abag172
abag2
(g37
g4
Ntp341
Rp342
(lp343
g2
(g41
g4
Ntp344
Rp345
(lp346
F0.5069132714754178
aF0.004873624607929537
aF0.027077189596690976
abag2
(g45
g4
Ntp347
Rp348
(lp349
F0.9995143312059889
aF-0.02583181235790082
aF0.016166211683465017
aF-0.006517114695673689
abababaF0.1252
aF-1.0
aF5.9
aF10.0
abag2
(g153
g4
Ntp350
Rp351
(lp352
g2
(g24
g4
Ntp353
Rp354
(lp355
g2
(g28
g4
Ntp356
Rp357
(lp358
I0
ag2
(g32
g4
Ntp359
Rp360
(lp361
I0
aI0
abag172
abag2
(g37
g4
Ntp362
Rp363
(lp364
g2
(g41
g4
Ntp365
Rp366
(lp367
F0.5069132714754178
aF0.004873624607929537
aF0.027077189596690976
abag2
(g45
g4
Ntp368
Rp369
(lp370
F0.9995143312059889
aF-0.02583181235790082
aF0.016166211683465017
aF-0.006517114695673689
abababaF0.1252
aF-1.0
aF5.6
aF10.0
abag2
(g153
g4
Ntp371
Rp372
(lp373
g2
(g24
g4
Ntp374
Rp375
(lp376
g2
(g28
g4
Ntp377
Rp378
(lp379
I0
ag2
(g32
g4
Ntp380
Rp381
(lp382
I0
aI0
abag172
abag2
(g37
g4
Ntp383
Rp384
(lp385
g2
(g41
g4
Ntp386
Rp387
(lp388
F0.5069132714754178
aF0.004873624607929537
aF0.027077189596690976
abag2
(g45
g4
Ntp389
Rp390
(lp391
F0.9995143312059889
aF-0.02583181235790082
aF0.016166211683465017
aF-0.006517114695673689
abababaF0.11079999999999998
aF-1.0
aF5.6
aF10.0
abag2
(g153
g4
Ntp392
Rp393
(lp394
g2
(g24
g4
Ntp395
Rp396
(lp397
g2
(g28
g4
Ntp398
Rp399
(lp400
I0
ag2
(g32
g4
Ntp401
Rp402
(lp403
I0
aI0
abag172
abag2
(g37
g4
Ntp404
Rp405
(lp406
g2
(g41
g4
Ntp407
Rp408
(lp409
F0.5069132714754178
aF0.004873624607929537
aF0.027077189596690976
abag2
(g45
g4
Ntp410
Rp411
(lp412
F0.9995143312059889
aF-0.02583181235790082
aF0.016166211683465017
aF-0.006517114695673689
abababaF0.11079999999999998
aF-1.0
aF5.3
aF10.0
abag2
(g153
g4
Ntp413
Rp414
(lp415
g2
(g24
g4
Ntp416
Rp417
(lp418
g2
(g28
g4
Ntp419
Rp420
(lp421
I0
ag2
(g32
g4
Ntp422
Rp423
(lp424
I0
aI0
abag172
abag2
(g37
g4
Ntp425
Rp426
(lp427
g2
(g41
g4
Ntp428
Rp429
(lp430
F0.5069132714754178
aF0.004873624607929537
aF0.027077189596690976
abag2
(g45
g4
Ntp431
Rp432
(lp433
F0.9995143312059889
aF-0.02583181235790082
aF0.016166211683465017
aF-0.006517114695673689
abababaF0.10119999999999998
aF-1.0
aF5.3
aF10.0
abasS'starting_gripper_state_index'
p434
I0
sS'parameters_update_history'
p435
(dp436
g138
(lp437
F0.07206475844220953
aF0.057999999999999996
aF0.20679999999999998
aF0.09159999999999999
aF0.1732
aF0.1252
aF0.11079999999999998
aF0.10119999999999998
asg133
(lp438
F8.431831805576774
aF8.3
aF6.5
aF5.9
aF5.6
aF5.3
asS'pose'
p439
(lp440
g2
(g24
g4
Ntp441
Rp442
(lp443
g2
(g28
g4
Ntp444
Rp445
(lp446
I0
ag2
(g32
g4
Ntp447
Rp448
(lp449
I0
aI0
abag172
abag2
(g37
g4
Ntp450
Rp451
(lp452
g2
(g41
g4
Ntp453
Rp454
(lp455
F0.5069132714754178
aF0.004873624607929537
aF0.027077189596690976
abag2
(g45
g4
Ntp456
Rp457
(lp458
F0.9995143312059889
aF-0.02583181235790082
aF0.016166211683465017
aF-0.006517114695673689
abababasS'rotation_speed'
p459
(lp460
F-1.0
asS'torque_threshold'
p461
(lp462
F10.0
assS'parameter_container'
p463
g2
(g153
g4
Ntp464
Rp465
(lp466
g2
(g24
g4
Ntp467
Rp468
(lp469
g2
(g28
g4
Ntp470
Rp471
(lp472
I0
ag2
(g32
g4
Ntp473
Rp474
(lp475
I0
aI0
abag172
abag2
(g37
g4
Ntp476
Rp477
(lp478
g2
(g41
g4
Ntp479
Rp480
(lp481
F0.5069132714754178
aF0.004873624607929537
aF0.027077189596690976
abag2
(g45
g4
Ntp482
Rp483
(lp484
F0.9995143312059889
aF-0.02583181235790082
aF0.016166211683465017
aF-0.006517114695673689
abababaF0.10119999999999998
aF-1.0
aF5.3
aF10.0
absbag2
(g16
g4
Ntp485
Rp486
(dp487
g125
g128
sg129
I01
sg20
S'A Apply Force (with) Fingers primitive'
p488
sg131
(dp489
g113
(lp490
(lp491
F21.6
aF26.4
aa(lp492
F20.0
aF24.0
aa(lp493
F20.0
aF21.6
aassg146
I1
sg147
(lp494
S'force'
p495
asg152
cpanda_pbd.srv._ApplyForceFingers
ApplyForceFingersRequest
p496
sg154
(dp497
g113
(lp498
F20.0
aF60.0
assg158
(lp499
g2
(g496
g4
Ntp500
Rp501
(lp502
F26.298410581232584
abag2
(g496
g4
Ntp503
Rp504
(lp505
F25.6
abag2
(g496
g4
Ntp506
Rp507
(lp508
F24.0
abag2
(g496
g4
Ntp509
Rp510
(lp511
F22.4
abag2
(g496
g4
Ntp512
Rp513
(lp514
F20.8
abasg434
I0
sg435
(dp515
g113
(lp516
F26.298410581232584
aF25.6
aF24.0
aF22.4
aF20.8
assg463
g2
(g496
g4
Ntp517
Rp518
(lp519
F20.8
absbag2
(g14
g4
Ntp520
Rp521
(dp522
g125
g128
sg129
I01
sg20
S'A Move to End-Effector primitive'
p523
sg131
(dp524
g138
(lp525
(lp526
F0.0644
aF0.35
aa(lp527
F0.0644
aF0.2616
aa(lp528
F0.0644
aF0.2616
aassg146
I1
sg147
(lp529
g149
asg152
cpanda_pbd.msg._MoveToEEGoal
MoveToEEGoal
p530
sg154
(dp531
g138
(lp532
F0.01
aF0.35
assg158
(lp533
g2
(g530
g4
Ntp534
Rp535
(lp536
g2
(g24
g4
Ntp537
Rp538
(lp539
g2
(g28
g4
Ntp540
Rp541
(lp542
I0
ag2
(g32
g4
Ntp543
Rp544
(lp545
I0
aI0
abag77
abag2
(g37
g4
Ntp546
Rp547
(lp548
g2
(g41
g4
Ntp549
Rp550
(lp551
F0.6404225030201885
aF-0.21899515188976365
aF0.31947401035356376
abag2
(g45
g4
Ntp552
Rp553
(lp554
F0.8476936441278499
aF-0.15503337362532482
aF0.5028616917286283
aF0.06715845262823286
abababaF0.2092966090817814
aF-1.0
abag2
(g530
g4
Ntp555
Rp556
(lp557
g2
(g24
g4
Ntp558
Rp559
(lp560
g2
(g28
g4
Ntp561
Rp562
(lp563
I0
ag2
(g32
g4
Ntp564
Rp565
(lp566
I0
aI0
abag77
abag2
(g37
g4
Ntp567
Rp568
(lp569
g2
(g41
g4
Ntp570
Rp571
(lp572
F0.6404225030201885
aF-0.21899515188976365
aF0.31947401035356376
abag2
(g45
g4
Ntp573
Rp574
(lp575
F0.8476936441278499
aF-0.15503337362532482
aF0.5028616917286283
aF0.06715845262823286
abababaF0.0576
aF-1.0
abag2
(g530
g4
Ntp576
Rp577
(lp578
g2
(g24
g4
Ntp579
Rp580
(lp581
g2
(g28
g4
Ntp582
Rp583
(lp584
I0
ag2
(g32
g4
Ntp585
Rp586
(lp587
I0
aI0
abag77
abag2
(g37
g4
Ntp588
Rp589
(lp590
g2
(g41
g4
Ntp591
Rp592
(lp593
F0.6404225030201885
aF-0.21899515188976365
aF0.31947401035356376
abag2
(g45
g4
Ntp594
Rp595
(lp596
F0.8476936441278499
aF-0.15503337362532482
aF0.5028616917286283
aF0.06715845262823286
abababaF0.26839999999999997
aF-1.0
abag2
(g530
g4
Ntp597
Rp598
(lp599
g2
(g24
g4
Ntp600
Rp601
(lp602
g2
(g28
g4
Ntp603
Rp604
(lp605
I0
ag2
(g32
g4
Ntp606
Rp607
(lp608
I0
aI0
abag77
abag2
(g37
g4
Ntp609
Rp610
(lp611
g2
(g41
g4
Ntp612
Rp613
(lp614
F0.6404225030201885
aF-0.21899515188976365
aF0.31947401035356376
abag2
(g45
g4
Ntp615
Rp616
(lp617
F0.8476936441278499
aF-0.15503337362532482
aF0.5028616917286283
aF0.06715845262823286
abababaF0.1732
aF-1.0
abag2
(g530
g4
Ntp618
Rp619
(lp620
g2
(g24
g4
Ntp621
Rp622
(lp623
g2
(g28
g4
Ntp624
Rp625
(lp626
I0
ag2
(g32
g4
Ntp627
Rp628
(lp629
I0
aI0
abag77
abag2
(g37
g4
Ntp630
Rp631
(lp632
g2
(g41
g4
Ntp633
Rp634
(lp635
F0.6404225030201885
aF-0.21899515188976365
aF0.31947401035356376
abag2
(g45
g4
Ntp636
Rp637
(lp638
F0.8476936441278499
aF-0.15503337362532482
aF0.5028616917286283
aF0.06715845262823286
abababaF0.1732
aF-1.0
abasg434
I1
sg435
(dp639
g138
(lp640
F0.2092966090817814
aF0.0576
aF0.26839999999999997
aF0.1732
aF0.1732
asg439
(lp641
g2
(g24
g4
Ntp642
Rp643
(lp644
g2
(g28
g4
Ntp645
Rp646
(lp647
I0
ag2
(g32
g4
Ntp648
Rp649
(lp650
I0
aI0
abag77
abag2
(g37
g4
Ntp651
Rp652
(lp653
g2
(g41
g4
Ntp654
Rp655
(lp656
F0.6404225030201885
aF-0.21899515188976365
aF0.31947401035356376
abag2
(g45
g4
Ntp657
Rp658
(lp659
F0.8476936441278499
aF-0.15503337362532482
aF0.5028616917286283
aF0.06715845262823286
abababasg459
(lp660
F-1.0
assg463
g2
(g530
g4
Ntp661
Rp662
(lp663
g69
aF0.1732
aF-1.0
absbag2
(g12
g4
Ntp664
Rp665
(dp666
g125
g128
sg129
I01
sg20
S'A User Synchronization primitive'
p667
sg131
(dp668
g133
(lp669
(lp670
F5.0
aF13.0
aa(lp671
F5.0
aF10.0
aa(lp672
F5.0
aF8.5
aa(lp673
F5.5
aF6.5
aassg146
I2
sg147
(lp674
sg152
cpanda_pbd.msg._UserSyncGoal
UserSyncGoal
p675
sg154
(dp676
g133
(lp677
F5.0
aF30.0
assg158
(lp678
g2
(g675
g4
Ntp679
Rp680
(lp681
F14.336460090100282
abag2
(g675
g4
Ntp682
Rp683
(lp684
F14.0
abag2
(g675
g4
Ntp685
Rp686
(lp687
F10.0
abag2
(g675
g4
Ntp688
Rp689
(lp690
F8.5
abag2
(g675
g4
Ntp691
Rp692
(lp693
F6.5
abag2
(g675
g4
Ntp694
Rp695
(lp696
F6.0
abasg434
I1
sg435
(dp697
g133
(lp698
F14.336460090100282
aF14.0
aF10.0
aF8.5
aF6.5
aF6.0
assg463
g2
(g675
g4
Ntp699
Rp700
(lp701
F6.0
absbag2
(g18
g4
Ntp702
Rp703
(dp704
g125
g128
sg129
I01
sg20
S'A Move Fingers primitive'
p705
sg131
(dp706
g112
(lp707
(lp708
F0.04758337885141373
aF0.08
aa(lp709
F0.0512
aF0.08
aa(lp710
F0.0512
aF0.07680000000000001
aassg146
I2
sg147
(lp711
S'width'
p712
asg152
cpanda_pbd.srv._MoveFingers
MoveFingersRequest
p713
sg154
(dp714
g712
(lp715
F0.04758337885141373
aF0.08
assg158
(lp716
g2
(g713
g4
Ntp717
Rp718
(lp719
F0.0638021081679065
abag2
(g713
g4
Ntp720
Rp721
(lp722
F0.0512
abag2
(g713
g4
Ntp723
Rp724
(lp725
F0.07680000000000001
abag2
(g713
g4
Ntp726
Rp727
(lp728
F0.0592
abasg434
I1
sg435
(dp729
g112
(lp730
F0.0638021081679065
aF0.0512
aF0.07680000000000001
aF0.0592
assg463
g2
(g713
g4
Ntp731
Rp732
(lp733
F0.0592
absbag2
(g14
g4
Ntp734
Rp735
(dp736
g125
g126
(I5
tp737
Rp738
sg129
I01
sg20
g523
sg131
(dp739
g138
(lp740
(lp741
F0.01
aF0.35
aa(lp742
F0.07799999999999999
aF0.1596
aa(lp743
F0.07799999999999999
aF0.1596
aassg146
I2
sg147
(lp744
g149
asg152
g530
sg154
g531
sg158
(lp745
g2
(g530
g4
Ntp746
Rp747
(lp748
g2
(g24
g4
Ntp749
Rp750
(lp751
g2
(g28
g4
Ntp752
Rp753
(lp754
I0
ag2
(g32
g4
Ntp755
Rp756
(lp757
I0
aI0
abag96
abag2
(g37
g4
Ntp758
Rp759
(lp760
g2
(g41
g4
Ntp761
Rp762
(lp763
F0.48697273191184176
aF-0.0003249795766055996
aF0.3672047165651558
abag2
(g45
g4
Ntp764
Rp765
(lp766
F0.9986485219265587
aF-0.028677903984510297
aF0.042164274523526495
aF-0.010043974853580964
abababaF0.24574760550476168
aF-1.0
abag2
(g530
g4
Ntp767
Rp768
(lp769
g2
(g24
g4
Ntp770
Rp771
(lp772
g2
(g28
g4
Ntp773
Rp774
(lp775
I0
ag2
(g32
g4
Ntp776
Rp777
(lp778
I0
aI0
abag96
abag2
(g37
g4
Ntp779
Rp780
(lp781
g2
(g41
g4
Ntp782
Rp783
(lp784
F0.48697273191184176
aF-0.0003249795766055996
aF0.3672047165651558
abag2
(g45
g4
Ntp785
Rp786
(lp787
F0.9986485219265587
aF-0.028677903984510297
aF0.042164274523526495
aF-0.010043974853580964
abababaF0.1392
aF-1.0
abag2
(g530
g4
Ntp788
Rp789
(lp790
g2
(g24
g4
Ntp791
Rp792
(lp793
g2
(g28
g4
Ntp794
Rp795
(lp796
I0
ag2
(g32
g4
Ntp797
Rp798
(lp799
I0
aI0
abag96
abag2
(g37
g4
Ntp800
Rp801
(lp802
g2
(g41
g4
Ntp803
Rp804
(lp805
F0.48697273191184176
aF-0.0003249795766055996
aF0.3672047165651558
abag2
(g45
g4
Ntp806
Rp807
(lp808
F0.9986485219265587
aF-0.028677903984510297
aF0.042164274523526495
aF-0.010043974853580964
abababaF0.1528
aF-1.0
abag2
(g530
g4
Ntp809
Rp810
(lp811
g2
(g24
g4
Ntp812
Rp813
(lp814
g2
(g28
g4
Ntp815
Rp816
(lp817
I0
ag2
(g32
g4
Ntp818
Rp819
(lp820
I0
aI0
abag96
abag2
(g37
g4
Ntp821
Rp822
(lp823
g2
(g41
g4
Ntp824
Rp825
(lp826
F0.48697273191184176
aF-0.0003249795766055996
aF0.3672047165651558
abag2
(g45
g4
Ntp827
Rp828
(lp829
F0.9986485219265587
aF-0.028677903984510297
aF0.042164274523526495
aF-0.010043974853580964
abababaF0.1528
aF-1.0
abasg434
I2
sg435
(dp830
g138
(lp831
F0.24574760550476168
aF0.1392
aF0.1528
aF0.1528
asg439
(lp832
g2
(g24
g4
Ntp833
Rp834
(lp835
g2
(g28
g4
Ntp836
Rp837
(lp838
I0
ag2
(g32
g4
Ntp839
Rp840
(lp841
I0
aI0
abag96
abag2
(g37
g4
Ntp842
Rp843
(lp844
g2
(g41
g4
Ntp845
Rp846
(lp847
F0.48697273191184176
aF-0.0003249795766055996
aF0.3672047165651558
abag2
(g45
g4
Ntp848
Rp849
(lp850
F0.9986485219265587
aF-0.028677903984510297
aF0.042164274523526495
aF-0.010043974853580964
abababasg459
(lp851
F-1.0
assg463
g2
(g530
g4
Ntp852
Rp853
(lp854
g88
aF0.1528
aF-1.0
absbasS'name'
p855
S'A Panda Program'
p856
sbsS'wallclock_time'
p857
F716.957601070404
sS'execution_timeseries'
p858
(lp859
F1567764977.373359
aF1567765005.182517
aF1567765027.701059
aF1567765050.063522
aF1567765084.452321
aF1567765111.110409
aF1567765127.848205
aF1567765191.287681
aF1567765211.060852
aF1567765226.551062
aF1567765260.751035
aF1567765276.709353
aF1567765297.573366
aF1567765317.830709
aF1567765338.515401
aF1567765367.362843
aF1567765385.771282
aF1567765412.91184
aF1567765427.709022
aF1567765450.463289
aF1567765471.299574
aF1567765504.841163
aF1567765533.791057
aF1567765561.942542
aF1567765594.532462
aF1567765614.594738
aF1567765624.07845
aF1567765629.466476
aF1567765636.661784
aF1567765641.013209
asS'tuning_timeseries'
p860
(lp861
F1567764977.373354
aF1567765005.170658
aF1567765027.685665
aF1567765050.049183
aF1567765084.42069
aF1567765111.100713
aF1567765127.848196
aF1567765191.274169
aF1567765211.045443
aF1567765226.551057
aF1567765260.73666
aF1567765276.690353
aF1567765297.555666
aF1567765317.830704
aF1567765338.498353
aF1567765367.34798
aF1567765385.755186
aF1567765412.898541
aF1567765427.695643
aF1567765450.448547
aF1567765471.282354
aF1567765504.826384
aF1567765533.777164
aF1567765594.513164
aF1567765614.578967
aF1567765629.446854
aF1567765645.398302
as.