ccopy_reg
_reconstructor
p0
(cpanda_eup.panda_primitive
PandaProgram
p1
c__builtin__
object
p2
Ntp3
Rp4
(dp5
S'effect_of_primitive'
p6
(dp7
cpanda_eup.panda_primitive
MoveToEE
p8
(lp9
I01
aI00
ascpanda_eup.panda_primitive
MoveToContact
p10
(lp11
I01
aI00
ascpanda_eup.panda_primitive
MoveFingers
p12
(lp13
I00
aI01
ascpanda_eup.panda_primitive
ApplyForceFingers
p14
(lp15
I00
aI01
ascpanda_eup.panda_primitive
UserSync
p16
(lp17
I00
aI00
assS'description'
p18
S'Empty Description'
p19
sS'arm_state_list'
p20
(lp21
g0
(cgeometry_msgs.msg._PoseStamped
PoseStamped
p22
g2
Ntp23
Rp24
(lp25
g0
(cstd_msgs.msg._Header
Header
p26
g2
Ntp27
Rp28
(lp29
I0
ag0
(cgenpy.rostime
Time
p30
g2
Ntp31
Rp32
(lp33
I0
aI0
abaS'panda_link0'
p34
abag0
(cgeometry_msgs.msg._Pose
Pose
p35
g2
Ntp36
Rp37
(lp38
g0
(cgeometry_msgs.msg._Point
Point
p39
g2
Ntp40
Rp41
(lp42
F0.5045138365062377
aF-0.265431521081101
aF0.4086585275481172
abag0
(cgeometry_msgs.msg._Quaternion
Quaternion
p43
g2
Ntp44
Rp45
(lp46
F0.9995540503376575
aF-0.02962858766662235
aF0.00040849401323953287
aF-0.003698699650716961
abababag0
(g22
g2
Ntp47
Rp48
(lp49
g0
(g26
g2
Ntp50
Rp51
(lp52
I0
ag0
(g30
g2
Ntp53
Rp54
(lp55
I0
aI0
abaS'panda_link0'
p56
abag0
(g35
g2
Ntp57
Rp58
(lp59
g0
(g39
g2
Ntp60
Rp61
(lp62
F0.5294752097753854
aF-0.23891993409430162
aF0.02570893459679896
abag0
(g43
g2
Ntp63
Rp64
(lp65
F-0.704688659619377
aF0.7085322142558269
aF-0.0335033762754408
aF-0.016538383951495636
abababag0
(g22
g2
Ntp66
Rp67
(lp68
g0
(g26
g2
Ntp69
Rp70
(lp71
I0
ag0
(g30
g2
Ntp72
Rp73
(lp74
I0
aI0
abaS'panda_link0'
p75
abag0
(g35
g2
Ntp76
Rp77
(lp78
g0
(g39
g2
Ntp79
Rp80
(lp81
F0.512283028132677
aF0.1492318253473133
aF0.035534203431970335
abag0
(g43
g2
Ntp82
Rp83
(lp84
F-0.7054319914467646
aF0.7087651220338805
aF0.0038737904474442854
aF-0.0016434656430182005
abababag0
(g22
g2
Ntp85
Rp86
(lp87
g0
(g26
g2
Ntp88
Rp89
(lp90
I0
ag0
(g30
g2
Ntp91
Rp92
(lp93
I0
aI0
abaS'panda_link0'
p94
abag0
(g35
g2
Ntp95
Rp96
(lp97
g0
(g39
g2
Ntp98
Rp99
(lp100
F0.4340239876172547
aF-0.018694378705386674
aF0.36310452212031397
abag0
(g43
g2
Ntp101
Rp102
(lp103
F0.9996651157292086
aF-0.021109210280240997
aF-0.014510167637759988
aF-0.003675958456885042
abababasS'gripper_state_list'
p104
(lp105
g0
(cpanda_eup.panda_primitive
GripperState
p106
g2
Ntp107
Rp108
(dp109
S'width'
p110
F0.08
sS'force'
p111
F0.0
sbasS'primitives'
p112
(lp113
g0
(g8
g2
Ntp114
Rp115
(dp116
S'status'
p117
cpanda_eup.panda_primitive
PandaPrimitiveStatus
p118
(I1
tp119
Rp120
sS'revertible'
p121
I01
sg18
S'A Move to End-Effector primitive'
p122
sS'starting_arm_state_index'
p123
I0
sS'parameters_with_effects_on_robot_state'
p124
(lp125
S'pose'
p126
asS'expected_container'
p127
cpanda_pbd.msg._MoveToEEGoal
MoveToEEGoal
p128
sS'gui_tunable_parameter_strict_ranges'
p129
(dp130
S'position_speed'
p131
(lp132
F0.01
aF0.35
assS'container_update_history'
p133
(lp134
g0
(g128
g2
Ntp135
Rp136
(lp137
g0
(g22
g2
Ntp138
Rp139
(lp140
g0
(g26
g2
Ntp141
Rp142
(lp143
I0
ag0
(g30
g2
Ntp144
Rp145
(lp146
I0
aI0
abag56
abag0
(g35
g2
Ntp147
Rp148
(lp149
g0
(g39
g2
Ntp150
Rp151
(lp152
F0.5294752097753854
aF-0.23891993409430162
aF0.02570893459679896
abag0
(g43
g2
Ntp153
Rp154
(lp155
F-0.704688659619377
aF0.7085322142558269
aF-0.0335033762754408
aF-0.016538383951495636
abababaF0.07
aF-1.0
abag0
(g128
g2
Ntp156
Rp157
(lp158
g0
(g22
g2
Ntp159
Rp160
(lp161
g0
(g26
g2
Ntp162
Rp163
(lp164
I0
ag0
(g30
g2
Ntp165
Rp166
(lp167
I0
aI0
abag56
abag0
(g35
g2
Ntp168
Rp169
(lp170
g0
(g39
g2
Ntp171
Rp172
(lp173
F0.5294752097753854
aF-0.23891993409430162
aF0.02570893459679896
abag0
(g43
g2
Ntp174
Rp175
(lp176
F-0.704688659619377
aF0.7085322142558269
aF-0.0335033762754408
aF-0.016538383951495636
abababaF0.13440501602897725
aF-1.0
abag0
(g128
g2
Ntp177
Rp178
(lp179
g0
(g22
g2
Ntp180
Rp181
(lp182
g0
(g26
g2
Ntp183
Rp184
(lp185
I0
ag0
(g30
g2
Ntp186
Rp187
(lp188
I0
aI0
abag56
abag0
(g35
g2
Ntp189
Rp190
(lp191
g0
(g39
g2
Ntp192
Rp193
(lp194
F0.5294752097753854
aF-0.23891993409430162
aF0.02570893459679896
abag0
(g43
g2
Ntp195
Rp196
(lp197
F-0.704688659619377
aF0.7085322142558269
aF-0.0335033762754408
aF-0.016538383951495636
abababaF0.0508
aF-1.0
abag0
(g128
g2
Ntp198
Rp199
(lp200
g0
(g22
g2
Ntp201
Rp202
(lp203
g0
(g26
g2
Ntp204
Rp205
(lp206
I0
ag0
(g30
g2
Ntp207
Rp208
(lp209
I0
aI0
abag56
abag0
(g35
g2
Ntp210
Rp211
(lp212
g0
(g39
g2
Ntp213
Rp214
(lp215
F0.5294752097753854
aF-0.23891993409430162
aF0.02570893459679896
abag0
(g43
g2
Ntp216
Rp217
(lp218
F-0.704688659619377
aF0.7085322142558269
aF-0.0335033762754408
aF-0.016538383951495636
abababaF0.1936
aF-1.0
abasS'starting_gripper_state_index'
p219
I0
sS'parameters_update_history'
p220
(dp221
S'position_speed'
p222
(lp223
F0.07
aF0.13440501602897725
aF0.0508
aF0.1936
asS'rotation_speed'
p224
(lp225
F-1.0
asg126
(lp226
g0
(g22
g2
Ntp227
Rp228
(lp229
g0
(g26
g2
Ntp230
Rp231
(lp232
I0
ag0
(g30
g2
Ntp233
Rp234
(lp235
I0
aI0
abag56
abag0
(g35
g2
Ntp236
Rp237
(lp238
g0
(g39
g2
Ntp239
Rp240
(lp241
F0.5294752097753854
aF-0.23891993409430162
aF0.02570893459679896
abag0
(g43
g2
Ntp242
Rp243
(lp244
F-0.704688659619377
aF0.7085322142558269
aF-0.0335033762754408
aF-0.016538383951495636
abababassS'parameter_container'
p245
g0
(g128
g2
Ntp246
Rp247
(lp248
g48
aF0.1936
aF-1.0
absbag0
(g10
g2
Ntp249
Rp250
(dp251
g117
g120
sg121
I01
sg18
S'A Move to Contact primitive'
p252
sg123
I1
sg124
(lp253
g126
aS'force_threshold'
p254
aS'torque_threshold'
p255
asg127
cpanda_pbd.msg._MoveToContactGoal
MoveToContactGoal
p256
sg129
(dp257
S'force_threshold'
p258
(lp259
F5.0
aF20.0
asg131
(lp260
F0.01
aF0.25
assg133
(lp261
g0
(g256
g2
Ntp262
Rp263
(lp264
g0
(g22
g2
Ntp265
Rp266
(lp267
g0
(g26
g2
Ntp268
Rp269
(lp270
I0
ag0
(g30
g2
Ntp271
Rp272
(lp273
I0
aI0
abag75
abag0
(g35
g2
Ntp274
Rp275
(lp276
g0
(g39
g2
Ntp277
Rp278
(lp279
F0.512283028132677
aF0.1492318253473133
aF0.035534203431970335
abag0
(g43
g2
Ntp280
Rp281
(lp282
F-0.7054319914467646
aF0.7087651220338805
aF0.0038737904474442854
aF-0.0016434656430182005
abababaF0.07
aF-1.0
aF10.0
aF10.0
abag0
(g256
g2
Ntp283
Rp284
(lp285
g0
(g22
g2
Ntp286
Rp287
(lp288
g0
(g26
g2
Ntp289
Rp290
(lp291
I0
ag0
(g30
g2
Ntp292
Rp293
(lp294
I0
aI0
abag75
abag0
(g35
g2
Ntp295
Rp296
(lp297
g0
(g39
g2
Ntp298
Rp299
(lp300
F0.512283028132677
aF0.1492318253473133
aF0.035534203431970335
abag0
(g43
g2
Ntp301
Rp302
(lp303
F-0.7054319914467646
aF0.7087651220338805
aF0.0038737904474442854
aF-0.0016434656430182005
abababaF0.10072991345557347
aF-1.0
aF10.0
aF10.0
abag0
(g256
g2
Ntp304
Rp305
(lp306
g0
(g22
g2
Ntp307
Rp308
(lp309
g0
(g26
g2
Ntp310
Rp311
(lp312
I0
ag0
(g30
g2
Ntp313
Rp314
(lp315
I0
aI0
abag75
abag0
(g35
g2
Ntp316
Rp317
(lp318
g0
(g39
g2
Ntp319
Rp320
(lp321
F0.512283028132677
aF0.1492318253473133
aF0.035534203431970335
abag0
(g43
g2
Ntp322
Rp323
(lp324
F-0.7054319914467646
aF0.7087651220338805
aF0.0038737904474442854
aF-0.0016434656430182005
abababaF0.10072991345557347
aF-1.0
aF17.04712360305826
aF10.0
abasg219
I0
sg220
(dp325
g254
(lp326
F10.0
aF17.04712360305826
asg222
(lp327
F0.07
aF0.10072991345557347
asg224
(lp328
F-1.0
asg255
(lp329
F10.0
asg126
(lp330
g0
(g22
g2
Ntp331
Rp332
(lp333
g0
(g26
g2
Ntp334
Rp335
(lp336
I0
ag0
(g30
g2
Ntp337
Rp338
(lp339
I0
aI0
abag75
abag0
(g35
g2
Ntp340
Rp341
(lp342
g0
(g39
g2
Ntp343
Rp344
(lp345
F0.512283028132677
aF0.1492318253473133
aF0.035534203431970335
abag0
(g43
g2
Ntp346
Rp347
(lp348
F-0.7054319914467646
aF0.7087651220338805
aF0.0038737904474442854
aF-0.0016434656430182005
abababassg245
g0
(g256
g2
Ntp349
Rp350
(lp351
g67
aF0.10072991345557347
aF-1.0
aF17.04712360305826
aF10.0
absbag0
(g8
g2
Ntp352
Rp353
(dp354
g117
g120
sg121
I01
sg18
g122
sg123
I2
sg124
(lp355
g126
asg127
g128
sg129
g130
sg133
(lp356
g0
(g128
g2
Ntp357
Rp358
(lp359
g0
(g22
g2
Ntp360
Rp361
(lp362
g0
(g26
g2
Ntp363
Rp364
(lp365
I0
ag0
(g30
g2
Ntp366
Rp367
(lp368
I0
aI0
abag94
abag0
(g35
g2
Ntp369
Rp370
(lp371
g0
(g39
g2
Ntp372
Rp373
(lp374
F0.4340239876172547
aF-0.018694378705386674
aF0.36310452212031397
abag0
(g43
g2
Ntp375
Rp376
(lp377
F0.9996651157292086
aF-0.021109210280240997
aF-0.014510167637759988
aF-0.003675958456885042
abababaF0.07
aF-1.0
abag0
(g128
g2
Ntp378
Rp379
(lp380
g0
(g22
g2
Ntp381
Rp382
(lp383
g0
(g26
g2
Ntp384
Rp385
(lp386
I0
ag0
(g30
g2
Ntp387
Rp388
(lp389
I0
aI0
abag94
abag0
(g35
g2
Ntp390
Rp391
(lp392
g0
(g39
g2
Ntp393
Rp394
(lp395
F0.4340239876172547
aF-0.018694378705386674
aF0.36310452212031397
abag0
(g43
g2
Ntp396
Rp397
(lp398
F0.9996651157292086
aF-0.021109210280240997
aF-0.014510167637759988
aF-0.003675958456885042
abababaF0.13397740985930667
aF-1.0
abag0
(g128
g2
Ntp399
Rp400
(lp401
g0
(g22
g2
Ntp402
Rp403
(lp404
g0
(g26
g2
Ntp405
Rp406
(lp407
I0
ag0
(g30
g2
Ntp408
Rp409
(lp410
I0
aI0
abag94
abag0
(g35
g2
Ntp411
Rp412
(lp413
g0
(g39
g2
Ntp414
Rp415
(lp416
F0.4340239876172547
aF-0.018694378705386674
aF0.36310452212031397
abag0
(g43
g2
Ntp417
Rp418
(lp419
F0.9996651157292086
aF-0.021109210280240997
aF-0.014510167637759988
aF-0.003675958456885042
abababaF0.11199999999999999
aF-1.0
abasg219
I0
sg220
(dp420
g222
(lp421
F0.07
aF0.13397740985930667
aF0.11199999999999999
asg224
(lp422
F-1.0
asg126
(lp423
g0
(g22
g2
Ntp424
Rp425
(lp426
g0
(g26
g2
Ntp427
Rp428
(lp429
I0
ag0
(g30
g2
Ntp430
Rp431
(lp432
I0
aI0
abag94
abag0
(g35
g2
Ntp433
Rp434
(lp435
g0
(g39
g2
Ntp436
Rp437
(lp438
F0.4340239876172547
aF-0.018694378705386674
aF0.36310452212031397
abag0
(g43
g2
Ntp439
Rp440
(lp441
F0.9996651157292086
aF-0.021109210280240997
aF-0.014510167637759988
aF-0.003675958456885042
abababassg245
g0
(g128
g2
Ntp442
Rp443
(lp444
g86
aF0.11199999999999999
aF-1.0
absbasS'name'
p445
S'A Panda Program'
p446
sb.