ccopy_reg
_reconstructor
p0
(cpanda_eup.panda_primitive
PandaProgram
p1
c__builtin__
object
p2
Ntp3
Rp4
(dp5
S'effect_of_primitive'
p6
(dp7
cpanda_eup.panda_primitive
MoveToContact
p8
(lp9
I01
aI00
ascpanda_eup.panda_primitive
MoveToEE
p10
(lp11
I01
aI00
ascpanda_eup.panda_primitive
UserSync
p12
(lp13
I00
aI00
ascpanda_eup.panda_primitive
ApplyForceFingers
p14
(lp15
I00
aI01
ascpanda_eup.panda_primitive
MoveFingers
p16
(lp17
I00
aI01
assS'description'
p18
S'Empty Description'
p19
sS'arm_state_list'
p20
(lp21
g0
(cgeometry_msgs.msg._PoseStamped
PoseStamped
p22
g2
Ntp23
Rp24
(lp25
g0
(cstd_msgs.msg._Header
Header
p26
g2
Ntp27
Rp28
(lp29
I0
ag0
(cgenpy.rostime
Time
p30
g2
Ntp31
Rp32
(lp33
I0
aI0
abaS'panda_link0'
p34
abag0
(cgeometry_msgs.msg._Pose
Pose
p35
g2
Ntp36
Rp37
(lp38
g0
(cgeometry_msgs.msg._Point
Point
p39
g2
Ntp40
Rp41
(lp42
F0.4833974233623748
aF0.007318751177980708
aF0.3904495689279949
abag0
(cgeometry_msgs.msg._Quaternion
Quaternion
p43
g2
Ntp44
Rp45
(lp46
F0.9993500431690824
aF-0.014042189921340717
aF-0.02007113406023331
aF-0.026447262574839425
abababag0
(g22
g2
Ntp47
Rp48
(lp49
g0
(g26
g2
Ntp50
Rp51
(lp52
I0
ag0
(g30
g2
Ntp53
Rp54
(lp55
I0
aI0
abaS'panda_link0'
p56
abag0
(g35
g2
Ntp57
Rp58
(lp59
g0
(g39
g2
Ntp60
Rp61
(lp62
F0.4949559239114005
aF-0.0013884726930201985
aF0.025114567902832563
abag0
(g43
g2
Ntp63
Rp64
(lp65
F0.9982230162112198
aF-0.021043892698653924
aF0.011379033996409393
aF-0.05457547133622368
abababag0
(g22
g2
Ntp66
Rp67
(lp68
g0
(g26
g2
Ntp69
Rp70
(lp71
I0
ag0
(g30
g2
Ntp72
Rp73
(lp74
I0
aI0
abaS'panda_link0'
p75
abag0
(g35
g2
Ntp76
Rp77
(lp78
g0
(g39
g2
Ntp79
Rp80
(lp81
F0.6404225030201885
aF-0.21899515188976365
aF0.31947401035356376
abag0
(g43
g2
Ntp82
Rp83
(lp84
F0.8476936441278499
aF-0.15503337362532482
aF0.5028616917286283
aF0.06715845262823286
abababag0
(g22
g2
Ntp85
Rp86
(lp87
g0
(g26
g2
Ntp88
Rp89
(lp90
I0
ag0
(g30
g2
Ntp91
Rp92
(lp93
I0
aI0
abaS'panda_link0'
p94
abag0
(g35
g2
Ntp95
Rp96
(lp97
g0
(g39
g2
Ntp98
Rp99
(lp100
F0.48697273191184176
aF-0.0003249795766055996
aF0.3672047165651558
abag0
(g43
g2
Ntp101
Rp102
(lp103
F0.9986485219265587
aF-0.028677903984510297
aF0.042164274523526495
aF-0.010043974853580964
abababasS'gripper_state_list'
p104
(lp105
g0
(cpanda_eup.panda_primitive
GripperState
p106
g2
Ntp107
Rp108
(dp109
S'width'
p110
F0.08
sS'force'
p111
F0.0
sbag0
(g106
g2
Ntp112
Rp113
(dp114
g110
F0.03176756203174591
sg111
F20.0
sbag0
(g106
g2
Ntp115
Rp116
(dp117
g110
F0.05422227829694748
sg111
F0.0
sbasS'primitives'
p118
(lp119
g0
(g8
g2
Ntp120
Rp121
(dp122
S'status'
p123
cpanda_eup.panda_primitive
PandaPrimitiveStatus
p124
(I5
tp125
Rp126
sS'revertible'
p127
I01
sg18
S'A Move to Contact primitive'
p128
sS'starting_arm_state_index'
p129
I0
sS'parameters_with_effects_on_robot_state'
p130
(lp131
S'pose'
p132
aS'force_threshold'
p133
aS'torque_threshold'
p134
asS'expected_container'
p135
cpanda_pbd.msg._MoveToContactGoal
MoveToContactGoal
p136
sS'gui_tunable_parameter_strict_ranges'
p137
(dp138
S'force_threshold'
p139
(lp140
F5.0
aF20.0
asS'position_speed'
p141
(lp142
F0.01
aF0.25
assS'container_update_history'
p143
(lp144
g0
(g136
g2
Ntp145
Rp146
(lp147
g0
(g22
g2
Ntp148
Rp149
(lp150
g0
(g26
g2
Ntp151
Rp152
(lp153
I0
ag0
(g30
g2
Ntp154
Rp155
(lp156
I0
aI0
abaS'panda_link0'
p157
abag0
(g35
g2
Ntp158
Rp159
(lp160
g0
(g39
g2
Ntp161
Rp162
(lp163
F0.5069132714754178
aF0.004873624607929537
aF0.027077189596690976
abag0
(g43
g2
Ntp164
Rp165
(lp166
F0.9995143312059889
aF-0.02583181235790082
aF0.016166211683465017
aF-0.006517114695673689
abababaF0.07
aF-1.0
aF10.0
aF10.0
abag0
(g136
g2
Ntp167
Rp168
(lp169
g0
(g22
g2
Ntp170
Rp171
(lp172
g0
(g26
g2
Ntp173
Rp174
(lp175
I0
ag0
(g30
g2
Ntp176
Rp177
(lp178
I0
aI0
abag157
abag0
(g35
g2
Ntp179
Rp180
(lp181
g0
(g39
g2
Ntp182
Rp183
(lp184
F0.5069132714754178
aF0.004873624607929537
aF0.027077189596690976
abag0
(g43
g2
Ntp185
Rp186
(lp187
F0.9995143312059889
aF-0.02583181235790082
aF0.016166211683465017
aF-0.006517114695673689
abababaF0.03573770885840839
aF-1.0
aF10.0
aF10.0
abag0
(g136
g2
Ntp188
Rp189
(lp190
g0
(g22
g2
Ntp191
Rp192
(lp193
g0
(g26
g2
Ntp194
Rp195
(lp196
I0
ag0
(g30
g2
Ntp197
Rp198
(lp199
I0
aI0
abag157
abag0
(g35
g2
Ntp200
Rp201
(lp202
g0
(g39
g2
Ntp203
Rp204
(lp205
F0.5069132714754178
aF0.004873624607929537
aF0.027077189596690976
abag0
(g43
g2
Ntp206
Rp207
(lp208
F0.9995143312059889
aF-0.02583181235790082
aF0.016166211683465017
aF-0.006517114695673689
abababaF0.03573770885840839
aF-1.0
aF7.161317783319857
aF10.0
abag0
(g136
g2
Ntp209
Rp210
(lp211
g0
(g22
g2
Ntp212
Rp213
(lp214
g0
(g26
g2
Ntp215
Rp216
(lp217
I0
ag0
(g30
g2
Ntp218
Rp219
(lp220
I0
aI0
abag157
abag0
(g35
g2
Ntp221
Rp222
(lp223
g0
(g39
g2
Ntp224
Rp225
(lp226
F0.5069132714754178
aF0.004873624607929537
aF0.027077189596690976
abag0
(g43
g2
Ntp227
Rp228
(lp229
F0.9995143312059889
aF-0.02583181235790082
aF0.016166211683465017
aF-0.006517114695673689
abababaF0.08199999999999999
aF-1.0
aF7.161317783319857
aF10.0
abag0
(g136
g2
Ntp230
Rp231
(lp232
g0
(g22
g2
Ntp233
Rp234
(lp235
g0
(g26
g2
Ntp236
Rp237
(lp238
I0
ag0
(g30
g2
Ntp239
Rp240
(lp241
I0
aI0
abag157
abag0
(g35
g2
Ntp242
Rp243
(lp244
g0
(g39
g2
Ntp245
Rp246
(lp247
F0.5069132714754178
aF0.004873624607929537
aF0.027077189596690976
abag0
(g43
g2
Ntp248
Rp249
(lp250
F0.9995143312059889
aF-0.02583181235790082
aF0.016166211683465017
aF-0.006517114695673689
abababaF0.08199999999999999
aF-1.0
aF6.8
aF10.0
abag0
(g136
g2
Ntp251
Rp252
(lp253
g0
(g22
g2
Ntp254
Rp255
(lp256
g0
(g26
g2
Ntp257
Rp258
(lp259
I0
ag0
(g30
g2
Ntp260
Rp261
(lp262
I0
aI0
abag157
abag0
(g35
g2
Ntp263
Rp264
(lp265
g0
(g39
g2
Ntp266
Rp267
(lp268
F0.5069132714754178
aF0.004873624607929537
aF0.027077189596690976
abag0
(g43
g2
Ntp269
Rp270
(lp271
F0.9995143312059889
aF-0.02583181235790082
aF0.016166211683465017
aF-0.006517114695673689
abababaF0.09159999999999999
aF-1.0
aF6.8
aF10.0
abag0
(g136
g2
Ntp272
Rp273
(lp274
g0
(g22
g2
Ntp275
Rp276
(lp277
g0
(g26
g2
Ntp278
Rp279
(lp280
I0
ag0
(g30
g2
Ntp281
Rp282
(lp283
I0
aI0
abag157
abag0
(g35
g2
Ntp284
Rp285
(lp286
g0
(g39
g2
Ntp287
Rp288
(lp289
F0.5069132714754178
aF0.004873624607929537
aF0.027077189596690976
abag0
(g43
g2
Ntp290
Rp291
(lp292
F0.9995143312059889
aF-0.02583181235790082
aF0.016166211683465017
aF-0.006517114695673689
abababaF0.09159999999999999
aF-1.0
aF7.4
aF10.0
abag0
(g136
g2
Ntp293
Rp294
(lp295
g0
(g22
g2
Ntp296
Rp297
(lp298
g0
(g26
g2
Ntp299
Rp300
(lp301
I0
ag0
(g30
g2
Ntp302
Rp303
(lp304
I0
aI0
abag157
abag0
(g35
g2
Ntp305
Rp306
(lp307
g0
(g39
g2
Ntp308
Rp309
(lp310
F0.5069132714754178
aF0.004873624607929537
aF0.027077189596690976
abag0
(g43
g2
Ntp311
Rp312
(lp313
F0.9995143312059889
aF-0.02583181235790082
aF0.016166211683465017
aF-0.006517114695673689
abababaF0.12039999999999998
aF-1.0
aF7.4
aF10.0
abag0
(g136
g2
Ntp314
Rp315
(lp316
g0
(g22
g2
Ntp317
Rp318
(lp319
g0
(g26
g2
Ntp320
Rp321
(lp322
I0
ag0
(g30
g2
Ntp323
Rp324
(lp325
I0
aI0
abag157
abag0
(g35
g2
Ntp326
Rp327
(lp328
g0
(g39
g2
Ntp329
Rp330
(lp331
F0.5069132714754178
aF0.004873624607929537
aF0.027077189596690976
abag0
(g43
g2
Ntp332
Rp333
(lp334
F0.9995143312059889
aF-0.02583181235790082
aF0.016166211683465017
aF-0.006517114695673689
abababaF0.12039999999999998
aF-1.0
aF7.699999999999999
aF10.0
abag0
(g136
g2
Ntp335
Rp336
(lp337
g0
(g22
g2
Ntp338
Rp339
(lp340
g0
(g26
g2
Ntp341
Rp342
(lp343
I0
ag0
(g30
g2
Ntp344
Rp345
(lp346
I0
aI0
abag157
abag0
(g35
g2
Ntp347
Rp348
(lp349
g0
(g39
g2
Ntp350
Rp351
(lp352
F0.5069132714754178
aF0.004873624607929537
aF0.027077189596690976
abag0
(g43
g2
Ntp353
Rp354
(lp355
F0.9995143312059889
aF-0.02583181235790082
aF0.016166211683465017
aF-0.006517114695673689
abababaF0.12039999999999998
aF-1.0
aF6.8
aF10.0
abag0
(g136
g2
Ntp356
Rp357
(lp358
g0
(g22
g2
Ntp359
Rp360
(lp361
g0
(g26
g2
Ntp362
Rp363
(lp364
I0
ag0
(g30
g2
Ntp365
Rp366
(lp367
I0
aI0
abag157
abag0
(g35
g2
Ntp368
Rp369
(lp370
g0
(g39
g2
Ntp371
Rp372
(lp373
F0.5069132714754178
aF0.004873624607929537
aF0.027077189596690976
abag0
(g43
g2
Ntp374
Rp375
(lp376
F0.9995143312059889
aF-0.02583181235790082
aF0.016166211683465017
aF-0.006517114695673689
abababaF0.154
aF-1.0
aF6.8
aF10.0
abag0
(g136
g2
Ntp377
Rp378
(lp379
g0
(g22
g2
Ntp380
Rp381
(lp382
g0
(g26
g2
Ntp383
Rp384
(lp385
I0
ag0
(g30
g2
Ntp386
Rp387
(lp388
I0
aI0
abag157
abag0
(g35
g2
Ntp389
Rp390
(lp391
g0
(g39
g2
Ntp392
Rp393
(lp394
F0.5069132714754178
aF0.004873624607929537
aF0.027077189596690976
abag0
(g43
g2
Ntp395
Rp396
(lp397
F0.9995143312059889
aF-0.02583181235790082
aF0.016166211683465017
aF-0.006517114695673689
abababaF0.154
aF-1.0
aF6.2
aF10.0
abag0
(g136
g2
Ntp398
Rp399
(lp400
g0
(g22
g2
Ntp401
Rp402
(lp403
g0
(g26
g2
Ntp404
Rp405
(lp406
I0
ag0
(g30
g2
Ntp407
Rp408
(lp409
I0
aI0
abag157
abag0
(g35
g2
Ntp410
Rp411
(lp412
g0
(g39
g2
Ntp413
Rp414
(lp415
F0.5069132714754178
aF0.004873624607929537
aF0.027077189596690976
abag0
(g43
g2
Ntp416
Rp417
(lp418
F0.9995143312059889
aF-0.02583181235790082
aF0.016166211683465017
aF-0.006517114695673689
abababaF0.12039999999999998
aF-1.0
aF6.2
aF10.0
abag0
(g136
g2
Ntp419
Rp420
(lp421
g0
(g22
g2
Ntp422
Rp423
(lp424
g0
(g26
g2
Ntp425
Rp426
(lp427
I0
ag0
(g30
g2
Ntp428
Rp429
(lp430
I0
aI0
abag157
abag0
(g35
g2
Ntp431
Rp432
(lp433
g0
(g39
g2
Ntp434
Rp435
(lp436
F0.5069132714754178
aF0.004873624607929537
aF0.027077189596690976
abag0
(g43
g2
Ntp437
Rp438
(lp439
F0.9995143312059889
aF-0.02583181235790082
aF0.016166211683465017
aF-0.006517114695673689
abababaF0.12039999999999998
aF-1.0
aF5.6
aF10.0
abag0
(g136
g2
Ntp440
Rp441
(lp442
g0
(g22
g2
Ntp443
Rp444
(lp445
g0
(g26
g2
Ntp446
Rp447
(lp448
I0
ag0
(g30
g2
Ntp449
Rp450
(lp451
I0
aI0
abag157
abag0
(g35
g2
Ntp452
Rp453
(lp454
g0
(g39
g2
Ntp455
Rp456
(lp457
F0.5069132714754178
aF0.004873624607929537
aF0.027077189596690976
abag0
(g43
g2
Ntp458
Rp459
(lp460
F0.9995143312059889
aF-0.02583181235790082
aF0.016166211683465017
aF-0.006517114695673689
abababaF0.10599999999999998
aF-1.0
aF5.6
aF10.0
abag0
(g136
g2
Ntp461
Rp462
(lp463
g0
(g22
g2
Ntp464
Rp465
(lp466
g0
(g26
g2
Ntp467
Rp468
(lp469
I0
ag0
(g30
g2
Ntp470
Rp471
(lp472
I0
aI0
abag157
abag0
(g35
g2
Ntp473
Rp474
(lp475
g0
(g39
g2
Ntp476
Rp477
(lp478
F0.5069132714754178
aF0.004873624607929537
aF0.027077189596690976
abag0
(g43
g2
Ntp479
Rp480
(lp481
F0.9995143312059889
aF-0.02583181235790082
aF0.016166211683465017
aF-0.006517114695673689
abababaF0.10599999999999998
aF-1.0
aF7.1
aF10.0
abag0
(g136
g2
Ntp482
Rp483
(lp484
g0
(g22
g2
Ntp485
Rp486
(lp487
g0
(g26
g2
Ntp488
Rp489
(lp490
I0
ag0
(g30
g2
Ntp491
Rp492
(lp493
I0
aI0
abag157
abag0
(g35
g2
Ntp494
Rp495
(lp496
g0
(g39
g2
Ntp497
Rp498
(lp499
F0.5069132714754178
aF0.004873624607929537
aF0.027077189596690976
abag0
(g43
g2
Ntp500
Rp501
(lp502
F0.9995143312059889
aF-0.02583181235790082
aF0.016166211683465017
aF-0.006517114695673689
abababaF0.1636
aF-1.0
aF7.1
aF10.0
abag0
(g136
g2
Ntp503
Rp504
(lp505
g0
(g22
g2
Ntp506
Rp507
(lp508
g0
(g26
g2
Ntp509
Rp510
(lp511
I0
ag0
(g30
g2
Ntp512
Rp513
(lp514
I0
aI0
abag157
abag0
(g35
g2
Ntp515
Rp516
(lp517
g0
(g39
g2
Ntp518
Rp519
(lp520
F0.5069132714754178
aF0.004873624607929537
aF0.027077189596690976
abag0
(g43
g2
Ntp521
Rp522
(lp523
F0.9995143312059889
aF-0.02583181235790082
aF0.016166211683465017
aF-0.006517114695673689
abababaF0.1972
aF-1.0
aF7.1
aF10.0
abag0
(g136
g2
Ntp524
Rp525
(lp526
g0
(g22
g2
Ntp527
Rp528
(lp529
g0
(g26
g2
Ntp530
Rp531
(lp532
I0
ag0
(g30
g2
Ntp533
Rp534
(lp535
I0
aI0
abag157
abag0
(g35
g2
Ntp536
Rp537
(lp538
g0
(g39
g2
Ntp539
Rp540
(lp541
F0.5069132714754178
aF0.004873624607929537
aF0.027077189596690976
abag0
(g43
g2
Ntp542
Rp543
(lp544
F0.9995143312059889
aF-0.02583181235790082
aF0.016166211683465017
aF-0.006517114695673689
abababaF0.1972
aF-1.0
aF5.6
aF10.0
abag0
(g136
g2
Ntp545
Rp546
(lp547
g0
(g22
g2
Ntp548
Rp549
(lp550
g0
(g26
g2
Ntp551
Rp552
(lp553
I0
ag0
(g30
g2
Ntp554
Rp555
(lp556
I0
aI0
abag157
abag0
(g35
g2
Ntp557
Rp558
(lp559
g0
(g39
g2
Ntp560
Rp561
(lp562
F0.5069132714754178
aF0.004873624607929537
aF0.027077189596690976
abag0
(g43
g2
Ntp563
Rp564
(lp565
F0.9995143312059889
aF-0.02583181235790082
aF0.016166211683465017
aF-0.006517114695673689
abababaF0.1972
aF-1.0
aF8.0
aF10.0
abag0
(g136
g2
Ntp566
Rp567
(lp568
g0
(g22
g2
Ntp569
Rp570
(lp571
g0
(g26
g2
Ntp572
Rp573
(lp574
I0
ag0
(g30
g2
Ntp575
Rp576
(lp577
I0
aI0
abag157
abag0
(g35
g2
Ntp578
Rp579
(lp580
g0
(g39
g2
Ntp581
Rp582
(lp583
F0.5069132714754178
aF0.004873624607929537
aF0.027077189596690976
abag0
(g43
g2
Ntp584
Rp585
(lp586
F0.9995143312059889
aF-0.02583181235790082
aF0.016166211683465017
aF-0.006517114695673689
abababaF0.1972
aF-1.0
aF5.3
aF10.0
abag0
(g136
g2
Ntp587
Rp588
(lp589
g0
(g22
g2
Ntp590
Rp591
(lp592
g0
(g26
g2
Ntp593
Rp594
(lp595
I0
ag0
(g30
g2
Ntp596
Rp597
(lp598
I0
aI0
abag157
abag0
(g35
g2
Ntp599
Rp600
(lp601
g0
(g39
g2
Ntp602
Rp603
(lp604
F0.5069132714754178
aF0.004873624607929537
aF0.027077189596690976
abag0
(g43
g2
Ntp605
Rp606
(lp607
F0.9995143312059889
aF-0.02583181235790082
aF0.016166211683465017
aF-0.006517114695673689
abababaF0.178
aF-1.0
aF5.3
aF10.0
abag0
(g136
g2
Ntp608
Rp609
(lp610
g0
(g22
g2
Ntp611
Rp612
(lp613
g0
(g26
g2
Ntp614
Rp615
(lp616
I0
ag0
(g30
g2
Ntp617
Rp618
(lp619
I0
aI0
abag157
abag0
(g35
g2
Ntp620
Rp621
(lp622
g0
(g39
g2
Ntp623
Rp624
(lp625
F0.5069132714754178
aF0.004873624607929537
aF0.027077189596690976
abag0
(g43
g2
Ntp626
Rp627
(lp628
F0.9995143312059889
aF-0.02583181235790082
aF0.016166211683465017
aF-0.006517114695673689
abababaF0.178
aF-1.0
aF5.0
aF10.0
abasS'starting_gripper_state_index'
p629
I0
sS'parameters_update_history'
p630
(dp631
g133
(lp632
F10.0
aF7.161317783319857
aF6.8
aF7.4
aF7.699999999999999
aF6.8
aF6.2
aF5.6
aF7.1
aF5.6
aF8.0
aF5.3
aF5.0
asS'position_speed'
p633
(lp634
F0.07
aF0.03573770885840839
aF0.08199999999999999
aF0.09159999999999999
aF0.12039999999999998
aF0.154
aF0.12039999999999998
aF0.10599999999999998
aF0.1636
aF0.1972
aF0.178
asS'rotation_speed'
p635
(lp636
F-1.0
asg134
(lp637
F10.0
asg132
(lp638
g0
(g22
g2
Ntp639
Rp640
(lp641
g0
(g26
g2
Ntp642
Rp643
(lp644
I0
ag0
(g30
g2
Ntp645
Rp646
(lp647
I0
aI0
abag157
abag0
(g35
g2
Ntp648
Rp649
(lp650
g0
(g39
g2
Ntp651
Rp652
(lp653
F0.5069132714754178
aF0.004873624607929537
aF0.027077189596690976
abag0
(g43
g2
Ntp654
Rp655
(lp656
F0.9995143312059889
aF-0.02583181235790082
aF0.016166211683465017
aF-0.006517114695673689
abababassS'parameter_container'
p657
g0
(g136
g2
Ntp658
Rp659
(lp660
g0
(g22
g2
Ntp661
Rp662
(lp663
g0
(g26
g2
Ntp664
Rp665
(lp666
I0
ag0
(g30
g2
Ntp667
Rp668
(lp669
I0
aI0
abag157
abag0
(g35
g2
Ntp670
Rp671
(lp672
g0
(g39
g2
Ntp673
Rp674
(lp675
F0.5069132714754178
aF0.004873624607929537
aF0.027077189596690976
abag0
(g43
g2
Ntp676
Rp677
(lp678
F0.9995143312059889
aF-0.02583181235790082
aF0.016166211683465017
aF-0.006517114695673689
abababaF0.178
aF-1.0
aF5.0
aF10.0
absbag0
(g14
g2
Ntp679
Rp680
(dp681
g123
g124
(I0
tp682
Rp683
sg127
I01
sg18
S'A Apply Force (with) Fingers primitive'
p684
sg129
I1
sg130
(lp685
S'force'
p686
asg135
cpanda_pbd.srv._ApplyForceFingers
ApplyForceFingersRequest
p687
sg137
(dp688
g111
(lp689
F20.0
aF60.0
assg143
(lp690
g0
(g687
g2
Ntp691
Rp692
(lp693
F20.0
abag0
(g687
g2
Ntp694
Rp695
(lp696
F22.21213672539809
abag0
(g687
g2
Ntp697
Rp698
(lp699
F20.0
abasg629
I0
sg630
(dp700
g686
(lp701
F20.0
aF22.21213672539809
aF20.0
assg657
g0
(g687
g2
Ntp702
Rp703
(lp704
F20.0
absbag0
(g10
g2
Ntp705
Rp706
(dp707
g123
g683
sg127
I01
sg18
S'A Move to End-Effector primitive'
p708
sg129
I1
sg130
(lp709
g132
asg135
cpanda_pbd.msg._MoveToEEGoal
MoveToEEGoal
p710
sg137
(dp711
g141
(lp712
F0.01
aF0.35
assg143
(lp713
g0
(g710
g2
Ntp714
Rp715
(lp716
g0
(g22
g2
Ntp717
Rp718
(lp719
g0
(g26
g2
Ntp720
Rp721
(lp722
I0
ag0
(g30
g2
Ntp723
Rp724
(lp725
I0
aI0
abag75
abag0
(g35
g2
Ntp726
Rp727
(lp728
g0
(g39
g2
Ntp729
Rp730
(lp731
F0.6404225030201885
aF-0.21899515188976365
aF0.31947401035356376
abag0
(g43
g2
Ntp732
Rp733
(lp734
F0.8476936441278499
aF-0.15503337362532482
aF0.5028616917286283
aF0.06715845262823286
abababaF0.07
aF-1.0
abag0
(g710
g2
Ntp735
Rp736
(lp737
g0
(g22
g2
Ntp738
Rp739
(lp740
g0
(g26
g2
Ntp741
Rp742
(lp743
I0
ag0
(g30
g2
Ntp744
Rp745
(lp746
I0
aI0
abag75
abag0
(g35
g2
Ntp747
Rp748
(lp749
g0
(g39
g2
Ntp750
Rp751
(lp752
F0.6404225030201885
aF-0.21899515188976365
aF0.31947401035356376
abag0
(g43
g2
Ntp753
Rp754
(lp755
F0.8476936441278499
aF-0.15503337362532482
aF0.5028616917286283
aF0.06715845262823286
abababaF0.3029745133977149
aF-1.0
abag0
(g710
g2
Ntp756
Rp757
(lp758
g0
(g22
g2
Ntp759
Rp760
(lp761
g0
(g26
g2
Ntp762
Rp763
(lp764
I0
ag0
(g30
g2
Ntp765
Rp766
(lp767
I0
aI0
abag75
abag0
(g35
g2
Ntp768
Rp769
(lp770
g0
(g39
g2
Ntp771
Rp772
(lp773
F0.6404225030201885
aF-0.21899515188976365
aF0.31947401035356376
abag0
(g43
g2
Ntp774
Rp775
(lp776
F0.8476936441278499
aF-0.15503337362532482
aF0.5028616917286283
aF0.06715845262823286
abababaF0.3432
aF-1.0
abasg629
I1
sg630
(dp777
g633
(lp778
F0.07
aF0.3029745133977149
aF0.3432
asg635
(lp779
F-1.0
asg132
(lp780
g0
(g22
g2
Ntp781
Rp782
(lp783
g0
(g26
g2
Ntp784
Rp785
(lp786
I0
ag0
(g30
g2
Ntp787
Rp788
(lp789
I0
aI0
abag75
abag0
(g35
g2
Ntp790
Rp791
(lp792
g0
(g39
g2
Ntp793
Rp794
(lp795
F0.6404225030201885
aF-0.21899515188976365
aF0.31947401035356376
abag0
(g43
g2
Ntp796
Rp797
(lp798
F0.8476936441278499
aF-0.15503337362532482
aF0.5028616917286283
aF0.06715845262823286
abababassg657
g0
(g710
g2
Ntp799
Rp800
(lp801
g67
aF0.3432
aF-1.0
absbag0
(g12
g2
Ntp802
Rp803
(dp804
g123
g683
sg127
I01
sg18
S'A User Synchronization primitive'
p805
sg129
I2
sg130
(lp806
sg135
cpanda_pbd.msg._UserSyncGoal
UserSyncGoal
p807
sg137
(dp808
g139
(lp809
F5.0
aF30.0
assg143
(lp810
g0
(g807
g2
Ntp811
Rp812
(lp813
F10.0
abag0
(g807
g2
Ntp814
Rp815
(lp816
F14.22316583209063
abag0
(g807
g2
Ntp817
Rp818
(lp819
F9.0
abag0
(g807
g2
Ntp820
Rp821
(lp822
F8.0
abag0
(g807
g2
Ntp823
Rp824
(lp825
F6.0
abasg629
I1
sg630
(dp826
g133
(lp827
F10.0
aF14.22316583209063
aF9.0
aF8.0
aF6.0
assg657
g0
(g807
g2
Ntp828
Rp829
(lp830
F6.0
absbag0
(g16
g2
Ntp831
Rp832
(dp833
g123
g683
sg127
I01
sg18
S'A Move Fingers primitive'
p834
sg129
I2
sg130
(lp835
S'width'
p836
asg135
cpanda_pbd.srv._MoveFingers
MoveFingersRequest
p837
sg137
(dp838
g836
(lp839
F0.04758337885141373
aF0.08
assg143
(lp840
g0
(g837
g2
Ntp841
Rp842
(lp843
F0.04758337885141373
abag0
(g837
g2
Ntp844
Rp845
(lp846
F0.0615063287467696
abag0
(g837
g2
Ntp847
Rp848
(lp849
F0.0592
abag0
(g837
g2
Ntp850
Rp851
(lp852
F0.054400000000000004
abasg629
I1
sg630
(dp853
g836
(lp854
F0.04758337885141373
aF0.0615063287467696
aF0.0592
aF0.054400000000000004
assg657
g0
(g837
g2
Ntp855
Rp856
(lp857
F0.054400000000000004
absbag0
(g10
g2
Ntp858
Rp859
(dp860
g123
g683
sg127
I01
sg18
g708
sg129
I2
sg130
(lp861
g132
asg135
g710
sg137
g711
sg143
(lp862
g0
(g710
g2
Ntp863
Rp864
(lp865
g0
(g22
g2
Ntp866
Rp867
(lp868
g0
(g26
g2
Ntp869
Rp870
(lp871
I0
ag0
(g30
g2
Ntp872
Rp873
(lp874
I0
aI0
abag94
abag0
(g35
g2
Ntp875
Rp876
(lp877
g0
(g39
g2
Ntp878
Rp879
(lp880
F0.48697273191184176
aF-0.0003249795766055996
aF0.3672047165651558
abag0
(g43
g2
Ntp881
Rp882
(lp883
F0.9986485219265587
aF-0.028677903984510297
aF0.042164274523526495
aF-0.010043974853580964
abababaF0.07
aF-1.0
abag0
(g710
g2
Ntp884
Rp885
(lp886
g0
(g22
g2
Ntp887
Rp888
(lp889
g0
(g26
g2
Ntp890
Rp891
(lp892
I0
ag0
(g30
g2
Ntp893
Rp894
(lp895
I0
aI0
abag94
abag0
(g35
g2
Ntp896
Rp897
(lp898
g0
(g39
g2
Ntp899
Rp900
(lp901
F0.48697273191184176
aF-0.0003249795766055996
aF0.3672047165651558
abag0
(g43
g2
Ntp902
Rp903
(lp904
F0.9986485219265587
aF-0.028677903984510297
aF0.042164274523526495
aF-0.010043974853580964
abababaF0.06794721083437194
aF-1.0
abag0
(g710
g2
Ntp905
Rp906
(lp907
g0
(g22
g2
Ntp908
Rp909
(lp910
g0
(g26
g2
Ntp911
Rp912
(lp913
I0
ag0
(g30
g2
Ntp914
Rp915
(lp916
I0
aI0
abag94
abag0
(g35
g2
Ntp917
Rp918
(lp919
g0
(g39
g2
Ntp920
Rp921
(lp922
F0.48697273191184176
aF-0.0003249795766055996
aF0.3672047165651558
abag0
(g43
g2
Ntp923
Rp924
(lp925
F0.9986485219265587
aF-0.028677903984510297
aF0.042164274523526495
aF-0.010043974853580964
abababaF0.10519999999999999
aF-1.0
abag0
(g710
g2
Ntp926
Rp927
(lp928
g0
(g22
g2
Ntp929
Rp930
(lp931
g0
(g26
g2
Ntp932
Rp933
(lp934
I0
ag0
(g30
g2
Ntp935
Rp936
(lp937
I0
aI0
abag94
abag0
(g35
g2
Ntp938
Rp939
(lp940
g0
(g39
g2
Ntp941
Rp942
(lp943
F0.48697273191184176
aF-0.0003249795766055996
aF0.3672047165651558
abag0
(g43
g2
Ntp944
Rp945
(lp946
F0.9986485219265587
aF-0.028677903984510297
aF0.042164274523526495
aF-0.010043974853580964
abababaF0.1596
aF-1.0
abag0
(g710
g2
Ntp947
Rp948
(lp949
g0
(g22
g2
Ntp950
Rp951
(lp952
g0
(g26
g2
Ntp953
Rp954
(lp955
I0
ag0
(g30
g2
Ntp956
Rp957
(lp958
I0
aI0
abag94
abag0
(g35
g2
Ntp959
Rp960
(lp961
g0
(g39
g2
Ntp962
Rp963
(lp964
F0.48697273191184176
aF-0.0003249795766055996
aF0.3672047165651558
abag0
(g43
g2
Ntp965
Rp966
(lp967
F0.9986485219265587
aF-0.028677903984510297
aF0.042164274523526495
aF-0.010043974853580964
abababaF0.25479999999999997
aF-1.0
abasg629
I2
sg630
(dp968
g633
(lp969
F0.07
aF0.06794721083437194
aF0.10519999999999999
aF0.1596
aF0.25479999999999997
asg635
(lp970
F-1.0
asg132
(lp971
g0
(g22
g2
Ntp972
Rp973
(lp974
g0
(g26
g2
Ntp975
Rp976
(lp977
I0
ag0
(g30
g2
Ntp978
Rp979
(lp980
I0
aI0
abag94
abag0
(g35
g2
Ntp981
Rp982
(lp983
g0
(g39
g2
Ntp984
Rp985
(lp986
F0.48697273191184176
aF-0.0003249795766055996
aF0.3672047165651558
abag0
(g43
g2
Ntp987
Rp988
(lp989
F0.9986485219265587
aF-0.028677903984510297
aF0.042164274523526495
aF-0.010043974853580964
abababassg657
g0
(g710
g2
Ntp990
Rp991
(lp992
g86
aF0.25479999999999997
aF-1.0
absbasS'name'
p993
S'A Panda Program'
p994
sb.