ccopy_reg
_reconstructor
p0
(cpanda_eup.panda_primitive
PandaProgram
p1
c__builtin__
object
p2
Ntp3
Rp4
(dp5
S'effect_of_primitive'
p6
(dp7
cpanda_eup.panda_primitive
MoveToEE
p8
(lp9
I01
aI00
ascpanda_eup.panda_primitive
MoveFingers
p10
(lp11
I00
aI01
ascpanda_eup.panda_primitive
ApplyForceFingers
p12
(lp13
I00
aI01
ascpanda_eup.panda_primitive
UserSync
p14
(lp15
I00
aI00
ascpanda_eup.panda_primitive
MoveToContact
p16
(lp17
I01
aI00
assS'description'
p18
S'Empty Description'
p19
sS'arm_state_list'
p20
(lp21
g0
(cgeometry_msgs.msg._PoseStamped
PoseStamped
p22
g2
Ntp23
Rp24
(lp25
g0
(cstd_msgs.msg._Header
Header
p26
g2
Ntp27
Rp28
(lp29
I0
ag0
(cgenpy.rostime
Time
p30
g2
Ntp31
Rp32
(lp33
I0
aI0
abaS'panda_link0'
p34
abag0
(cgeometry_msgs.msg._Pose
Pose
p35
g2
Ntp36
Rp37
(lp38
g0
(cgeometry_msgs.msg._Point
Point
p39
g2
Ntp40
Rp41
(lp42
F0.5045138365062377
aF-0.265431521081101
aF0.4086585275481172
abag0
(cgeometry_msgs.msg._Quaternion
Quaternion
p43
g2
Ntp44
Rp45
(lp46
F0.9995540503376575
aF-0.02962858766662235
aF0.00040849401323953287
aF-0.003698699650716961
abababag0
(g22
g2
Ntp47
Rp48
(lp49
g0
(g26
g2
Ntp50
Rp51
(lp52
I0
ag0
(g30
g2
Ntp53
Rp54
(lp55
I0
aI0
abaS'panda_link0'
p56
abag0
(g35
g2
Ntp57
Rp58
(lp59
g0
(g39
g2
Ntp60
Rp61
(lp62
F0.5294752097753854
aF-0.23891993409430162
aF0.02570893459679896
abag0
(g43
g2
Ntp63
Rp64
(lp65
F-0.704688659619377
aF0.7085322142558269
aF-0.0335033762754408
aF-0.016538383951495636
abababag0
(g22
g2
Ntp66
Rp67
(lp68
g0
(g26
g2
Ntp69
Rp70
(lp71
I0
ag0
(g30
g2
Ntp72
Rp73
(lp74
I0
aI0
abaS'panda_link0'
p75
abag0
(g35
g2
Ntp76
Rp77
(lp78
g0
(g39
g2
Ntp79
Rp80
(lp81
F0.5077529860681887
aF0.1476229578132219
aF0.03371202925888245
abag0
(g43
g2
Ntp82
Rp83
(lp84
F0.7082690053623087
aF-0.7057137705278761
aF-0.010132642071275268
aF-0.014846538151012894
abababag0
(g22
g2
Ntp85
Rp86
(lp87
g0
(g26
g2
Ntp88
Rp89
(lp90
I0
ag0
(g30
g2
Ntp91
Rp92
(lp93
I0
aI0
abaS'panda_link0'
p94
abag0
(g35
g2
Ntp95
Rp96
(lp97
g0
(g39
g2
Ntp98
Rp99
(lp100
F0.4340239876172547
aF-0.018694378705386674
aF0.36310452212031397
abag0
(g43
g2
Ntp101
Rp102
(lp103
F0.9996651157292086
aF-0.021109210280240997
aF-0.014510167637759988
aF-0.003675958456885042
abababasS'gripper_state_list'
p104
(lp105
g0
(cpanda_eup.panda_primitive
GripperState
p106
g2
Ntp107
Rp108
(dp109
S'width'
p110
F0.08
sS'force'
p111
F0.0
sbasS'primitives'
p112
(lp113
g0
(g8
g2
Ntp114
Rp115
(dp116
S'status'
p117
cpanda_eup.panda_primitive
PandaPrimitiveStatus
p118
(I1
tp119
Rp120
sS'revertible'
p121
I01
sg18
S'A Move to End-Effector primitive'
p122
sS'starting_arm_state_index'
p123
I0
sS'parameters_with_effects_on_robot_state'
p124
(lp125
S'pose'
p126
asS'expected_container'
p127
cpanda_pbd.msg._MoveToEEGoal
MoveToEEGoal
p128
sS'gui_tunable_parameter_strict_ranges'
p129
(dp130
S'position_speed'
p131
(lp132
F0.01
aF0.35
assS'container_update_history'
p133
(lp134
g0
(g128
g2
Ntp135
Rp136
(lp137
g0
(g22
g2
Ntp138
Rp139
(lp140
g0
(g26
g2
Ntp141
Rp142
(lp143
I0
ag0
(g30
g2
Ntp144
Rp145
(lp146
I0
aI0
abag56
abag0
(g35
g2
Ntp147
Rp148
(lp149
g0
(g39
g2
Ntp150
Rp151
(lp152
F0.5294752097753854
aF-0.23891993409430162
aF0.02570893459679896
abag0
(g43
g2
Ntp153
Rp154
(lp155
F-0.704688659619377
aF0.7085322142558269
aF-0.0335033762754408
aF-0.016538383951495636
abababaF0.07
aF-1.0
abag0
(g128
g2
Ntp156
Rp157
(lp158
g0
(g22
g2
Ntp159
Rp160
(lp161
g0
(g26
g2
Ntp162
Rp163
(lp164
I0
ag0
(g30
g2
Ntp165
Rp166
(lp167
I0
aI0
abag56
abag0
(g35
g2
Ntp168
Rp169
(lp170
g0
(g39
g2
Ntp171
Rp172
(lp173
F0.5294752097753854
aF-0.23891993409430162
aF0.02570893459679896
abag0
(g43
g2
Ntp174
Rp175
(lp176
F-0.704688659619377
aF0.7085322142558269
aF-0.0335033762754408
aF-0.016538383951495636
abababaF0.21902915427310088
aF-1.0
abag0
(g128
g2
Ntp177
Rp178
(lp179
g0
(g22
g2
Ntp180
Rp181
(lp182
g0
(g26
g2
Ntp183
Rp184
(lp185
I0
ag0
(g30
g2
Ntp186
Rp187
(lp188
I0
aI0
abag56
abag0
(g35
g2
Ntp189
Rp190
(lp191
g0
(g39
g2
Ntp192
Rp193
(lp194
F0.5294752097753854
aF-0.23891993409430162
aF0.02570893459679896
abag0
(g43
g2
Ntp195
Rp196
(lp197
F-0.704688659619377
aF0.7085322142558269
aF-0.0335033762754408
aF-0.016538383951495636
abababaF0.2956
aF-1.0
abag0
(g128
g2
Ntp198
Rp199
(lp200
g0
(g22
g2
Ntp201
Rp202
(lp203
g0
(g26
g2
Ntp204
Rp205
(lp206
I0
ag0
(g30
g2
Ntp207
Rp208
(lp209
I0
aI0
abag56
abag0
(g35
g2
Ntp210
Rp211
(lp212
g0
(g39
g2
Ntp213
Rp214
(lp215
F0.5294752097753854
aF-0.23891993409430162
aF0.02570893459679896
abag0
(g43
g2
Ntp216
Rp217
(lp218
F-0.704688659619377
aF0.7085322142558269
aF-0.0335033762754408
aF-0.016538383951495636
abababaF0.316
aF-1.0
abasS'starting_gripper_state_index'
p219
I0
sS'parameters_update_history'
p220
(dp221
S'position_speed'
p222
F0.316
sS'rotation_speed'
p223
(lp224
F-1.0
asg126
(lp225
g0
(g22
g2
Ntp226
Rp227
(lp228
g0
(g26
g2
Ntp229
Rp230
(lp231
I0
ag0
(g30
g2
Ntp232
Rp233
(lp234
I0
aI0
abag56
abag0
(g35
g2
Ntp235
Rp236
(lp237
g0
(g39
g2
Ntp238
Rp239
(lp240
F0.5294752097753854
aF-0.23891993409430162
aF0.02570893459679896
abag0
(g43
g2
Ntp241
Rp242
(lp243
F-0.704688659619377
aF0.7085322142558269
aF-0.0335033762754408
aF-0.016538383951495636
abababassS'parameter_container'
p244
g0
(g128
g2
Ntp245
Rp246
(lp247
g48
aF0.316
aF-1.0
absbag0
(g16
g2
Ntp248
Rp249
(dp250
g117
g120
sg121
I01
sg18
S'A Move to Contact primitive'
p251
sg123
I1
sg124
(lp252
g126
aS'force_threshold'
p253
aS'torque_threshold'
p254
asg127
cpanda_pbd.msg._MoveToContactGoal
MoveToContactGoal
p255
sg129
(dp256
S'force_threshold'
p257
(lp258
F5.0
aF20.0
asg131
(lp259
F0.01
aF0.25
assg133
(lp260
g0
(g255
g2
Ntp261
Rp262
(lp263
g0
(g22
g2
Ntp264
Rp265
(lp266
g0
(g26
g2
Ntp267
Rp268
(lp269
I0
ag0
(g30
g2
Ntp270
Rp271
(lp272
I0
aI0
abaS'panda_link0'
p273
abag0
(g35
g2
Ntp274
Rp275
(lp276
g0
(g39
g2
Ntp277
Rp278
(lp279
F0.512283028132677
aF0.1492318253473133
aF0.035534203431970335
abag0
(g43
g2
Ntp280
Rp281
(lp282
F-0.7054319914467646
aF0.7087651220338805
aF0.0038737904474442854
aF-0.0016434656430182005
abababaF0.07
aF-1.0
aF10.0
aF10.0
abag0
(g255
g2
Ntp283
Rp284
(lp285
g0
(g22
g2
Ntp286
Rp287
(lp288
g0
(g26
g2
Ntp289
Rp290
(lp291
I0
ag0
(g30
g2
Ntp292
Rp293
(lp294
I0
aI0
abag273
abag0
(g35
g2
Ntp295
Rp296
(lp297
g0
(g39
g2
Ntp298
Rp299
(lp300
F0.512283028132677
aF0.1492318253473133
aF0.035534203431970335
abag0
(g43
g2
Ntp301
Rp302
(lp303
F-0.7054319914467646
aF0.7087651220338805
aF0.0038737904474442854
aF-0.0016434656430182005
abababaF0.16119798131913154
aF-1.0
aF10.0
aF10.0
abag0
(g255
g2
Ntp304
Rp305
(lp306
g0
(g22
g2
Ntp307
Rp308
(lp309
g0
(g26
g2
Ntp310
Rp311
(lp312
I0
ag0
(g30
g2
Ntp313
Rp314
(lp315
I0
aI0
abag273
abag0
(g35
g2
Ntp316
Rp317
(lp318
g0
(g39
g2
Ntp319
Rp320
(lp321
F0.512283028132677
aF0.1492318253473133
aF0.035534203431970335
abag0
(g43
g2
Ntp322
Rp323
(lp324
F-0.7054319914467646
aF0.7087651220338805
aF0.0038737904474442854
aF-0.0016434656430182005
abababaF0.16119798131913154
aF-1.0
aF14.78599329235983
aF10.0
abag0
(g255
g2
Ntp325
Rp326
(lp327
g0
(g22
g2
Ntp328
Rp329
(lp330
g0
(g26
g2
Ntp331
Rp332
(lp333
I0
ag0
(g30
g2
Ntp334
Rp335
(lp336
I0
aI0
abag273
abag0
(g35
g2
Ntp337
Rp338
(lp339
g0
(g39
g2
Ntp340
Rp341
(lp342
F0.512283028132677
aF0.1492318253473133
aF0.035534203431970335
abag0
(g43
g2
Ntp343
Rp344
(lp345
F-0.7054319914467646
aF0.7087651220338805
aF0.0038737904474442854
aF-0.0016434656430182005
abababaF0.1396
aF-1.0
aF14.78599329235983
aF10.0
abag0
(g255
g2
Ntp346
Rp347
(lp348
g0
(g22
g2
Ntp349
Rp350
(lp351
g0
(g26
g2
Ntp352
Rp353
(lp354
I0
ag0
(g30
g2
Ntp355
Rp356
(lp357
I0
aI0
abag273
abag0
(g35
g2
Ntp358
Rp359
(lp360
g0
(g39
g2
Ntp361
Rp362
(lp363
F0.512283028132677
aF0.1492318253473133
aF0.035534203431970335
abag0
(g43
g2
Ntp364
Rp365
(lp366
F-0.7054319914467646
aF0.7087651220338805
aF0.0038737904474442854
aF-0.0016434656430182005
abababaF0.1396
aF-1.0
aF10.1
aF10.0
abag0
(g255
g2
Ntp367
Rp368
(lp369
g0
(g22
g2
Ntp370
Rp371
(lp372
g0
(g26
g2
Ntp373
Rp374
(lp375
I0
ag0
(g30
g2
Ntp376
Rp377
(lp378
I0
aI0
abag273
abag0
(g35
g2
Ntp379
Rp380
(lp381
g0
(g39
g2
Ntp382
Rp383
(lp384
F0.512283028132677
aF0.1492318253473133
aF0.035534203431970335
abag0
(g43
g2
Ntp385
Rp386
(lp387
F-0.7054319914467646
aF0.7087651220338805
aF0.0038737904474442854
aF-0.0016434656430182005
abababaF0.1396
aF-1.0
aF12.5
aF10.0
abag0
(g255
g2
Ntp388
Rp389
(lp390
g0
(g22
g2
Ntp391
Rp392
(lp393
g0
(g26
g2
Ntp394
Rp395
(lp396
I0
ag0
(g30
g2
Ntp397
Rp398
(lp399
I0
aI0
abag273
abag0
(g35
g2
Ntp400
Rp401
(lp402
g0
(g39
g2
Ntp403
Rp404
(lp405
F0.512283028132677
aF0.1492318253473133
aF0.035534203431970335
abag0
(g43
g2
Ntp406
Rp407
(lp408
F-0.7054319914467646
aF0.7087651220338805
aF0.0038737904474442854
aF-0.0016434656430182005
abababaF0.1396
aF-1.0
aF14.0
aF10.0
abag0
(g255
g2
Ntp409
Rp410
(lp411
g0
(g22
g2
Ntp412
Rp413
(lp414
g0
(g26
g2
Ntp415
Rp416
(lp417
I0
ag0
(g30
g2
Ntp418
Rp419
(lp420
I0
aI0
abag273
abag0
(g35
g2
Ntp421
Rp422
(lp423
g0
(g39
g2
Ntp424
Rp425
(lp426
F0.512283028132677
aF0.1492318253473133
aF0.035534203431970335
abag0
(g43
g2
Ntp427
Rp428
(lp429
F-0.7054319914467646
aF0.7087651220338805
aF0.0038737904474442854
aF-0.0016434656430182005
abababaF0.1732
aF-1.0
aF14.0
aF10.0
abag0
(g255
g2
Ntp430
Rp431
(lp432
g0
(g22
g2
Ntp433
Rp434
(lp435
g0
(g26
g2
Ntp436
Rp437
(lp438
I0
ag0
(g30
g2
Ntp439
Rp440
(lp441
I0
aI0
abag273
abag0
(g35
g2
Ntp442
Rp443
(lp444
g0
(g39
g2
Ntp445
Rp446
(lp447
F0.512283028132677
aF0.1492318253473133
aF0.035534203431970335
abag0
(g43
g2
Ntp448
Rp449
(lp450
F-0.7054319914467646
aF0.7087651220338805
aF0.0038737904474442854
aF-0.0016434656430182005
abababaF0.1732
aF-1.0
aF15.2
aF10.0
abag0
(g255
g2
Ntp451
Rp452
(lp453
g0
(g22
g2
Ntp454
Rp455
(lp456
g0
(g26
g2
Ntp457
Rp458
(lp459
I0
ag0
(g30
g2
Ntp460
Rp461
(lp462
I0
aI0
abag273
abag0
(g35
g2
Ntp463
Rp464
(lp465
g0
(g39
g2
Ntp466
Rp467
(lp468
F0.512283028132677
aF0.1492318253473133
aF0.035534203431970335
abag0
(g43
g2
Ntp469
Rp470
(lp471
F-0.7054319914467646
aF0.7087651220338805
aF0.0038737904474442854
aF-0.0016434656430182005
abababaF0.1732
aF-1.0
aF17.6
aF10.0
abag0
(g255
g2
Ntp472
Rp473
(lp474
g0
(g22
g2
Ntp475
Rp476
(lp477
g0
(g26
g2
Ntp478
Rp479
(lp480
I0
ag0
(g30
g2
Ntp481
Rp482
(lp483
I0
aI0
abag273
abag0
(g35
g2
Ntp484
Rp485
(lp486
g0
(g39
g2
Ntp487
Rp488
(lp489
F0.512283028132677
aF0.1492318253473133
aF0.035534203431970335
abag0
(g43
g2
Ntp490
Rp491
(lp492
F-0.7054319914467646
aF0.7087651220338805
aF0.0038737904474442854
aF-0.0016434656430182005
abababaF0.21159999999999998
aF-1.0
aF17.6
aF10.0
abasg219
I0
sg220
(dp493
g253
F17.6
sg222
F0.21159999999999998
sg223
(lp494
F-1.0
asg254
(lp495
F10.0
asg126
(lp496
g0
(g22
g2
Ntp497
Rp498
(lp499
g0
(g26
g2
Ntp500
Rp501
(lp502
I0
ag0
(g30
g2
Ntp503
Rp504
(lp505
I0
aI0
abag273
abag0
(g35
g2
Ntp506
Rp507
(lp508
g0
(g39
g2
Ntp509
Rp510
(lp511
F0.512283028132677
aF0.1492318253473133
aF0.035534203431970335
abag0
(g43
g2
Ntp512
Rp513
(lp514
F-0.7054319914467646
aF0.7087651220338805
aF0.0038737904474442854
aF-0.0016434656430182005
abababassg244
g0
(g255
g2
Ntp515
Rp516
(lp517
g0
(g22
g2
Ntp518
Rp519
(lp520
g0
(g26
g2
Ntp521
Rp522
(lp523
I0
ag0
(g30
g2
Ntp524
Rp525
(lp526
I0
aI0
abag273
abag0
(g35
g2
Ntp527
Rp528
(lp529
g0
(g39
g2
Ntp530
Rp531
(lp532
F0.512283028132677
aF0.1492318253473133
aF0.035534203431970335
abag0
(g43
g2
Ntp533
Rp534
(lp535
F-0.7054319914467646
aF0.7087651220338805
aF0.0038737904474442854
aF-0.0016434656430182005
abababaF0.21159999999999998
aF-1.0
aF17.6
aF10.0
absbag0
(g8
g2
Ntp536
Rp537
(dp538
g117
g120
sg121
I01
sg18
g122
sg123
I2
sg124
(lp539
g126
asg127
g128
sg129
g130
sg133
(lp540
g0
(g128
g2
Ntp541
Rp542
(lp543
g0
(g22
g2
Ntp544
Rp545
(lp546
g0
(g26
g2
Ntp547
Rp548
(lp549
I0
ag0
(g30
g2
Ntp550
Rp551
(lp552
I0
aI0
abag94
abag0
(g35
g2
Ntp553
Rp554
(lp555
g0
(g39
g2
Ntp556
Rp557
(lp558
F0.4340239876172547
aF-0.018694378705386674
aF0.36310452212031397
abag0
(g43
g2
Ntp559
Rp560
(lp561
F0.9996651157292086
aF-0.021109210280240997
aF-0.014510167637759988
aF-0.003675958456885042
abababaF0.07
aF-1.0
abag0
(g128
g2
Ntp562
Rp563
(lp564
g0
(g22
g2
Ntp565
Rp566
(lp567
g0
(g26
g2
Ntp568
Rp569
(lp570
I0
ag0
(g30
g2
Ntp571
Rp572
(lp573
I0
aI0
abag94
abag0
(g35
g2
Ntp574
Rp575
(lp576
g0
(g39
g2
Ntp577
Rp578
(lp579
F0.4340239876172547
aF-0.018694378705386674
aF0.36310452212031397
abag0
(g43
g2
Ntp580
Rp581
(lp582
F0.9996651157292086
aF-0.021109210280240997
aF-0.014510167637759988
aF-0.003675958456885042
abababaF0.05395235767864407
aF-1.0
abag0
(g128
g2
Ntp583
Rp584
(lp585
g0
(g22
g2
Ntp586
Rp587
(lp588
g0
(g26
g2
Ntp589
Rp590
(lp591
I0
ag0
(g30
g2
Ntp592
Rp593
(lp594
I0
aI0
abag94
abag0
(g35
g2
Ntp595
Rp596
(lp597
g0
(g39
g2
Ntp598
Rp599
(lp600
F0.4340239876172547
aF-0.018694378705386674
aF0.36310452212031397
abag0
(g43
g2
Ntp601
Rp602
(lp603
F0.9996651157292086
aF-0.021109210280240997
aF-0.014510167637759988
aF-0.003675958456885042
abababaF0.26839999999999997
aF-1.0
abag0
(g128
g2
Ntp604
Rp605
(lp606
g0
(g22
g2
Ntp607
Rp608
(lp609
g0
(g26
g2
Ntp610
Rp611
(lp612
I0
ag0
(g30
g2
Ntp613
Rp614
(lp615
I0
aI0
abag94
abag0
(g35
g2
Ntp616
Rp617
(lp618
g0
(g39
g2
Ntp619
Rp620
(lp621
F0.4340239876172547
aF-0.018694378705386674
aF0.36310452212031397
abag0
(g43
g2
Ntp622
Rp623
(lp624
F0.9996651157292086
aF-0.021109210280240997
aF-0.014510167637759988
aF-0.003675958456885042
abababaF0.316
aF-1.0
abasg219
I0
sg220
(dp625
g222
F0.316
sg223
(lp626
F-1.0
asg126
(lp627
g0
(g22
g2
Ntp628
Rp629
(lp630
g0
(g26
g2
Ntp631
Rp632
(lp633
I0
ag0
(g30
g2
Ntp634
Rp635
(lp636
I0
aI0
abag94
abag0
(g35
g2
Ntp637
Rp638
(lp639
g0
(g39
g2
Ntp640
Rp641
(lp642
F0.4340239876172547
aF-0.018694378705386674
aF0.36310452212031397
abag0
(g43
g2
Ntp643
Rp644
(lp645
F0.9996651157292086
aF-0.021109210280240997
aF-0.014510167637759988
aF-0.003675958456885042
abababassg244
g0
(g128
g2
Ntp646
Rp647
(lp648
g86
aF0.316
aF-1.0
absbasS'name'
p649
S'A Panda Program'
p650
sb.