ccopy_reg
_reconstructor
p0
(cpanda_eup.panda_primitive
PandaProgram
p1
c__builtin__
object
p2
Ntp3
Rp4
(dp5
S'effect_of_primitive'
p6
(dp7
cpanda_eup.panda_primitive
MoveToEE
p8
(lp9
I01
aI00
ascpanda_eup.panda_primitive
UserSync
p10
(lp11
I00
aI00
ascpanda_eup.panda_primitive
MoveFingers
p12
(lp13
I00
aI01
ascpanda_eup.panda_primitive
ApplyForceFingers
p14
(lp15
I00
aI01
ascpanda_eup.panda_primitive
MoveToContact
p16
(lp17
I01
aI00
assS'description'
p18
S'Empty Description'
p19
sS'arm_state_list'
p20
(lp21
g0
(cgeometry_msgs.msg._PoseStamped
PoseStamped
p22
g2
Ntp23
Rp24
(lp25
g0
(cstd_msgs.msg._Header
Header
p26
g2
Ntp27
Rp28
(lp29
I0
ag0
(cgenpy.rostime
Time
p30
g2
Ntp31
Rp32
(lp33
I0
aI0
abaS'panda_link0'
p34
abag0
(cgeometry_msgs.msg._Pose
Pose
p35
g2
Ntp36
Rp37
(lp38
g0
(cgeometry_msgs.msg._Point
Point
p39
g2
Ntp40
Rp41
(lp42
F0.4833974233623748
aF0.007318751177980708
aF0.3904495689279949
abag0
(cgeometry_msgs.msg._Quaternion
Quaternion
p43
g2
Ntp44
Rp45
(lp46
F0.9993500431690824
aF-0.014042189921340717
aF-0.02007113406023331
aF-0.026447262574839425
abababag0
(g22
g2
Ntp47
Rp48
(lp49
g0
(g26
g2
Ntp50
Rp51
(lp52
I0
ag0
(g30
g2
Ntp53
Rp54
(lp55
I0
aI0
abaS'panda_link0'
p56
abag0
(g35
g2
Ntp57
Rp58
(lp59
g0
(g39
g2
Ntp60
Rp61
(lp62
F0.4964580717497461
aF0.005938974996425374
aF0.02162308147442149
abag0
(g43
g2
Ntp63
Rp64
(lp65
F0.999321980086923
aF-0.03136323129100211
aF0.01026226079940113
aF-0.01632831410231481
abababag0
(g22
g2
Ntp66
Rp67
(lp68
g0
(g26
g2
Ntp69
Rp70
(lp71
I0
ag0
(g30
g2
Ntp72
Rp73
(lp74
I0
aI0
abaS'panda_link0'
p75
abag0
(g35
g2
Ntp76
Rp77
(lp78
g0
(g39
g2
Ntp79
Rp80
(lp81
F0.6404225030201885
aF-0.21899515188976365
aF0.31947401035356376
abag0
(g43
g2
Ntp82
Rp83
(lp84
F0.8476936441278499
aF-0.15503337362532482
aF0.5028616917286283
aF0.06715845262823286
abababag0
(g22
g2
Ntp85
Rp86
(lp87
g0
(g26
g2
Ntp88
Rp89
(lp90
I0
ag0
(g30
g2
Ntp91
Rp92
(lp93
I0
aI0
abaS'panda_link0'
p94
abag0
(g35
g2
Ntp95
Rp96
(lp97
g0
(g39
g2
Ntp98
Rp99
(lp100
F0.48697273191184176
aF-0.0003249795766055996
aF0.3672047165651558
abag0
(g43
g2
Ntp101
Rp102
(lp103
F0.9986485219265587
aF-0.028677903984510297
aF0.042164274523526495
aF-0.010043974853580964
abababasS'gripper_state_list'
p104
(lp105
g0
(cpanda_eup.panda_primitive
GripperState
p106
g2
Ntp107
Rp108
(dp109
S'width'
p110
F0.08
sS'force'
p111
F0.0
sbag0
(g106
g2
Ntp112
Rp113
(dp114
g110
F0.033291686326265335
sg111
F20.0
sbag0
(g106
g2
Ntp115
Rp116
(dp117
g110
F0.05202047526836395
sg111
F0.0
sbasS'primitives'
p118
(lp119
g0
(g16
g2
Ntp120
Rp121
(dp122
S'status'
p123
cpanda_eup.panda_primitive
PandaPrimitiveStatus
p124
(I1
tp125
Rp126
sS'revertible'
p127
I01
sg18
S'A Move to Contact primitive'
p128
sS'starting_arm_state_index'
p129
I0
sS'parameters_with_effects_on_robot_state'
p130
(lp131
S'pose'
p132
aS'force_threshold'
p133
aS'torque_threshold'
p134
asS'expected_container'
p135
cpanda_pbd.msg._MoveToContactGoal
MoveToContactGoal
p136
sS'gui_tunable_parameter_strict_ranges'
p137
(dp138
S'force_threshold'
p139
(lp140
F5.0
aF20.0
asS'position_speed'
p141
(lp142
F0.01
aF0.25
assS'container_update_history'
p143
(lp144
g0
(g136
g2
Ntp145
Rp146
(lp147
g0
(g22
g2
Ntp148
Rp149
(lp150
g0
(g26
g2
Ntp151
Rp152
(lp153
I0
ag0
(g30
g2
Ntp154
Rp155
(lp156
I0
aI0
abaS'panda_link0'
p157
abag0
(g35
g2
Ntp158
Rp159
(lp160
g0
(g39
g2
Ntp161
Rp162
(lp163
F0.5069132714754178
aF0.004873624607929537
aF0.027077189596690976
abag0
(g43
g2
Ntp164
Rp165
(lp166
F0.9995143312059889
aF-0.02583181235790082
aF0.016166211683465017
aF-0.006517114695673689
abababaF0.07
aF-1.0
aF10.0
aF10.0
abag0
(g136
g2
Ntp167
Rp168
(lp169
g0
(g22
g2
Ntp170
Rp171
(lp172
g0
(g26
g2
Ntp173
Rp174
(lp175
I0
ag0
(g30
g2
Ntp176
Rp177
(lp178
I0
aI0
abag157
abag0
(g35
g2
Ntp179
Rp180
(lp181
g0
(g39
g2
Ntp182
Rp183
(lp184
F0.5069132714754178
aF0.004873624607929537
aF0.027077189596690976
abag0
(g43
g2
Ntp185
Rp186
(lp187
F0.9995143312059889
aF-0.02583181235790082
aF0.016166211683465017
aF-0.006517114695673689
abababaF0.22948811356082968
aF-1.0
aF10.0
aF10.0
abag0
(g136
g2
Ntp188
Rp189
(lp190
g0
(g22
g2
Ntp191
Rp192
(lp193
g0
(g26
g2
Ntp194
Rp195
(lp196
I0
ag0
(g30
g2
Ntp197
Rp198
(lp199
I0
aI0
abag157
abag0
(g35
g2
Ntp200
Rp201
(lp202
g0
(g39
g2
Ntp203
Rp204
(lp205
F0.5069132714754178
aF0.004873624607929537
aF0.027077189596690976
abag0
(g43
g2
Ntp206
Rp207
(lp208
F0.9995143312059889
aF-0.02583181235790082
aF0.016166211683465017
aF-0.006517114695673689
abababaF0.22948811356082968
aF-1.0
aF5.263555874107653
aF10.0
abag0
(g136
g2
Ntp209
Rp210
(lp211
g0
(g22
g2
Ntp212
Rp213
(lp214
g0
(g26
g2
Ntp215
Rp216
(lp217
I0
ag0
(g30
g2
Ntp218
Rp219
(lp220
I0
aI0
abag157
abag0
(g35
g2
Ntp221
Rp222
(lp223
g0
(g39
g2
Ntp224
Rp225
(lp226
F0.5069132714754178
aF0.004873624607929537
aF0.027077189596690976
abag0
(g43
g2
Ntp227
Rp228
(lp229
F0.9995143312059889
aF-0.02583181235790082
aF0.016166211683465017
aF-0.006517114695673689
abababaF0.22948811356082968
aF-1.0
aF7.1
aF10.0
abag0
(g136
g2
Ntp230
Rp231
(lp232
g0
(g22
g2
Ntp233
Rp234
(lp235
g0
(g26
g2
Ntp236
Rp237
(lp238
I0
ag0
(g30
g2
Ntp239
Rp240
(lp241
I0
aI0
abag157
abag0
(g35
g2
Ntp242
Rp243
(lp244
g0
(g39
g2
Ntp245
Rp246
(lp247
F0.5069132714754178
aF0.004873624607929537
aF0.027077189596690976
abag0
(g43
g2
Ntp248
Rp249
(lp250
F0.9995143312059889
aF-0.02583181235790082
aF0.016166211683465017
aF-0.006517114695673689
abababaF0.22948811356082968
aF-1.0
aF12.2
aF10.0
abasS'starting_gripper_state_index'
p251
I0
sS'parameters_update_history'
p252
(dp253
g133
F12.2
sS'position_speed'
p254
F0.22948811356082968
sS'rotation_speed'
p255
(lp256
F-1.0
asg134
(lp257
F10.0
asg132
(lp258
g0
(g22
g2
Ntp259
Rp260
(lp261
g0
(g26
g2
Ntp262
Rp263
(lp264
I0
ag0
(g30
g2
Ntp265
Rp266
(lp267
I0
aI0
abag157
abag0
(g35
g2
Ntp268
Rp269
(lp270
g0
(g39
g2
Ntp271
Rp272
(lp273
F0.5069132714754178
aF0.004873624607929537
aF0.027077189596690976
abag0
(g43
g2
Ntp274
Rp275
(lp276
F0.9995143312059889
aF-0.02583181235790082
aF0.016166211683465017
aF-0.006517114695673689
abababassS'parameter_container'
p277
g0
(g136
g2
Ntp278
Rp279
(lp280
g0
(g22
g2
Ntp281
Rp282
(lp283
g0
(g26
g2
Ntp284
Rp285
(lp286
I0
ag0
(g30
g2
Ntp287
Rp288
(lp289
I0
aI0
abag157
abag0
(g35
g2
Ntp290
Rp291
(lp292
g0
(g39
g2
Ntp293
Rp294
(lp295
F0.5069132714754178
aF0.004873624607929537
aF0.027077189596690976
abag0
(g43
g2
Ntp296
Rp297
(lp298
F0.9995143312059889
aF-0.02583181235790082
aF0.016166211683465017
aF-0.006517114695673689
abababaF0.22948811356082968
aF-1.0
aF12.2
aF10.0
absbag0
(g14
g2
Ntp299
Rp300
(dp301
g123
g126
sg127
I01
sg18
S'A Apply Force (with) Fingers primitive'
p302
sg129
I1
sg130
(lp303
S'force'
p304
asg135
cpanda_pbd.srv._ApplyForceFingers
ApplyForceFingersRequest
p305
sg137
(dp306
g111
(lp307
F20.0
aF60.0
assg143
(lp308
g0
(g305
g2
Ntp309
Rp310
(lp311
F20.0
abag0
(g305
g2
Ntp312
Rp313
(lp314
F36.35973029392978
abasg251
I0
sg252
(dp315
g304
F36.35973029392978
ssg277
g0
(g305
g2
Ntp316
Rp317
(lp318
F36.35973029392978
absbag0
(g8
g2
Ntp319
Rp320
(dp321
g123
g126
sg127
I01
sg18
S'A Move to End-Effector primitive'
p322
sg129
I1
sg130
(lp323
g132
asg135
cpanda_pbd.msg._MoveToEEGoal
MoveToEEGoal
p324
sg137
(dp325
g141
(lp326
F0.01
aF0.35
assg143
(lp327
g0
(g324
g2
Ntp328
Rp329
(lp330
g0
(g22
g2
Ntp331
Rp332
(lp333
g0
(g26
g2
Ntp334
Rp335
(lp336
I0
ag0
(g30
g2
Ntp337
Rp338
(lp339
I0
aI0
abag75
abag0
(g35
g2
Ntp340
Rp341
(lp342
g0
(g39
g2
Ntp343
Rp344
(lp345
F0.6404225030201885
aF-0.21899515188976365
aF0.31947401035356376
abag0
(g43
g2
Ntp346
Rp347
(lp348
F0.8476936441278499
aF-0.15503337362532482
aF0.5028616917286283
aF0.06715845262823286
abababaF0.07
aF-1.0
abag0
(g324
g2
Ntp349
Rp350
(lp351
g0
(g22
g2
Ntp352
Rp353
(lp354
g0
(g26
g2
Ntp355
Rp356
(lp357
I0
ag0
(g30
g2
Ntp358
Rp359
(lp360
I0
aI0
abag75
abag0
(g35
g2
Ntp361
Rp362
(lp363
g0
(g39
g2
Ntp364
Rp365
(lp366
F0.6404225030201885
aF-0.21899515188976365
aF0.31947401035356376
abag0
(g43
g2
Ntp367
Rp368
(lp369
F0.8476936441278499
aF-0.15503337362532482
aF0.5028616917286283
aF0.06715845262823286
abababaF0.27709898041843206
aF-1.0
abag0
(g324
g2
Ntp370
Rp371
(lp372
g0
(g22
g2
Ntp373
Rp374
(lp375
g0
(g26
g2
Ntp376
Rp377
(lp378
I0
ag0
(g30
g2
Ntp379
Rp380
(lp381
I0
aI0
abag75
abag0
(g35
g2
Ntp382
Rp383
(lp384
g0
(g39
g2
Ntp385
Rp386
(lp387
F0.6404225030201885
aF-0.21899515188976365
aF0.31947401035356376
abag0
(g43
g2
Ntp388
Rp389
(lp390
F0.8476936441278499
aF-0.15503337362532482
aF0.5028616917286283
aF0.06715845262823286
abababaF0.3296
aF-1.0
abag0
(g324
g2
Ntp391
Rp392
(lp393
g0
(g22
g2
Ntp394
Rp395
(lp396
g0
(g26
g2
Ntp397
Rp398
(lp399
I0
ag0
(g30
g2
Ntp400
Rp401
(lp402
I0
aI0
abag75
abag0
(g35
g2
Ntp403
Rp404
(lp405
g0
(g39
g2
Ntp406
Rp407
(lp408
F0.6404225030201885
aF-0.21899515188976365
aF0.31947401035356376
abag0
(g43
g2
Ntp409
Rp410
(lp411
F0.8476936441278499
aF-0.15503337362532482
aF0.5028616917286283
aF0.06715845262823286
abababaF0.35
aF-1.0
abasg251
I1
sg252
(dp412
g254
F0.35
sg255
(lp413
F-1.0
asg132
(lp414
g0
(g22
g2
Ntp415
Rp416
(lp417
g0
(g26
g2
Ntp418
Rp419
(lp420
I0
ag0
(g30
g2
Ntp421
Rp422
(lp423
I0
aI0
abag75
abag0
(g35
g2
Ntp424
Rp425
(lp426
g0
(g39
g2
Ntp427
Rp428
(lp429
F0.6404225030201885
aF-0.21899515188976365
aF0.31947401035356376
abag0
(g43
g2
Ntp430
Rp431
(lp432
F0.8476936441278499
aF-0.15503337362532482
aF0.5028616917286283
aF0.06715845262823286
abababassg277
g0
(g324
g2
Ntp433
Rp434
(lp435
g67
aF0.35
aF-1.0
absbag0
(g10
g2
Ntp436
Rp437
(dp438
g123
g126
sg127
I01
sg18
S'A User Synchronization primitive'
p439
sg129
I2
sg130
(lp440
sg135
cpanda_pbd.msg._UserSyncGoal
UserSyncGoal
p441
sg137
(dp442
g139
(lp443
F5.0
aF30.0
assg143
(lp444
g0
(g441
g2
Ntp445
Rp446
(lp447
F10.0
abag0
(g441
g2
Ntp448
Rp449
(lp450
F16.147874407167436
abag0
(g441
g2
Ntp451
Rp452
(lp453
F6.0
abag0
(g441
g2
Ntp454
Rp455
(lp456
F5.0
abasg251
I1
sg252
(dp457
g133
F5.0
ssg277
g0
(g441
g2
Ntp458
Rp459
(lp460
F5.0
absbag0
(g12
g2
Ntp461
Rp462
(dp463
g123
g126
sg127
I01
sg18
S'A Move Fingers primitive'
p464
sg129
I2
sg130
(lp465
S'width'
p466
asg135
cpanda_pbd.srv._MoveFingers
MoveFingersRequest
p467
sg137
(dp468
g466
(lp469
F0.04758337885141373
aF0.08
assg143
(lp470
g0
(g467
g2
Ntp471
Rp472
(lp473
F0.04758337885141373
abag0
(g467
g2
Ntp474
Rp475
(lp476
F0.05055372375744319
abag0
(g467
g2
Ntp477
Rp478
(lp479
F0.062400000000000004
abag0
(g467
g2
Ntp480
Rp481
(lp482
F0.046400000000000004
abag0
(g467
g2
Ntp483
Rp484
(lp485
F0.0528
abasg251
I1
sg252
(dp486
g466
F0.0528
ssg277
g0
(g467
g2
Ntp487
Rp488
(lp489
F0.0528
absbag0
(g8
g2
Ntp490
Rp491
(dp492
g123
g126
sg127
I01
sg18
g322
sg129
I2
sg130
(lp493
g132
asg135
g324
sg137
g325
sg143
(lp494
g0
(g324
g2
Ntp495
Rp496
(lp497
g0
(g22
g2
Ntp498
Rp499
(lp500
g0
(g26
g2
Ntp501
Rp502
(lp503
I0
ag0
(g30
g2
Ntp504
Rp505
(lp506
I0
aI0
abag94
abag0
(g35
g2
Ntp507
Rp508
(lp509
g0
(g39
g2
Ntp510
Rp511
(lp512
F0.48697273191184176
aF-0.0003249795766055996
aF0.3672047165651558
abag0
(g43
g2
Ntp513
Rp514
(lp515
F0.9986485219265587
aF-0.028677903984510297
aF0.042164274523526495
aF-0.010043974853580964
abababaF0.07
aF-1.0
abag0
(g324
g2
Ntp516
Rp517
(lp518
g0
(g22
g2
Ntp519
Rp520
(lp521
g0
(g26
g2
Ntp522
Rp523
(lp524
I0
ag0
(g30
g2
Ntp525
Rp526
(lp527
I0
aI0
abag94
abag0
(g35
g2
Ntp528
Rp529
(lp530
g0
(g39
g2
Ntp531
Rp532
(lp533
F0.48697273191184176
aF-0.0003249795766055996
aF0.3672047165651558
abag0
(g43
g2
Ntp534
Rp535
(lp536
F0.9986485219265587
aF-0.028677903984510297
aF0.042164274523526495
aF-0.010043974853580964
abababaF0.25004847974323874
aF-1.0
abag0
(g324
g2
Ntp537
Rp538
(lp539
g0
(g22
g2
Ntp540
Rp541
(lp542
g0
(g26
g2
Ntp543
Rp544
(lp545
I0
ag0
(g30
g2
Ntp546
Rp547
(lp548
I0
aI0
abag94
abag0
(g35
g2
Ntp549
Rp550
(lp551
g0
(g39
g2
Ntp552
Rp553
(lp554
F0.48697273191184176
aF-0.0003249795766055996
aF0.3672047165651558
abag0
(g43
g2
Ntp555
Rp556
(lp557
F0.9986485219265587
aF-0.028677903984510297
aF0.042164274523526495
aF-0.010043974853580964
abababaF0.35
aF-1.0
abag0
(g324
g2
Ntp558
Rp559
(lp560
g0
(g22
g2
Ntp561
Rp562
(lp563
g0
(g26
g2
Ntp564
Rp565
(lp566
I0
ag0
(g30
g2
Ntp567
Rp568
(lp569
I0
aI0
abag94
abag0
(g35
g2
Ntp570
Rp571
(lp572
g0
(g39
g2
Ntp573
Rp574
(lp575
F0.48697273191184176
aF-0.0003249795766055996
aF0.3672047165651558
abag0
(g43
g2
Ntp576
Rp577
(lp578
F0.9986485219265587
aF-0.028677903984510297
aF0.042164274523526495
aF-0.010043974853580964
abababaF0.3024
aF-1.0
abasg251
I2
sg252
(dp579
g254
F0.3024
sg255
(lp580
F-1.0
asg132
(lp581
g0
(g22
g2
Ntp582
Rp583
(lp584
g0
(g26
g2
Ntp585
Rp586
(lp587
I0
ag0
(g30
g2
Ntp588
Rp589
(lp590
I0
aI0
abag94
abag0
(g35
g2
Ntp591
Rp592
(lp593
g0
(g39
g2
Ntp594
Rp595
(lp596
F0.48697273191184176
aF-0.0003249795766055996
aF0.3672047165651558
abag0
(g43
g2
Ntp597
Rp598
(lp599
F0.9986485219265587
aF-0.028677903984510297
aF0.042164274523526495
aF-0.010043974853580964
abababassg277
g0
(g324
g2
Ntp600
Rp601
(lp602
g86
aF0.3024
aF-1.0
absbasS'name'
p603
S'A Panda Program'
p604
sb.