ccopy_reg
_reconstructor
p0
(cpanda_eup.panda_primitive
PandaProgram
p1
c__builtin__
object
p2
Ntp3
Rp4
(dp5
S'effect_of_primitive'
p6
(dp7
cpanda_eup.panda_primitive
MoveToEE
p8
(lp9
I01
aI00
ascpanda_eup.panda_primitive
MoveToContact
p10
(lp11
I01
aI00
ascpanda_eup.panda_primitive
ApplyForceFingers
p12
(lp13
I00
aI01
ascpanda_eup.panda_primitive
UserSync
p14
(lp15
I00
aI00
ascpanda_eup.panda_primitive
MoveFingers
p16
(lp17
I00
aI01
assS'description'
p18
S'Empty Description'
p19
sS'arm_state_list'
p20
(lp21
g0
(cgeometry_msgs.msg._PoseStamped
PoseStamped
p22
g2
Ntp23
Rp24
(lp25
g0
(cstd_msgs.msg._Header
Header
p26
g2
Ntp27
Rp28
(lp29
I0
ag0
(cgenpy.rostime
Time
p30
g2
Ntp31
Rp32
(lp33
I0
aI0
abaS'panda_link0'
p34
abag0
(cgeometry_msgs.msg._Pose
Pose
p35
g2
Ntp36
Rp37
(lp38
g0
(cgeometry_msgs.msg._Point
Point
p39
g2
Ntp40
Rp41
(lp42
F0.4085007637617008
aF-0.04743834298515986
aF0.41592672837953215
abag0
(cgeometry_msgs.msg._Quaternion
Quaternion
p43
g2
Ntp44
Rp45
(lp46
F0.999969677491424
aF0.006662980259596884
aF0.001583209543998861
aF0.0037070526429503078
abababag0
(g22
g2
Ntp47
Rp48
(lp49
g0
(g26
g2
Ntp50
Rp51
(lp52
I0
ag0
(g30
g2
Ntp53
Rp54
(lp55
I0
aI0
abaS'panda_link0'
p56
abag0
(g35
g2
Ntp57
Rp58
(lp59
g0
(g39
g2
Ntp60
Rp61
(lp62
F0.5555374971188675
aF-0.3665594011198935
aF0.2768798697008012
abag0
(g43
g2
Ntp63
Rp64
(lp65
F-0.5202366923331977
aF0.488836282074162
aF-0.4848922246640578
aF0.5052448948168257
abababag0
(g22
g2
Ntp66
Rp67
(lp68
g0
(g26
g2
Ntp69
Rp70
(lp71
I0
ag0
(g30
g2
Ntp72
Rp73
(lp74
I0
aI0
abaS'panda_link0'
p75
abag0
(g35
g2
Ntp76
Rp77
(lp78
g0
(g39
g2
Ntp79
Rp80
(lp81
F0.6925634165505562
aF-0.03161010303150283
aF0.1515468745803516
abag0
(g43
g2
Ntp82
Rp83
(lp84
F-0.5472531305577372
aF0.48193816034954157
aF-0.4457876407294544
aF0.5191560459693428
abababag0
(g22
g2
Ntp85
Rp86
(lp87
g0
(g26
g2
Ntp88
Rp89
(lp90
I0
ag0
(g30
g2
Ntp91
Rp92
(lp93
I0
aI0
abaS'panda_link0'
p94
abag0
(g35
g2
Ntp95
Rp96
(lp97
g0
(g39
g2
Ntp98
Rp99
(lp100
F0.581848720349036
aF0.37632116390939524
aF0.3458198812985057
abag0
(g43
g2
Ntp101
Rp102
(lp103
F-0.6558731655374604
aF0.2796442810897982
aF-0.2831432228500472
aF0.6414509974547778
abababag0
(g22
g2
Ntp104
Rp105
(lp106
g0
(g26
g2
Ntp107
Rp108
(lp109
I0
ag0
(g30
g2
Ntp110
Rp111
(lp112
I0
aI0
abaS'panda_link0'
p113
abag0
(g35
g2
Ntp114
Rp115
(lp116
g0
(g39
g2
Ntp117
Rp118
(lp119
F0.44612082019446336
aF-0.04256435300120127
aF0.408240721202241
abag0
(g43
g2
Ntp120
Rp121
(lp122
F0.9998713088044058
aF-0.010703239032880212
aF-0.0070168970835132564
aF-0.009673141128363653
abababasS'gripper_state_list'
p123
(lp124
g0
(cpanda_eup.panda_primitive
GripperState
p125
g2
Ntp126
Rp127
(dp128
S'width'
p129
F0.08
sS'force'
p130
F0.0
sbag0
(g125
g2
Ntp131
Rp132
(dp133
g129
F0.0013586432905867696
sg130
F20.0
sbag0
(g125
g2
Ntp134
Rp135
(dp136
g129
F0.04286457225680351
sg130
F0.0
sbasS'primitives'
p137
(lp138
g0
(g8
g2
Ntp139
Rp140
(dp141
S'status'
p142
cpanda_eup.panda_primitive
PandaPrimitiveStatus
p143
(I1
tp144
Rp145
sS'revertible'
p146
I01
sg18
S'A Move to End-Effector primitive'
p147
sS'starting_arm_state_index'
p148
I0
sS'parameters_with_effects_on_robot_state'
p149
(lp150
S'pose'
p151
asS'expected_container'
p152
cpanda_pbd.msg._MoveToEEGoal
MoveToEEGoal
p153
sS'gui_tunable_parameter_strict_ranges'
p154
(dp155
S'position_speed'
p156
(lp157
F0.01
aF0.35
assS'container_update_history'
p158
(lp159
g0
(g153
g2
Ntp160
Rp161
(lp162
g0
(g22
g2
Ntp163
Rp164
(lp165
g0
(g26
g2
Ntp166
Rp167
(lp168
I0
ag0
(g30
g2
Ntp169
Rp170
(lp171
I0
aI0
abag56
abag0
(g35
g2
Ntp172
Rp173
(lp174
g0
(g39
g2
Ntp175
Rp176
(lp177
F0.5555374971188675
aF-0.3665594011198935
aF0.2768798697008012
abag0
(g43
g2
Ntp178
Rp179
(lp180
F-0.5202366923331977
aF0.488836282074162
aF-0.4848922246640578
aF0.5052448948168257
abababaF0.07
aF-1.0
abag0
(g153
g2
Ntp181
Rp182
(lp183
g0
(g22
g2
Ntp184
Rp185
(lp186
g0
(g26
g2
Ntp187
Rp188
(lp189
I0
ag0
(g30
g2
Ntp190
Rp191
(lp192
I0
aI0
abag56
abag0
(g35
g2
Ntp193
Rp194
(lp195
g0
(g39
g2
Ntp196
Rp197
(lp198
F0.5555374971188675
aF-0.3665594011198935
aF0.2768798697008012
abag0
(g43
g2
Ntp199
Rp200
(lp201
F-0.5202366923331977
aF0.488836282074162
aF-0.4848922246640578
aF0.5052448948168257
abababaF0.25189524119859136
aF-1.0
abasS'starting_gripper_state_index'
p202
I0
sS'parameters_update_history'
p203
(dp204
S'position_speed'
p205
(lp206
F0.07
aF0.25189524119859136
asS'rotation_speed'
p207
(lp208
F-1.0
asg151
(lp209
g0
(g22
g2
Ntp210
Rp211
(lp212
g0
(g26
g2
Ntp213
Rp214
(lp215
I0
ag0
(g30
g2
Ntp216
Rp217
(lp218
I0
aI0
abag56
abag0
(g35
g2
Ntp219
Rp220
(lp221
g0
(g39
g2
Ntp222
Rp223
(lp224
F0.5555374971188675
aF-0.3665594011198935
aF0.2768798697008012
abag0
(g43
g2
Ntp225
Rp226
(lp227
F-0.5202366923331977
aF0.488836282074162
aF-0.4848922246640578
aF0.5052448948168257
abababassS'parameter_container'
p228
g0
(g153
g2
Ntp229
Rp230
(lp231
g48
aF0.25189524119859136
aF-1.0
absbag0
(g14
g2
Ntp232
Rp233
(dp234
g142
g145
sg146
I01
sg18
S'A User Synchronization primitive'
p235
sg148
I1
sg149
(lp236
sg152
cpanda_pbd.msg._UserSyncGoal
UserSyncGoal
p237
sg154
(dp238
S'force_threshold'
p239
(lp240
F5.0
aF30.0
assg158
(lp241
g0
(g237
g2
Ntp242
Rp243
(lp244
F10.0
abag0
(g237
g2
Ntp245
Rp246
(lp247
F6.222029836083671
abasg202
I0
sg203
(dp248
S'force_threshold'
p249
(lp250
F10.0
aF6.222029836083671
assg228
g0
(g237
g2
Ntp251
Rp252
(lp253
F6.222029836083671
absbag0
(g12
g2
Ntp254
Rp255
(dp256
g142
g145
sg146
I01
sg18
S'A Apply Force (with) Fingers primitive'
p257
sg148
I1
sg149
(lp258
S'force'
p259
asg152
cpanda_pbd.srv._ApplyForceFingers
ApplyForceFingersRequest
p260
sg154
(dp261
g130
(lp262
F20.0
aF60.0
assg158
(lp263
g0
(g260
g2
Ntp264
Rp265
(lp266
F20.0
abag0
(g260
g2
Ntp267
Rp268
(lp269
F26.584895089446164
abasg202
I0
sg203
(dp270
g259
(lp271
F20.0
aF26.584895089446164
assg228
g0
(g260
g2
Ntp272
Rp273
(lp274
F26.584895089446164
absbag0
(g8
g2
Ntp275
Rp276
(dp277
g142
g145
sg146
I01
sg18
g147
sg148
I1
sg149
(lp278
g151
asg152
g153
sg154
g155
sg158
(lp279
g0
(g153
g2
Ntp280
Rp281
(lp282
g0
(g22
g2
Ntp283
Rp284
(lp285
g0
(g26
g2
Ntp286
Rp287
(lp288
I0
ag0
(g30
g2
Ntp289
Rp290
(lp291
I0
aI0
abag75
abag0
(g35
g2
Ntp292
Rp293
(lp294
g0
(g39
g2
Ntp295
Rp296
(lp297
F0.6925634165505562
aF-0.03161010303150283
aF0.1515468745803516
abag0
(g43
g2
Ntp298
Rp299
(lp300
F-0.5472531305577372
aF0.48193816034954157
aF-0.4457876407294544
aF0.5191560459693428
abababaF0.07
aF-1.0
abag0
(g153
g2
Ntp301
Rp302
(lp303
g0
(g22
g2
Ntp304
Rp305
(lp306
g0
(g26
g2
Ntp307
Rp308
(lp309
I0
ag0
(g30
g2
Ntp310
Rp311
(lp312
I0
aI0
abag75
abag0
(g35
g2
Ntp313
Rp314
(lp315
g0
(g39
g2
Ntp316
Rp317
(lp318
F0.6925634165505562
aF-0.03161010303150283
aF0.1515468745803516
abag0
(g43
g2
Ntp319
Rp320
(lp321
F-0.5472531305577372
aF0.48193816034954157
aF-0.4457876407294544
aF0.5191560459693428
abababaF0.061452065393671054
aF-1.0
abag0
(g153
g2
Ntp322
Rp323
(lp324
g0
(g22
g2
Ntp325
Rp326
(lp327
g0
(g26
g2
Ntp328
Rp329
(lp330
I0
ag0
(g30
g2
Ntp331
Rp332
(lp333
I0
aI0
abag75
abag0
(g35
g2
Ntp334
Rp335
(lp336
g0
(g39
g2
Ntp337
Rp338
(lp339
F0.6925634165505562
aF-0.03161010303150283
aF0.1515468745803516
abag0
(g43
g2
Ntp340
Rp341
(lp342
F-0.5472531305577372
aF0.48193816034954157
aF-0.4457876407294544
aF0.5191560459693428
abababaF0.2004
aF-1.0
abag0
(g153
g2
Ntp343
Rp344
(lp345
g0
(g22
g2
Ntp346
Rp347
(lp348
g0
(g26
g2
Ntp349
Rp350
(lp351
I0
ag0
(g30
g2
Ntp352
Rp353
(lp354
I0
aI0
abag75
abag0
(g35
g2
Ntp355
Rp356
(lp357
g0
(g39
g2
Ntp358
Rp359
(lp360
F0.6925634165505562
aF-0.03161010303150283
aF0.1515468745803516
abag0
(g43
g2
Ntp361
Rp362
(lp363
F-0.5472531305577372
aF0.48193816034954157
aF-0.4457876407294544
aF0.5191560459693428
abababaF0.1596
aF-1.0
abag0
(g153
g2
Ntp364
Rp365
(lp366
g0
(g22
g2
Ntp367
Rp368
(lp369
g0
(g26
g2
Ntp370
Rp371
(lp372
I0
ag0
(g30
g2
Ntp373
Rp374
(lp375
I0
aI0
abag75
abag0
(g35
g2
Ntp376
Rp377
(lp378
g0
(g39
g2
Ntp379
Rp380
(lp381
F0.6925634165505562
aF-0.03161010303150283
aF0.1515468745803516
abag0
(g43
g2
Ntp382
Rp383
(lp384
F-0.5472531305577372
aF0.48193816034954157
aF-0.4457876407294544
aF0.5191560459693428
abababaF0.146
aF-1.0
abasg202
I1
sg203
(dp385
g205
(lp386
F0.07
aF0.061452065393671054
aF0.2004
aF0.1596
aF0.146
asg207
(lp387
F-1.0
asg151
(lp388
g0
(g22
g2
Ntp389
Rp390
(lp391
g0
(g26
g2
Ntp392
Rp393
(lp394
I0
ag0
(g30
g2
Ntp395
Rp396
(lp397
I0
aI0
abag75
abag0
(g35
g2
Ntp398
Rp399
(lp400
g0
(g39
g2
Ntp401
Rp402
(lp403
F0.6925634165505562
aF-0.03161010303150283
aF0.1515468745803516
abag0
(g43
g2
Ntp404
Rp405
(lp406
F-0.5472531305577372
aF0.48193816034954157
aF-0.4457876407294544
aF0.5191560459693428
abababassg228
g0
(g153
g2
Ntp407
Rp408
(lp409
g67
aF0.146
aF-1.0
absbag0
(g8
g2
Ntp410
Rp411
(dp412
g142
g145
sg146
I01
sg18
g147
sg148
I2
sg149
(lp413
g151
asg152
g153
sg154
g155
sg158
(lp414
g0
(g153
g2
Ntp415
Rp416
(lp417
g0
(g22
g2
Ntp418
Rp419
(lp420
g0
(g26
g2
Ntp421
Rp422
(lp423
I0
ag0
(g30
g2
Ntp424
Rp425
(lp426
I0
aI0
abag94
abag0
(g35
g2
Ntp427
Rp428
(lp429
g0
(g39
g2
Ntp430
Rp431
(lp432
F0.581848720349036
aF0.37632116390939524
aF0.3458198812985057
abag0
(g43
g2
Ntp433
Rp434
(lp435
F-0.6558731655374604
aF0.2796442810897982
aF-0.2831432228500472
aF0.6414509974547778
abababaF0.07
aF-1.0
abag0
(g153
g2
Ntp436
Rp437
(lp438
g0
(g22
g2
Ntp439
Rp440
(lp441
g0
(g26
g2
Ntp442
Rp443
(lp444
I0
ag0
(g30
g2
Ntp445
Rp446
(lp447
I0
aI0
abag94
abag0
(g35
g2
Ntp448
Rp449
(lp450
g0
(g39
g2
Ntp451
Rp452
(lp453
F0.581848720349036
aF0.37632116390939524
aF0.3458198812985057
abag0
(g43
g2
Ntp454
Rp455
(lp456
F-0.6558731655374604
aF0.2796442810897982
aF-0.2831432228500472
aF0.6414509974547778
abababaF0.25873400146998077
aF-1.0
abag0
(g153
g2
Ntp457
Rp458
(lp459
g0
(g22
g2
Ntp460
Rp461
(lp462
g0
(g26
g2
Ntp463
Rp464
(lp465
I0
ag0
(g30
g2
Ntp466
Rp467
(lp468
I0
aI0
abag94
abag0
(g35
g2
Ntp469
Rp470
(lp471
g0
(g39
g2
Ntp472
Rp473
(lp474
F0.581848720349036
aF0.37632116390939524
aF0.3458198812985057
abag0
(g43
g2
Ntp475
Rp476
(lp477
F-0.6558731655374604
aF0.2796442810897982
aF-0.2831432228500472
aF0.6414509974547778
abababaF0.1596
aF-1.0
abag0
(g153
g2
Ntp478
Rp479
(lp480
g0
(g22
g2
Ntp481
Rp482
(lp483
g0
(g26
g2
Ntp484
Rp485
(lp486
I0
ag0
(g30
g2
Ntp487
Rp488
(lp489
I0
aI0
abag94
abag0
(g35
g2
Ntp490
Rp491
(lp492
g0
(g39
g2
Ntp493
Rp494
(lp495
F0.581848720349036
aF0.37632116390939524
aF0.3458198812985057
abag0
(g43
g2
Ntp496
Rp497
(lp498
F-0.6558731655374604
aF0.2796442810897982
aF-0.2831432228500472
aF0.6414509974547778
abababaF0.1528
aF-1.0
abasg202
I1
sg203
(dp499
g205
(lp500
F0.07
aF0.25873400146998077
aF0.1596
aF0.1528
asg207
(lp501
F-1.0
asg151
(lp502
g0
(g22
g2
Ntp503
Rp504
(lp505
g0
(g26
g2
Ntp506
Rp507
(lp508
I0
ag0
(g30
g2
Ntp509
Rp510
(lp511
I0
aI0
abag94
abag0
(g35
g2
Ntp512
Rp513
(lp514
g0
(g39
g2
Ntp515
Rp516
(lp517
F0.581848720349036
aF0.37632116390939524
aF0.3458198812985057
abag0
(g43
g2
Ntp518
Rp519
(lp520
F-0.6558731655374604
aF0.2796442810897982
aF-0.2831432228500472
aF0.6414509974547778
abababassg228
g0
(g153
g2
Ntp521
Rp522
(lp523
g86
aF0.1528
aF-1.0
absbag0
(g14
g2
Ntp524
Rp525
(dp526
g142
g145
sg146
I01
sg18
g235
sg148
I3
sg149
(lp527
sg152
g237
sg154
g238
sg158
(lp528
g0
(g237
g2
Ntp529
Rp530
(lp531
F10.0
abag0
(g237
g2
Ntp532
Rp533
(lp534
F19.00339040532083
abag0
(g237
g2
Ntp535
Rp536
(lp537
F7.0
abasg202
I1
sg203
(dp538
g249
(lp539
F10.0
aF19.00339040532083
aF7.0
assg228
g0
(g237
g2
Ntp540
Rp541
(lp542
F7.0
absbag0
(g16
g2
Ntp543
Rp544
(dp545
g142
g145
sg146
I01
sg18
S'A Move Fingers primitive'
p546
sg148
I3
sg149
(lp547
S'width'
p548
asg152
cpanda_pbd.srv._MoveFingers
MoveFingersRequest
p549
sg154
(dp550
g548
(lp551
F0.04410567507147789
aF0.08
assg158
(lp552
g0
(g549
g2
Ntp553
Rp554
(lp555
F0.04410567507147789
abag0
(g549
g2
Ntp556
Rp557
(lp558
F0.04440087575231006
abag0
(g549
g2
Ntp559
Rp560
(lp561
F0.0432
abasg202
I1
sg203
(dp562
g548
(lp563
F0.04410567507147789
aF0.04440087575231006
aF0.0432
assg228
g0
(g549
g2
Ntp564
Rp565
(lp566
F0.0432
absbag0
(g8
g2
Ntp567
Rp568
(dp569
g142
g145
sg146
I01
sg18
g147
sg148
I3
sg149
(lp570
g151
asg152
g153
sg154
g155
sg158
(lp571
g0
(g153
g2
Ntp572
Rp573
(lp574
g0
(g22
g2
Ntp575
Rp576
(lp577
g0
(g26
g2
Ntp578
Rp579
(lp580
I0
ag0
(g30
g2
Ntp581
Rp582
(lp583
I0
aI0
abag113
abag0
(g35
g2
Ntp584
Rp585
(lp586
g0
(g39
g2
Ntp587
Rp588
(lp589
F0.44612082019446336
aF-0.04256435300120127
aF0.408240721202241
abag0
(g43
g2
Ntp590
Rp591
(lp592
F0.9998713088044058
aF-0.010703239032880212
aF-0.0070168970835132564
aF-0.009673141128363653
abababaF0.07
aF-1.0
abag0
(g153
g2
Ntp593
Rp594
(lp595
g0
(g22
g2
Ntp596
Rp597
(lp598
g0
(g26
g2
Ntp599
Rp600
(lp601
I0
ag0
(g30
g2
Ntp602
Rp603
(lp604
I0
aI0
abag113
abag0
(g35
g2
Ntp605
Rp606
(lp607
g0
(g39
g2
Ntp608
Rp609
(lp610
F0.44612082019446336
aF-0.04256435300120127
aF0.408240721202241
abag0
(g43
g2
Ntp611
Rp612
(lp613
F0.9998713088044058
aF-0.010703239032880212
aF-0.0070168970835132564
aF-0.009673141128363653
abababaF0.07985381937774738
aF-1.0
abag0
(g153
g2
Ntp614
Rp615
(lp616
g0
(g22
g2
Ntp617
Rp618
(lp619
g0
(g26
g2
Ntp620
Rp621
(lp622
I0
ag0
(g30
g2
Ntp623
Rp624
(lp625
I0
aI0
abag113
abag0
(g35
g2
Ntp626
Rp627
(lp628
g0
(g39
g2
Ntp629
Rp630
(lp631
F0.44612082019446336
aF-0.04256435300120127
aF0.408240721202241
abag0
(g43
g2
Ntp632
Rp633
(lp634
F0.9998713088044058
aF-0.010703239032880212
aF-0.0070168970835132564
aF-0.009673141128363653
abababaF0.2956
aF-1.0
abasg202
I2
sg203
(dp635
g205
(lp636
F0.07
aF0.07985381937774738
aF0.2956
asg207
(lp637
F-1.0
asg151
(lp638
g0
(g22
g2
Ntp639
Rp640
(lp641
g0
(g26
g2
Ntp642
Rp643
(lp644
I0
ag0
(g30
g2
Ntp645
Rp646
(lp647
I0
aI0
abag113
abag0
(g35
g2
Ntp648
Rp649
(lp650
g0
(g39
g2
Ntp651
Rp652
(lp653
F0.44612082019446336
aF-0.04256435300120127
aF0.408240721202241
abag0
(g43
g2
Ntp654
Rp655
(lp656
F0.9998713088044058
aF-0.010703239032880212
aF-0.0070168970835132564
aF-0.009673141128363653
abababassg228
g0
(g153
g2
Ntp657
Rp658
(lp659
g105
aF0.2956
aF-1.0
absbasS'name'
p660
S'A Panda Program'
p661
sb.