ccopy_reg
_reconstructor
p0
(cpanda_eup.panda_primitive
PandaProgram
p1
c__builtin__
object
p2
Ntp3
Rp4
(dp5
S'effect_of_primitive'
p6
(dp7
cpanda_eup.panda_primitive
UserSync
p8
(lp9
I00
aI00
ascpanda_eup.panda_primitive
ApplyForceFingers
p10
(lp11
I00
aI01
ascpanda_eup.panda_primitive
MoveToEE
p12
(lp13
I01
aI00
ascpanda_eup.panda_primitive
MoveToContact
p14
(lp15
I01
aI00
ascpanda_eup.panda_primitive
MoveFingers
p16
(lp17
I00
aI01
assS'description'
p18
S'Empty Description'
p19
sS'arm_state_list'
p20
(lp21
g0
(cgeometry_msgs.msg._PoseStamped
PoseStamped
p22
g2
Ntp23
Rp24
(lp25
g0
(cstd_msgs.msg._Header
Header
p26
g2
Ntp27
Rp28
(lp29
I0
ag0
(cgenpy.rostime
Time
p30
g2
Ntp31
Rp32
(lp33
I0
aI0
abaS'panda_link0'
p34
abag0
(cgeometry_msgs.msg._Pose
Pose
p35
g2
Ntp36
Rp37
(lp38
g0
(cgeometry_msgs.msg._Point
Point
p39
g2
Ntp40
Rp41
(lp42
F0.4085007637617008
aF-0.04743834298515986
aF0.41592672837953215
abag0
(cgeometry_msgs.msg._Quaternion
Quaternion
p43
g2
Ntp44
Rp45
(lp46
F0.999969677491424
aF0.006662980259596884
aF0.001583209543998861
aF0.0037070526429503078
abababag0
(g22
g2
Ntp47
Rp48
(lp49
g0
(g26
g2
Ntp50
Rp51
(lp52
I0
ag0
(g30
g2
Ntp53
Rp54
(lp55
I0
aI0
abaS'panda_link0'
p56
abag0
(g35
g2
Ntp57
Rp58
(lp59
g0
(g39
g2
Ntp60
Rp61
(lp62
F0.5555374971188675
aF-0.3665594011198935
aF0.2768798697008012
abag0
(g43
g2
Ntp63
Rp64
(lp65
F-0.5202366923331977
aF0.488836282074162
aF-0.4848922246640578
aF0.5052448948168257
abababag0
(g22
g2
Ntp66
Rp67
(lp68
g0
(g26
g2
Ntp69
Rp70
(lp71
I0
ag0
(g30
g2
Ntp72
Rp73
(lp74
I0
aI0
abaS'panda_link0'
p75
abag0
(g35
g2
Ntp76
Rp77
(lp78
g0
(g39
g2
Ntp79
Rp80
(lp81
F0.6925634165505562
aF-0.03161010303150283
aF0.1515468745803516
abag0
(g43
g2
Ntp82
Rp83
(lp84
F-0.5472531305577372
aF0.48193816034954157
aF-0.4457876407294544
aF0.5191560459693428
abababag0
(g22
g2
Ntp85
Rp86
(lp87
g0
(g26
g2
Ntp88
Rp89
(lp90
I0
ag0
(g30
g2
Ntp91
Rp92
(lp93
I0
aI0
abaS'panda_link0'
p94
abag0
(g35
g2
Ntp95
Rp96
(lp97
g0
(g39
g2
Ntp98
Rp99
(lp100
F0.581848720349036
aF0.37632116390939524
aF0.3458198812985057
abag0
(g43
g2
Ntp101
Rp102
(lp103
F-0.6558731655374604
aF0.2796442810897982
aF-0.2831432228500472
aF0.6414509974547778
abababag0
(g22
g2
Ntp104
Rp105
(lp106
g0
(g26
g2
Ntp107
Rp108
(lp109
I0
ag0
(g30
g2
Ntp110
Rp111
(lp112
I0
aI0
abaS'panda_link0'
p113
abag0
(g35
g2
Ntp114
Rp115
(lp116
g0
(g39
g2
Ntp117
Rp118
(lp119
F0.44612082019446336
aF-0.04256435300120127
aF0.408240721202241
abag0
(g43
g2
Ntp120
Rp121
(lp122
F0.9998713088044058
aF-0.010703239032880212
aF-0.0070168970835132564
aF-0.009673141128363653
abababasS'gripper_state_list'
p123
(lp124
g0
(cpanda_eup.panda_primitive
GripperState
p125
g2
Ntp126
Rp127
(dp128
S'width'
p129
F0.08
sS'force'
p130
F0.0
sbag0
(g125
g2
Ntp131
Rp132
(dp133
g129
F0.002176850102841854
sg130
F28.0
sbag0
(g125
g2
Ntp134
Rp135
(dp136
g129
F0.04225912690162659
sg130
F0.0
sbasS'primitives'
p137
(lp138
g0
(g12
g2
Ntp139
Rp140
(dp141
S'status'
p142
cpanda_eup.panda_primitive
PandaPrimitiveStatus
p143
(I1
tp144
Rp145
sS'revertible'
p146
I01
sg18
S'A Move to End-Effector primitive'
p147
sS'starting_arm_state_index'
p148
I0
sS'parameters_with_effects_on_robot_state'
p149
(lp150
S'pose'
p151
asS'expected_container'
p152
cpanda_pbd.msg._MoveToEEGoal
MoveToEEGoal
p153
sS'gui_tunable_parameter_strict_ranges'
p154
(dp155
S'position_speed'
p156
(lp157
F0.01
aF0.35
assS'container_update_history'
p158
(lp159
g0
(g153
g2
Ntp160
Rp161
(lp162
g0
(g22
g2
Ntp163
Rp164
(lp165
g0
(g26
g2
Ntp166
Rp167
(lp168
I0
ag0
(g30
g2
Ntp169
Rp170
(lp171
I0
aI0
abag56
abag0
(g35
g2
Ntp172
Rp173
(lp174
g0
(g39
g2
Ntp175
Rp176
(lp177
F0.5555374971188675
aF-0.3665594011198935
aF0.2768798697008012
abag0
(g43
g2
Ntp178
Rp179
(lp180
F-0.5202366923331977
aF0.488836282074162
aF-0.4848922246640578
aF0.5052448948168257
abababaF0.07
aF-1.0
abag0
(g153
g2
Ntp181
Rp182
(lp183
g0
(g22
g2
Ntp184
Rp185
(lp186
g0
(g26
g2
Ntp187
Rp188
(lp189
I0
ag0
(g30
g2
Ntp190
Rp191
(lp192
I0
aI0
abag56
abag0
(g35
g2
Ntp193
Rp194
(lp195
g0
(g39
g2
Ntp196
Rp197
(lp198
F0.5555374971188675
aF-0.3665594011198935
aF0.2768798697008012
abag0
(g43
g2
Ntp199
Rp200
(lp201
F-0.5202366923331977
aF0.488836282074162
aF-0.4848922246640578
aF0.5052448948168257
abababaF0.22800557698271617
aF-1.0
abag0
(g153
g2
Ntp202
Rp203
(lp204
g0
(g22
g2
Ntp205
Rp206
(lp207
g0
(g26
g2
Ntp208
Rp209
(lp210
I0
ag0
(g30
g2
Ntp211
Rp212
(lp213
I0
aI0
abag56
abag0
(g35
g2
Ntp214
Rp215
(lp216
g0
(g39
g2
Ntp217
Rp218
(lp219
F0.5555374971188675
aF-0.3665594011198935
aF0.2768798697008012
abag0
(g43
g2
Ntp220
Rp221
(lp222
F-0.5202366923331977
aF0.488836282074162
aF-0.4848922246640578
aF0.5052448948168257
abababaF0.25479999999999997
aF-1.0
abasS'starting_gripper_state_index'
p223
I0
sS'parameters_update_history'
p224
(dp225
S'position_speed'
p226
(lp227
F0.07
aF0.22800557698271617
aF0.25479999999999997
asS'rotation_speed'
p228
(lp229
F-1.0
asg151
(lp230
g0
(g22
g2
Ntp231
Rp232
(lp233
g0
(g26
g2
Ntp234
Rp235
(lp236
I0
ag0
(g30
g2
Ntp237
Rp238
(lp239
I0
aI0
abag56
abag0
(g35
g2
Ntp240
Rp241
(lp242
g0
(g39
g2
Ntp243
Rp244
(lp245
F0.5555374971188675
aF-0.3665594011198935
aF0.2768798697008012
abag0
(g43
g2
Ntp246
Rp247
(lp248
F-0.5202366923331977
aF0.488836282074162
aF-0.4848922246640578
aF0.5052448948168257
abababassS'parameter_container'
p249
g0
(g153
g2
Ntp250
Rp251
(lp252
g48
aF0.25479999999999997
aF-1.0
absbag0
(g8
g2
Ntp253
Rp254
(dp255
g142
g145
sg146
I01
sg18
S'A User Synchronization primitive'
p256
sg148
I1
sg149
(lp257
sg152
cpanda_pbd.msg._UserSyncGoal
UserSyncGoal
p258
sg154
(dp259
S'force_threshold'
p260
(lp261
F5.0
aF30.0
assg158
(lp262
g0
(g258
g2
Ntp263
Rp264
(lp265
F10.0
abag0
(g258
g2
Ntp266
Rp267
(lp268
F13.976200382939972
abag0
(g258
g2
Ntp269
Rp270
(lp271
F10.0
abag0
(g258
g2
Ntp272
Rp273
(lp274
F5.0
abasg223
I0
sg224
(dp275
S'force_threshold'
p276
(lp277
F10.0
aF13.976200382939972
aF10.0
aF5.0
assg249
g0
(g258
g2
Ntp278
Rp279
(lp280
F5.0
absbag0
(g10
g2
Ntp281
Rp282
(dp283
g142
g145
sg146
I01
sg18
S'A Apply Force (with) Fingers primitive'
p284
sg148
I1
sg149
(lp285
S'force'
p286
asg152
cpanda_pbd.srv._ApplyForceFingers
ApplyForceFingersRequest
p287
sg154
(dp288
g130
(lp289
F20.0
aF60.0
assg158
(lp290
g0
(g287
g2
Ntp291
Rp292
(lp293
F20.0
abag0
(g287
g2
Ntp294
Rp295
(lp296
F30.025749571579816
abag0
(g287
g2
Ntp297
Rp298
(lp299
F25.6
abag0
(g287
g2
Ntp300
Rp301
(lp302
F28.0
abasg223
I0
sg224
(dp303
g286
(lp304
F20.0
aF30.025749571579816
aF25.6
aF28.0
assg249
g0
(g287
g2
Ntp305
Rp306
(lp307
F28.0
absbag0
(g12
g2
Ntp308
Rp309
(dp310
g142
g145
sg146
I01
sg18
g147
sg148
I1
sg149
(lp311
g151
asg152
g153
sg154
g155
sg158
(lp312
g0
(g153
g2
Ntp313
Rp314
(lp315
g0
(g22
g2
Ntp316
Rp317
(lp318
g0
(g26
g2
Ntp319
Rp320
(lp321
I0
ag0
(g30
g2
Ntp322
Rp323
(lp324
I0
aI0
abag75
abag0
(g35
g2
Ntp325
Rp326
(lp327
g0
(g39
g2
Ntp328
Rp329
(lp330
F0.6925634165505562
aF-0.03161010303150283
aF0.1515468745803516
abag0
(g43
g2
Ntp331
Rp332
(lp333
F-0.5472531305577372
aF0.48193816034954157
aF-0.4457876407294544
aF0.5191560459693428
abababaF0.07
aF-1.0
abag0
(g153
g2
Ntp334
Rp335
(lp336
g0
(g22
g2
Ntp337
Rp338
(lp339
g0
(g26
g2
Ntp340
Rp341
(lp342
I0
ag0
(g30
g2
Ntp343
Rp344
(lp345
I0
aI0
abag75
abag0
(g35
g2
Ntp346
Rp347
(lp348
g0
(g39
g2
Ntp349
Rp350
(lp351
F0.6925634165505562
aF-0.03161010303150283
aF0.1515468745803516
abag0
(g43
g2
Ntp352
Rp353
(lp354
F-0.5472531305577372
aF0.48193816034954157
aF-0.4457876407294544
aF0.5191560459693428
abababaF0.2735649872338878
aF-1.0
abag0
(g153
g2
Ntp355
Rp356
(lp357
g0
(g22
g2
Ntp358
Rp359
(lp360
g0
(g26
g2
Ntp361
Rp362
(lp363
I0
ag0
(g30
g2
Ntp364
Rp365
(lp366
I0
aI0
abag75
abag0
(g35
g2
Ntp367
Rp368
(lp369
g0
(g39
g2
Ntp370
Rp371
(lp372
F0.6925634165505562
aF-0.03161010303150283
aF0.1515468745803516
abag0
(g43
g2
Ntp373
Rp374
(lp375
F-0.5472531305577372
aF0.48193816034954157
aF-0.4457876407294544
aF0.5191560459693428
abababaF0.0576
aF-1.0
abasg223
I1
sg224
(dp376
g226
(lp377
F0.07
aF0.2735649872338878
aF0.0576
asg228
(lp378
F-1.0
asg151
(lp379
g0
(g22
g2
Ntp380
Rp381
(lp382
g0
(g26
g2
Ntp383
Rp384
(lp385
I0
ag0
(g30
g2
Ntp386
Rp387
(lp388
I0
aI0
abag75
abag0
(g35
g2
Ntp389
Rp390
(lp391
g0
(g39
g2
Ntp392
Rp393
(lp394
F0.6925634165505562
aF-0.03161010303150283
aF0.1515468745803516
abag0
(g43
g2
Ntp395
Rp396
(lp397
F-0.5472531305577372
aF0.48193816034954157
aF-0.4457876407294544
aF0.5191560459693428
abababassg249
g0
(g153
g2
Ntp398
Rp399
(lp400
g67
aF0.0576
aF-1.0
absbag0
(g12
g2
Ntp401
Rp402
(dp403
g142
g145
sg146
I01
sg18
g147
sg148
I2
sg149
(lp404
g151
asg152
g153
sg154
g155
sg158
(lp405
g0
(g153
g2
Ntp406
Rp407
(lp408
g0
(g22
g2
Ntp409
Rp410
(lp411
g0
(g26
g2
Ntp412
Rp413
(lp414
I0
ag0
(g30
g2
Ntp415
Rp416
(lp417
I0
aI0
abag94
abag0
(g35
g2
Ntp418
Rp419
(lp420
g0
(g39
g2
Ntp421
Rp422
(lp423
F0.581848720349036
aF0.37632116390939524
aF0.3458198812985057
abag0
(g43
g2
Ntp424
Rp425
(lp426
F-0.6558731655374604
aF0.2796442810897982
aF-0.2831432228500472
aF0.6414509974547778
abababaF0.07
aF-1.0
abag0
(g153
g2
Ntp427
Rp428
(lp429
g0
(g22
g2
Ntp430
Rp431
(lp432
g0
(g26
g2
Ntp433
Rp434
(lp435
I0
ag0
(g30
g2
Ntp436
Rp437
(lp438
I0
aI0
abag94
abag0
(g35
g2
Ntp439
Rp440
(lp441
g0
(g39
g2
Ntp442
Rp443
(lp444
F0.581848720349036
aF0.37632116390939524
aF0.3458198812985057
abag0
(g43
g2
Ntp445
Rp446
(lp447
F-0.6558731655374604
aF0.2796442810897982
aF-0.2831432228500472
aF0.6414509974547778
abababaF0.09979743136473837
aF-1.0
abag0
(g153
g2
Ntp448
Rp449
(lp450
g0
(g22
g2
Ntp451
Rp452
(lp453
g0
(g26
g2
Ntp454
Rp455
(lp456
I0
ag0
(g30
g2
Ntp457
Rp458
(lp459
I0
aI0
abag94
abag0
(g35
g2
Ntp460
Rp461
(lp462
g0
(g39
g2
Ntp463
Rp464
(lp465
F0.581848720349036
aF0.37632116390939524
aF0.3458198812985057
abag0
(g43
g2
Ntp466
Rp467
(lp468
F-0.6558731655374604
aF0.2796442810897982
aF-0.2831432228500472
aF0.6414509974547778
abababaF0.09839999999999999
aF-1.0
abag0
(g153
g2
Ntp469
Rp470
(lp471
g0
(g22
g2
Ntp472
Rp473
(lp474
g0
(g26
g2
Ntp475
Rp476
(lp477
I0
ag0
(g30
g2
Ntp478
Rp479
(lp480
I0
aI0
abag94
abag0
(g35
g2
Ntp481
Rp482
(lp483
g0
(g39
g2
Ntp484
Rp485
(lp486
F0.581848720349036
aF0.37632116390939524
aF0.3458198812985057
abag0
(g43
g2
Ntp487
Rp488
(lp489
F-0.6558731655374604
aF0.2796442810897982
aF-0.2831432228500472
aF0.6414509974547778
abababaF0.1256
aF-1.0
abasg223
I1
sg224
(dp490
g226
(lp491
F0.07
aF0.09979743136473837
aF0.09839999999999999
aF0.1256
asg228
(lp492
F-1.0
asg151
(lp493
g0
(g22
g2
Ntp494
Rp495
(lp496
g0
(g26
g2
Ntp497
Rp498
(lp499
I0
ag0
(g30
g2
Ntp500
Rp501
(lp502
I0
aI0
abag94
abag0
(g35
g2
Ntp503
Rp504
(lp505
g0
(g39
g2
Ntp506
Rp507
(lp508
F0.581848720349036
aF0.37632116390939524
aF0.3458198812985057
abag0
(g43
g2
Ntp509
Rp510
(lp511
F-0.6558731655374604
aF0.2796442810897982
aF-0.2831432228500472
aF0.6414509974547778
abababassg249
g0
(g153
g2
Ntp512
Rp513
(lp514
g86
aF0.1256
aF-1.0
absbag0
(g8
g2
Ntp515
Rp516
(dp517
g142
g145
sg146
I01
sg18
g256
sg148
I3
sg149
(lp518
sg152
g258
sg154
g259
sg158
(lp519
g0
(g258
g2
Ntp520
Rp521
(lp522
F10.0
abag0
(g258
g2
Ntp523
Rp524
(lp525
F24.6443097119017
abag0
(g258
g2
Ntp526
Rp527
(lp528
F5.0
abasg223
I1
sg224
(dp529
g276
(lp530
F10.0
aF24.6443097119017
aF5.0
assg249
g0
(g258
g2
Ntp531
Rp532
(lp533
F5.0
absbag0
(g16
g2
Ntp534
Rp535
(dp536
g142
g145
sg146
I01
sg18
S'A Move Fingers primitive'
p537
sg148
I3
sg149
(lp538
S'width'
p539
asg152
cpanda_pbd.srv._MoveFingers
MoveFingersRequest
p540
sg154
(dp541
g539
(lp542
F0.04410567507147789
aF0.08
assg158
(lp543
g0
(g540
g2
Ntp544
Rp545
(lp546
F0.04410567507147789
abag0
(g540
g2
Ntp547
Rp548
(lp549
F0.07157093257583017
abag0
(g540
g2
Ntp550
Rp551
(lp552
F0.0528
abag0
(g540
g2
Ntp553
Rp554
(lp555
F0.0432
abasg223
I1
sg224
(dp556
g539
(lp557
F0.04410567507147789
aF0.07157093257583017
aF0.0528
aF0.0432
assg249
g0
(g540
g2
Ntp558
Rp559
(lp560
F0.0432
absbag0
(g12
g2
Ntp561
Rp562
(dp563
g142
g145
sg146
I01
sg18
g147
sg148
I3
sg149
(lp564
g151
asg152
g153
sg154
g155
sg158
(lp565
g0
(g153
g2
Ntp566
Rp567
(lp568
g0
(g22
g2
Ntp569
Rp570
(lp571
g0
(g26
g2
Ntp572
Rp573
(lp574
I0
ag0
(g30
g2
Ntp575
Rp576
(lp577
I0
aI0
abag113
abag0
(g35
g2
Ntp578
Rp579
(lp580
g0
(g39
g2
Ntp581
Rp582
(lp583
F0.44612082019446336
aF-0.04256435300120127
aF0.408240721202241
abag0
(g43
g2
Ntp584
Rp585
(lp586
F0.9998713088044058
aF-0.010703239032880212
aF-0.0070168970835132564
aF-0.009673141128363653
abababaF0.07
aF-1.0
abag0
(g153
g2
Ntp587
Rp588
(lp589
g0
(g22
g2
Ntp590
Rp591
(lp592
g0
(g26
g2
Ntp593
Rp594
(lp595
I0
ag0
(g30
g2
Ntp596
Rp597
(lp598
I0
aI0
abag113
abag0
(g35
g2
Ntp599
Rp600
(lp601
g0
(g39
g2
Ntp602
Rp603
(lp604
F0.44612082019446336
aF-0.04256435300120127
aF0.408240721202241
abag0
(g43
g2
Ntp605
Rp606
(lp607
F0.9998713088044058
aF-0.010703239032880212
aF-0.0070168970835132564
aF-0.009673141128363653
abababaF0.15619874782351414
aF-1.0
abag0
(g153
g2
Ntp608
Rp609
(lp610
g0
(g22
g2
Ntp611
Rp612
(lp613
g0
(g26
g2
Ntp614
Rp615
(lp616
I0
ag0
(g30
g2
Ntp617
Rp618
(lp619
I0
aI0
abag113
abag0
(g35
g2
Ntp620
Rp621
(lp622
g0
(g39
g2
Ntp623
Rp624
(lp625
F0.44612082019446336
aF-0.04256435300120127
aF0.408240721202241
abag0
(g43
g2
Ntp626
Rp627
(lp628
F0.9998713088044058
aF-0.010703239032880212
aF-0.0070168970835132564
aF-0.009673141128363653
abababaF0.2616
aF-1.0
abasg223
I2
sg224
(dp629
g226
(lp630
F0.07
aF0.15619874782351414
aF0.2616
asg228
(lp631
F-1.0
asg151
(lp632
g0
(g22
g2
Ntp633
Rp634
(lp635
g0
(g26
g2
Ntp636
Rp637
(lp638
I0
ag0
(g30
g2
Ntp639
Rp640
(lp641
I0
aI0
abag113
abag0
(g35
g2
Ntp642
Rp643
(lp644
g0
(g39
g2
Ntp645
Rp646
(lp647
F0.44612082019446336
aF-0.04256435300120127
aF0.408240721202241
abag0
(g43
g2
Ntp648
Rp649
(lp650
F0.9998713088044058
aF-0.010703239032880212
aF-0.0070168970835132564
aF-0.009673141128363653
abababassg249
g0
(g153
g2
Ntp651
Rp652
(lp653
g105
aF0.2616
aF-1.0
absbasS'name'
p654
S'A Panda Program'
p655
sb.