(dp0
S'program'
p1
ccopy_reg
_reconstructor
p2
(cpanda_eup.panda_primitive
PandaProgram
p3
c__builtin__
object
p4
Ntp5
Rp6
(dp7
S'effect_of_primitive'
p8
(dp9
cpanda_eup.panda_primitive
UserSync
p10
(lp11
I00
aI00
ascpanda_eup.panda_primitive
MoveFingers
p12
(lp13
I00
aI01
ascpanda_eup.panda_primitive
MoveToContact
p14
(lp15
I01
aI00
ascpanda_eup.panda_primitive
ApplyForceFingers
p16
(lp17
I00
aI01
ascpanda_eup.panda_primitive
MoveToEE
p18
(lp19
I01
aI00
assS'description'
p20
S'Empty Description'
p21
sS'arm_state_list'
p22
(lp23
g2
(cgeometry_msgs.msg._PoseStamped
PoseStamped
p24
g4
Ntp25
Rp26
(lp27
g2
(cstd_msgs.msg._Header
Header
p28
g4
Ntp29
Rp30
(lp31
I0
ag2
(cgenpy.rostime
Time
p32
g4
Ntp33
Rp34
(lp35
I0
aI0
abaS'panda_link0'
p36
abag2
(cgeometry_msgs.msg._Pose
Pose
p37
g4
Ntp38
Rp39
(lp40
g2
(cgeometry_msgs.msg._Point
Point
p41
g4
Ntp42
Rp43
(lp44
F0.4833974233623748
aF0.007318751177980708
aF0.3904495689279949
abag2
(cgeometry_msgs.msg._Quaternion
Quaternion
p45
g4
Ntp46
Rp47
(lp48
F0.9993500431690824
aF-0.014042189921340717
aF-0.02007113406023331
aF-0.026447262574839425
abababag2
(g24
g4
Ntp49
Rp50
(lp51
g2
(g28
g4
Ntp52
Rp53
(lp54
I0
ag2
(g32
g4
Ntp55
Rp56
(lp57
I0
aI0
abaS'panda_link0'
p58
abag2
(g37
g4
Ntp59
Rp60
(lp61
g2
(g41
g4
Ntp62
Rp63
(lp64
F0.5010242753887824
aF0.005784663564815003
aF0.02290985250700006
abag2
(g45
g4
Ntp65
Rp66
(lp67
F0.9991504310873508
aF-0.03379487755861387
aF0.008469640857011112
aF-0.022013348053234134
abababag2
(g24
g4
Ntp68
Rp69
(lp70
g2
(g28
g4
Ntp71
Rp72
(lp73
I0
ag2
(g32
g4
Ntp74
Rp75
(lp76
I0
aI0
abaS'panda_link0'
p77
abag2
(g37
g4
Ntp78
Rp79
(lp80
g2
(g41
g4
Ntp81
Rp82
(lp83
F0.6404225030201885
aF-0.21899515188976365
aF0.31947401035356376
abag2
(g45
g4
Ntp84
Rp85
(lp86
F0.8476936441278499
aF-0.15503337362532482
aF0.5028616917286283
aF0.06715845262823286
abababag2
(g24
g4
Ntp87
Rp88
(lp89
g2
(g28
g4
Ntp90
Rp91
(lp92
I0
ag2
(g32
g4
Ntp93
Rp94
(lp95
I0
aI0
abaS'panda_link0'
p96
abag2
(g37
g4
Ntp97
Rp98
(lp99
g2
(g41
g4
Ntp100
Rp101
(lp102
F0.48697273191184176
aF-0.0003249795766055996
aF0.3672047165651558
abag2
(g45
g4
Ntp103
Rp104
(lp105
F0.9986485219265587
aF-0.028677903984510297
aF0.042164274523526495
aF-0.010043974853580964
abababasS'gripper_state_list'
p106
(lp107
g2
(cpanda_eup.panda_primitive
GripperState
p108
g4
Ntp109
Rp110
(dp111
S'width'
p112
F0.08
sS'force'
p113
F0.0
sbag2
(g108
g4
Ntp114
Rp115
(dp116
g112
F0.03179711475968361
sg113
F22.4
sbag2
(g108
g4
Ntp117
Rp118
(dp119
g112
F0.06222376227378845
sg113
F0.0
sbasS'primitives'
p120
(lp121
g2
(g14
g4
Ntp122
Rp123
(dp124
S'status'
p125
cpanda_eup.panda_primitive
PandaPrimitiveStatus
p126
(I1
tp127
Rp128
sS'revertible'
p129
I01
sg20
S'A Move to Contact primitive'
p130
sS'parameters_range_history'
p131
(dp132
S'force_threshold'
p133
(lp134
(lp135
F5.0
aF11.6
aasS'position_speed'
p136
(lp137
(lp138
F0.01
aF0.20199999999999999
aa(lp139
F0.0532
aF0.20199999999999999
aassS'starting_arm_state_index'
p140
I0
sS'parameters_with_effects_on_robot_state'
p141
(lp142
S'pose'
p143
aS'force_threshold'
p144
aS'torque_threshold'
p145
asS'expected_container'
p146
cpanda_pbd.msg._MoveToContactGoal
MoveToContactGoal
p147
sS'gui_tunable_parameter_strict_ranges'
p148
(dp149
g133
(lp150
F5.0
aF20.0
asg136
(lp151
F0.01
aF0.25
assS'container_update_history'
p152
(lp153
g2
(g147
g4
Ntp154
Rp155
(lp156
g2
(g24
g4
Ntp157
Rp158
(lp159
g2
(g28
g4
Ntp160
Rp161
(lp162
I0
ag2
(g32
g4
Ntp163
Rp164
(lp165
I0
aI0
abaS'panda_link0'
p166
abag2
(g37
g4
Ntp167
Rp168
(lp169
g2
(g41
g4
Ntp170
Rp171
(lp172
F0.5069132714754178
aF0.004873624607929537
aF0.027077189596690976
abag2
(g45
g4
Ntp173
Rp174
(lp175
F0.9995143312059889
aF-0.02583181235790082
aF0.016166211683465017
aF-0.006517114695673689
abababaF0.03218601190877399
aF-1.0
aF14.473120992300771
aF10.0
abag2
(g147
g4
Ntp176
Rp177
(lp178
g2
(g24
g4
Ntp179
Rp180
(lp181
g2
(g28
g4
Ntp182
Rp183
(lp184
I0
ag2
(g32
g4
Ntp185
Rp186
(lp187
I0
aI0
abag166
abag2
(g37
g4
Ntp188
Rp189
(lp190
g2
(g41
g4
Ntp191
Rp192
(lp193
F0.5069132714754178
aF0.004873624607929537
aF0.027077189596690976
abag2
(g45
g4
Ntp194
Rp195
(lp196
F0.9995143312059889
aF-0.02583181235790082
aF0.016166211683465017
aF-0.006517114695673689
abababaF0.03218601190877399
aF-1.0
aF10.1
aF10.0
abag2
(g147
g4
Ntp197
Rp198
(lp199
g2
(g24
g4
Ntp200
Rp201
(lp202
g2
(g28
g4
Ntp203
Rp204
(lp205
I0
ag2
(g32
g4
Ntp206
Rp207
(lp208
I0
aI0
abag166
abag2
(g37
g4
Ntp209
Rp210
(lp211
g2
(g41
g4
Ntp212
Rp213
(lp214
F0.5069132714754178
aF0.004873624607929537
aF0.027077189596690976
abag2
(g45
g4
Ntp215
Rp216
(lp217
F0.9995143312059889
aF-0.02583181235790082
aF0.016166211683465017
aF-0.006517114695673689
abababaF0.20199999999999999
aF-1.0
aF10.1
aF10.0
abag2
(g147
g4
Ntp218
Rp219
(lp220
g2
(g24
g4
Ntp221
Rp222
(lp223
g2
(g28
g4
Ntp224
Rp225
(lp226
I0
ag2
(g32
g4
Ntp227
Rp228
(lp229
I0
aI0
abag166
abag2
(g37
g4
Ntp230
Rp231
(lp232
g2
(g41
g4
Ntp233
Rp234
(lp235
F0.5069132714754178
aF0.004873624607929537
aF0.027077189596690976
abag2
(g45
g4
Ntp236
Rp237
(lp238
F0.9995143312059889
aF-0.02583181235790082
aF0.016166211683465017
aF-0.006517114695673689
abababaF0.20199999999999999
aF-1.0
aF7.699999999999999
aF10.0
abag2
(g147
g4
Ntp239
Rp240
(lp241
g2
(g24
g4
Ntp242
Rp243
(lp244
g2
(g28
g4
Ntp245
Rp246
(lp247
I0
ag2
(g32
g4
Ntp248
Rp249
(lp250
I0
aI0
abag166
abag2
(g37
g4
Ntp251
Rp252
(lp253
g2
(g41
g4
Ntp254
Rp255
(lp256
F0.5069132714754178
aF0.004873624607929537
aF0.027077189596690976
abag2
(g45
g4
Ntp257
Rp258
(lp259
F0.9995143312059889
aF-0.02583181235790082
aF0.016166211683465017
aF-0.006517114695673689
abababaF0.0532
aF-1.0
aF7.699999999999999
aF10.0
abag2
(g147
g4
Ntp260
Rp261
(lp262
g2
(g24
g4
Ntp263
Rp264
(lp265
g2
(g28
g4
Ntp266
Rp267
(lp268
I0
ag2
(g32
g4
Ntp269
Rp270
(lp271
I0
aI0
abag166
abag2
(g37
g4
Ntp272
Rp273
(lp274
g2
(g41
g4
Ntp275
Rp276
(lp277
F0.5069132714754178
aF0.004873624607929537
aF0.027077189596690976
abag2
(g45
g4
Ntp278
Rp279
(lp280
F0.9995143312059889
aF-0.02583181235790082
aF0.016166211683465017
aF-0.006517114695673689
abababaF0.0532
aF-1.0
aF7.4
aF10.0
abag2
(g147
g4
Ntp281
Rp282
(lp283
g2
(g24
g4
Ntp284
Rp285
(lp286
g2
(g28
g4
Ntp287
Rp288
(lp289
I0
ag2
(g32
g4
Ntp290
Rp291
(lp292
I0
aI0
abag166
abag2
(g37
g4
Ntp293
Rp294
(lp295
g2
(g41
g4
Ntp296
Rp297
(lp298
F0.5069132714754178
aF0.004873624607929537
aF0.027077189596690976
abag2
(g45
g4
Ntp299
Rp300
(lp301
F0.9995143312059889
aF-0.02583181235790082
aF0.016166211683465017
aF-0.006517114695673689
abababaF0.12039999999999998
aF-1.0
aF7.4
aF10.0
abasS'starting_gripper_state_index'
p302
I0
sS'parameters_update_history'
p303
(dp304
g136
(lp305
F0.03218601190877399
aF0.20199999999999999
aF0.0532
aF0.12039999999999998
asg133
(lp306
F14.473120992300771
aF10.1
aF7.699999999999999
aF7.4
asS'pose'
p307
(lp308
g2
(g24
g4
Ntp309
Rp310
(lp311
g2
(g28
g4
Ntp312
Rp313
(lp314
I0
ag2
(g32
g4
Ntp315
Rp316
(lp317
I0
aI0
abag166
abag2
(g37
g4
Ntp318
Rp319
(lp320
g2
(g41
g4
Ntp321
Rp322
(lp323
F0.5069132714754178
aF0.004873624607929537
aF0.027077189596690976
abag2
(g45
g4
Ntp324
Rp325
(lp326
F0.9995143312059889
aF-0.02583181235790082
aF0.016166211683465017
aF-0.006517114695673689
abababasS'rotation_speed'
p327
(lp328
F-1.0
asS'torque_threshold'
p329
(lp330
F10.0
assS'parameter_container'
p331
g2
(g147
g4
Ntp332
Rp333
(lp334
g2
(g24
g4
Ntp335
Rp336
(lp337
g2
(g28
g4
Ntp338
Rp339
(lp340
I0
ag2
(g32
g4
Ntp341
Rp342
(lp343
I0
aI0
abag166
abag2
(g37
g4
Ntp344
Rp345
(lp346
g2
(g41
g4
Ntp347
Rp348
(lp349
F0.5069132714754178
aF0.004873624607929537
aF0.027077189596690976
abag2
(g45
g4
Ntp350
Rp351
(lp352
F0.9995143312059889
aF-0.02583181235790082
aF0.016166211683465017
aF-0.006517114695673689
abababaF0.12039999999999998
aF-1.0
aF7.4
aF10.0
absbag2
(g16
g4
Ntp353
Rp354
(dp355
g125
g128
sg129
I01
sg20
S'A Apply Force (with) Fingers primitive'
p356
sg131
(dp357
g113
(lp358
(lp359
F20.0
aF43.2
aa(lp360
F20.0
aF30.4
aassg140
I1
sg141
(lp361
S'force'
p362
asg146
cpanda_pbd.srv._ApplyForceFingers
ApplyForceFingersRequest
p363
sg148
(dp364
g113
(lp365
F20.0
aF60.0
assg152
(lp366
g2
(g363
g4
Ntp367
Rp368
(lp369
F22.896618546057297
abag2
(g363
g4
Ntp370
Rp371
(lp372
F40.0
abag2
(g363
g4
Ntp373
Rp374
(lp375
F32.0
abag2
(g363
g4
Ntp376
Rp377
(lp378
F22.4
abasg302
I0
sg303
(dp379
g113
(lp380
F22.896618546057297
aF40.0
aF32.0
aF22.4
assg331
g2
(g363
g4
Ntp381
Rp382
(lp383
F22.4
absbag2
(g18
g4
Ntp384
Rp385
(dp386
g125
g128
sg129
I01
sg20
S'A Move to End-Effector primitive'
p387
sg131
(dp388
g136
(lp389
(lp390
F0.07799999999999999
aF0.1936
aassg140
I1
sg141
(lp391
g143
asg146
cpanda_pbd.msg._MoveToEEGoal
MoveToEEGoal
p392
sg148
(dp393
g136
(lp394
F0.01
aF0.35
assg152
(lp395
g2
(g392
g4
Ntp396
Rp397
(lp398
g2
(g24
g4
Ntp399
Rp400
(lp401
g2
(g28
g4
Ntp402
Rp403
(lp404
I0
ag2
(g32
g4
Ntp405
Rp406
(lp407
I0
aI0
abag77
abag2
(g37
g4
Ntp408
Rp409
(lp410
g2
(g41
g4
Ntp411
Rp412
(lp413
F0.6404225030201885
aF-0.21899515188976365
aF0.31947401035356376
abag2
(g45
g4
Ntp414
Rp415
(lp416
F0.8476936441278499
aF-0.15503337362532482
aF0.5028616917286283
aF0.06715845262823286
abababaF0.26547899433742983
aF-1.0
abag2
(g392
g4
Ntp417
Rp418
(lp419
g2
(g24
g4
Ntp420
Rp421
(lp422
g2
(g28
g4
Ntp423
Rp424
(lp425
I0
ag2
(g32
g4
Ntp426
Rp427
(lp428
I0
aI0
abag77
abag2
(g37
g4
Ntp429
Rp430
(lp431
g2
(g41
g4
Ntp432
Rp433
(lp434
F0.6404225030201885
aF-0.21899515188976365
aF0.31947401035356376
abag2
(g45
g4
Ntp435
Rp436
(lp437
F0.8476936441278499
aF-0.15503337362532482
aF0.5028616917286283
aF0.06715845262823286
abababaF0.1256
aF-1.0
abag2
(g392
g4
Ntp438
Rp439
(lp440
g2
(g24
g4
Ntp441
Rp442
(lp443
g2
(g28
g4
Ntp444
Rp445
(lp446
I0
ag2
(g32
g4
Ntp447
Rp448
(lp449
I0
aI0
abag77
abag2
(g37
g4
Ntp450
Rp451
(lp452
g2
(g41
g4
Ntp453
Rp454
(lp455
F0.6404225030201885
aF-0.21899515188976365
aF0.31947401035356376
abag2
(g45
g4
Ntp456
Rp457
(lp458
F0.8476936441278499
aF-0.15503337362532482
aF0.5028616917286283
aF0.06715845262823286
abababaF0.1528
aF-1.0
abasg302
I1
sg303
(dp459
g136
(lp460
F0.26547899433742983
aF0.1256
aF0.1528
asg307
(lp461
g2
(g24
g4
Ntp462
Rp463
(lp464
g2
(g28
g4
Ntp465
Rp466
(lp467
I0
ag2
(g32
g4
Ntp468
Rp469
(lp470
I0
aI0
abag77
abag2
(g37
g4
Ntp471
Rp472
(lp473
g2
(g41
g4
Ntp474
Rp475
(lp476
F0.6404225030201885
aF-0.21899515188976365
aF0.31947401035356376
abag2
(g45
g4
Ntp477
Rp478
(lp479
F0.8476936441278499
aF-0.15503337362532482
aF0.5028616917286283
aF0.06715845262823286
abababasg327
(lp480
F-1.0
assg331
g2
(g392
g4
Ntp481
Rp482
(lp483
g69
aF0.1528
aF-1.0
absbag2
(g10
g4
Ntp484
Rp485
(dp486
g125
g128
sg129
I01
sg20
S'A User Synchronization primitive'
p487
sg131
(dp488
g133
(lp489
(lp490
F5.0
aF15.0
aassg140
I2
sg141
(lp491
sg146
cpanda_pbd.msg._UserSyncGoal
UserSyncGoal
p492
sg148
(dp493
g133
(lp494
F5.0
aF30.0
assg152
(lp495
g2
(g492
g4
Ntp496
Rp497
(lp498
F11.965876667503874
abag2
(g492
g4
Ntp499
Rp500
(lp501
F9.0
abasg302
I1
sg303
(dp502
g133
(lp503
F11.965876667503874
aF9.0
assg331
g2
(g492
g4
Ntp504
Rp505
(lp506
F9.0
absbag2
(g12
g4
Ntp507
Rp508
(dp509
g125
g128
sg129
I01
sg20
S'A Move Fingers primitive'
p510
sg131
(dp511
g112
(lp512
(lp513
F0.04758337885141373
aF0.08
aassg140
I2
sg141
(lp514
S'width'
p515
asg146
cpanda_pbd.srv._MoveFingers
MoveFingersRequest
p516
sg148
(dp517
g515
(lp518
F0.04758337885141373
aF0.08
assg152
(lp519
g2
(g516
g4
Ntp520
Rp521
(lp522
F0.051601923073270224
abag2
(g516
g4
Ntp523
Rp524
(lp525
F0.062400000000000004
abasg302
I1
sg303
(dp526
g112
(lp527
F0.051601923073270224
aF0.062400000000000004
assg331
g2
(g516
g4
Ntp528
Rp529
(lp530
F0.062400000000000004
absbag2
(g18
g4
Ntp531
Rp532
(dp533
g125
g126
(I5
tp534
Rp535
sg129
I01
sg20
g387
sg131
(dp536
g136
(lp537
(lp538
F0.01
aF0.35
aa(lp539
F0.01
aF0.2276
aa(lp540
F0.044
aF0.2276
aa(lp541
F0.0644
aF0.2276
aa(lp542
F0.0712
aF0.2276
aa(lp543
F0.0712
aF0.2004
aa(lp544
F0.0712
aF0.1868
aassg140
I2
sg141
(lp545
g143
asg146
g392
sg148
g393
sg152
(lp546
g2
(g392
g4
Ntp547
Rp548
(lp549
g2
(g24
g4
Ntp550
Rp551
(lp552
g2
(g28
g4
Ntp553
Rp554
(lp555
I0
ag2
(g32
g4
Ntp556
Rp557
(lp558
I0
aI0
abag96
abag2
(g37
g4
Ntp559
Rp560
(lp561
g2
(g41
g4
Ntp562
Rp563
(lp564
F0.48697273191184176
aF-0.0003249795766055996
aF0.3672047165651558
abag2
(g45
g4
Ntp565
Rp566
(lp567
F0.9986485219265587
aF-0.028677903984510297
aF0.042164274523526495
aF-0.010043974853580964
abababaF0.13788310648016866
aF-1.0
abag2
(g392
g4
Ntp568
Rp569
(lp570
g2
(g24
g4
Ntp571
Rp572
(lp573
g2
(g28
g4
Ntp574
Rp575
(lp576
I0
ag2
(g32
g4
Ntp577
Rp578
(lp579
I0
aI0
abag96
abag2
(g37
g4
Ntp580
Rp581
(lp582
g2
(g41
g4
Ntp583
Rp584
(lp585
F0.48697273191184176
aF-0.0003249795766055996
aF0.3672047165651558
abag2
(g45
g4
Ntp586
Rp587
(lp588
F0.9986485219265587
aF-0.028677903984510297
aF0.042164274523526495
aF-0.010043974853580964
abababaF0.1528
aF-1.0
abag2
(g392
g4
Ntp589
Rp590
(lp591
g2
(g24
g4
Ntp592
Rp593
(lp594
g2
(g28
g4
Ntp595
Rp596
(lp597
I0
ag2
(g32
g4
Ntp598
Rp599
(lp600
I0
aI0
abag96
abag2
(g37
g4
Ntp601
Rp602
(lp603
g2
(g41
g4
Ntp604
Rp605
(lp606
F0.48697273191184176
aF-0.0003249795766055996
aF0.3672047165651558
abag2
(g45
g4
Ntp607
Rp608
(lp609
F0.9986485219265587
aF-0.028677903984510297
aF0.042164274523526495
aF-0.010043974853580964
abababaF0.0712
aF-1.0
abag2
(g392
g4
Ntp610
Rp611
(lp612
g2
(g24
g4
Ntp613
Rp614
(lp615
g2
(g28
g4
Ntp616
Rp617
(lp618
I0
ag2
(g32
g4
Ntp619
Rp620
(lp621
I0
aI0
abag96
abag2
(g37
g4
Ntp622
Rp623
(lp624
g2
(g41
g4
Ntp625
Rp626
(lp627
F0.48697273191184176
aF-0.0003249795766055996
aF0.3672047165651558
abag2
(g45
g4
Ntp628
Rp629
(lp630
F0.9986485219265587
aF-0.028677903984510297
aF0.042164274523526495
aF-0.010043974853580964
abababaF0.2208
aF-1.0
abag2
(g392
g4
Ntp631
Rp632
(lp633
g2
(g24
g4
Ntp634
Rp635
(lp636
g2
(g28
g4
Ntp637
Rp638
(lp639
I0
ag2
(g32
g4
Ntp640
Rp641
(lp642
I0
aI0
abag96
abag2
(g37
g4
Ntp643
Rp644
(lp645
g2
(g41
g4
Ntp646
Rp647
(lp648
F0.48697273191184176
aF-0.0003249795766055996
aF0.3672047165651558
abag2
(g45
g4
Ntp649
Rp650
(lp651
F0.9986485219265587
aF-0.028677903984510297
aF0.042164274523526495
aF-0.010043974853580964
abababaF0.1868
aF-1.0
abag2
(g392
g4
Ntp652
Rp653
(lp654
g2
(g24
g4
Ntp655
Rp656
(lp657
g2
(g28
g4
Ntp658
Rp659
(lp660
I0
ag2
(g32
g4
Ntp661
Rp662
(lp663
I0
aI0
abag96
abag2
(g37
g4
Ntp664
Rp665
(lp666
g2
(g41
g4
Ntp667
Rp668
(lp669
F0.48697273191184176
aF-0.0003249795766055996
aF0.3672047165651558
abag2
(g45
g4
Ntp670
Rp671
(lp672
F0.9986485219265587
aF-0.028677903984510297
aF0.042164274523526495
aF-0.010043974853580964
abababaF0.1732
aF-1.0
abasg302
I2
sg303
(dp673
g136
(lp674
F0.13788310648016866
aF0.1528
aF0.0712
aF0.2208
aF0.1868
aF0.1732
asg307
(lp675
g2
(g24
g4
Ntp676
Rp677
(lp678
g2
(g28
g4
Ntp679
Rp680
(lp681
I0
ag2
(g32
g4
Ntp682
Rp683
(lp684
I0
aI0
abag96
abag2
(g37
g4
Ntp685
Rp686
(lp687
g2
(g41
g4
Ntp688
Rp689
(lp690
F0.48697273191184176
aF-0.0003249795766055996
aF0.3672047165651558
abag2
(g45
g4
Ntp691
Rp692
(lp693
F0.9986485219265587
aF-0.028677903984510297
aF0.042164274523526495
aF-0.010043974853580964
abababasg327
(lp694
F-1.0
assg331
g2
(g392
g4
Ntp695
Rp696
(lp697
g88
aF0.1732
aF-1.0
absbasS'name'
p698
S'A Panda Program'
p699
sbsS'wallclock_time'
p700
F680.9295480251312
sS'execution_timeseries'
p701
(lp702
F1567754291.651854
aF1567754344.53802
aF1567754389.684811
aF1567754416.311699
aF1567754443.611483
aF1567754476.844722
aF1567754501.55617
aF1567754532.110303
aF1567754598.722536
aF1567754603.989379
aF1567754613.108687
aF1567754655.701604
aF1567754701.00639
aF1567754741.712499
aF1567754761.124697
aF1567754781.102011
aF1567754800.66794
aF1567754820.873346
aF1567754836.805488
aF1567754868.728924
asS'tuning_timeseries'
p703
(lp704
F1567754291.651849
aF1567754344.512585
aF1567754389.670617
aF1567754416.311687
aF1567754443.597119
aF1567754476.828162
aF1567754501.556163
aF1567754532.094462
aF1567754598.704988
aF1567754655.687513
aF1567754700.989113
aF1567754800.653682
aF1567754820.873337
aF1567754836.788669
aF1567754868.716226
as.