ccopy_reg
_reconstructor
p0
(cpanda_eup.panda_primitive
PandaProgram
p1
c__builtin__
object
p2
Ntp3
Rp4
(dp5
S'effect_of_primitive'
p6
(dp7
cpanda_eup.panda_primitive
UserSync
p8
(lp9
I00
aI00
ascpanda_eup.panda_primitive
MoveToEE
p10
(lp11
I01
aI00
ascpanda_eup.panda_primitive
MoveToContact
p12
(lp13
I01
aI00
ascpanda_eup.panda_primitive
ApplyForceFingers
p14
(lp15
I00
aI01
ascpanda_eup.panda_primitive
MoveFingers
p16
(lp17
I00
aI01
assS'description'
p18
S'Empty Description'
p19
sS'arm_state_list'
p20
(lp21
g0
(cgeometry_msgs.msg._PoseStamped
PoseStamped
p22
g2
Ntp23
Rp24
(lp25
g0
(cstd_msgs.msg._Header
Header
p26
g2
Ntp27
Rp28
(lp29
I0
ag0
(cgenpy.rostime
Time
p30
g2
Ntp31
Rp32
(lp33
I0
aI0
abaS'panda_link0'
p34
abag0
(cgeometry_msgs.msg._Pose
Pose
p35
g2
Ntp36
Rp37
(lp38
g0
(cgeometry_msgs.msg._Point
Point
p39
g2
Ntp40
Rp41
(lp42
F0.4085007637617008
aF-0.04743834298515986
aF0.41592672837953215
abag0
(cgeometry_msgs.msg._Quaternion
Quaternion
p43
g2
Ntp44
Rp45
(lp46
F0.999969677491424
aF0.006662980259596884
aF0.001583209543998861
aF0.0037070526429503078
abababag0
(g22
g2
Ntp47
Rp48
(lp49
g0
(g26
g2
Ntp50
Rp51
(lp52
I0
ag0
(g30
g2
Ntp53
Rp54
(lp55
I0
aI0
abaS'panda_link0'
p56
abag0
(g35
g2
Ntp57
Rp58
(lp59
g0
(g39
g2
Ntp60
Rp61
(lp62
F0.5555374971188675
aF-0.3665594011198935
aF0.2768798697008012
abag0
(g43
g2
Ntp63
Rp64
(lp65
F-0.5202366923331977
aF0.488836282074162
aF-0.4848922246640578
aF0.5052448948168257
abababag0
(g22
g2
Ntp66
Rp67
(lp68
g0
(g26
g2
Ntp69
Rp70
(lp71
I0
ag0
(g30
g2
Ntp72
Rp73
(lp74
I0
aI0
abaS'panda_link0'
p75
abag0
(g35
g2
Ntp76
Rp77
(lp78
g0
(g39
g2
Ntp79
Rp80
(lp81
F0.6925634165505562
aF-0.03161010303150283
aF0.1515468745803516
abag0
(g43
g2
Ntp82
Rp83
(lp84
F-0.5472531305577372
aF0.48193816034954157
aF-0.4457876407294544
aF0.5191560459693428
abababag0
(g22
g2
Ntp85
Rp86
(lp87
g0
(g26
g2
Ntp88
Rp89
(lp90
I0
ag0
(g30
g2
Ntp91
Rp92
(lp93
I0
aI0
abaS'panda_link0'
p94
abag0
(g35
g2
Ntp95
Rp96
(lp97
g0
(g39
g2
Ntp98
Rp99
(lp100
F0.581848720349036
aF0.37632116390939524
aF0.3458198812985057
abag0
(g43
g2
Ntp101
Rp102
(lp103
F-0.6558731655374604
aF0.2796442810897982
aF-0.2831432228500472
aF0.6414509974547778
abababag0
(g22
g2
Ntp104
Rp105
(lp106
g0
(g26
g2
Ntp107
Rp108
(lp109
I0
ag0
(g30
g2
Ntp110
Rp111
(lp112
I0
aI0
abaS'panda_link0'
p113
abag0
(g35
g2
Ntp114
Rp115
(lp116
g0
(g39
g2
Ntp117
Rp118
(lp119
F0.44612082019446336
aF-0.04256435300120127
aF0.408240721202241
abag0
(g43
g2
Ntp120
Rp121
(lp122
F0.9998713088044058
aF-0.010703239032880212
aF-0.0070168970835132564
aF-0.009673141128363653
abababasS'gripper_state_list'
p123
(lp124
g0
(cpanda_eup.panda_primitive
GripperState
p125
g2
Ntp126
Rp127
(dp128
S'width'
p129
F0.08
sS'force'
p130
F0.0
sbag0
(g125
g2
Ntp131
Rp132
(dp133
g129
F0.0013586432905867696
sg130
F20.0
sbag0
(g125
g2
Ntp134
Rp135
(dp136
g129
F0.04308849573135376
sg130
F0.0
sbasS'primitives'
p137
(lp138
g0
(g10
g2
Ntp139
Rp140
(dp141
S'status'
p142
cpanda_eup.panda_primitive
PandaPrimitiveStatus
p143
(I1
tp144
Rp145
sS'revertible'
p146
I01
sg18
S'A Move to End-Effector primitive'
p147
sS'starting_arm_state_index'
p148
I0
sS'parameters_with_effects_on_robot_state'
p149
(lp150
S'pose'
p151
asS'expected_container'
p152
cpanda_pbd.msg._MoveToEEGoal
MoveToEEGoal
p153
sS'gui_tunable_parameter_strict_ranges'
p154
(dp155
S'position_speed'
p156
(lp157
F0.01
aF0.35
assS'container_update_history'
p158
(lp159
g0
(g153
g2
Ntp160
Rp161
(lp162
g0
(g22
g2
Ntp163
Rp164
(lp165
g0
(g26
g2
Ntp166
Rp167
(lp168
I0
ag0
(g30
g2
Ntp169
Rp170
(lp171
I0
aI0
abag56
abag0
(g35
g2
Ntp172
Rp173
(lp174
g0
(g39
g2
Ntp175
Rp176
(lp177
F0.5555374971188675
aF-0.3665594011198935
aF0.2768798697008012
abag0
(g43
g2
Ntp178
Rp179
(lp180
F-0.5202366923331977
aF0.488836282074162
aF-0.4848922246640578
aF0.5052448948168257
abababaF0.07
aF-1.0
abag0
(g153
g2
Ntp181
Rp182
(lp183
g0
(g22
g2
Ntp184
Rp185
(lp186
g0
(g26
g2
Ntp187
Rp188
(lp189
I0
ag0
(g30
g2
Ntp190
Rp191
(lp192
I0
aI0
abag56
abag0
(g35
g2
Ntp193
Rp194
(lp195
g0
(g39
g2
Ntp196
Rp197
(lp198
F0.5555374971188675
aF-0.3665594011198935
aF0.2768798697008012
abag0
(g43
g2
Ntp199
Rp200
(lp201
F-0.5202366923331977
aF0.488836282074162
aF-0.4848922246640578
aF0.5052448948168257
abababaF0.32292425070812864
aF-1.0
abag0
(g153
g2
Ntp202
Rp203
(lp204
g0
(g22
g2
Ntp205
Rp206
(lp207
g0
(g26
g2
Ntp208
Rp209
(lp210
I0
ag0
(g30
g2
Ntp211
Rp212
(lp213
I0
aI0
abag56
abag0
(g35
g2
Ntp214
Rp215
(lp216
g0
(g39
g2
Ntp217
Rp218
(lp219
F0.5555374971188675
aF-0.3665594011198935
aF0.2768798697008012
abag0
(g43
g2
Ntp220
Rp221
(lp222
F-0.5202366923331977
aF0.488836282074162
aF-0.4848922246640578
aF0.5052448948168257
abababaF0.10519999999999999
aF-1.0
abasS'starting_gripper_state_index'
p223
I0
sS'parameters_update_history'
p224
(dp225
S'position_speed'
p226
(lp227
F0.07
aF0.32292425070812864
aF0.10519999999999999
asS'rotation_speed'
p228
(lp229
F-1.0
asg151
(lp230
g0
(g22
g2
Ntp231
Rp232
(lp233
g0
(g26
g2
Ntp234
Rp235
(lp236
I0
ag0
(g30
g2
Ntp237
Rp238
(lp239
I0
aI0
abag56
abag0
(g35
g2
Ntp240
Rp241
(lp242
g0
(g39
g2
Ntp243
Rp244
(lp245
F0.5555374971188675
aF-0.3665594011198935
aF0.2768798697008012
abag0
(g43
g2
Ntp246
Rp247
(lp248
F-0.5202366923331977
aF0.488836282074162
aF-0.4848922246640578
aF0.5052448948168257
abababassS'parameter_container'
p249
g0
(g153
g2
Ntp250
Rp251
(lp252
g48
aF0.10519999999999999
aF-1.0
absbag0
(g8
g2
Ntp253
Rp254
(dp255
g142
g145
sg146
I01
sg18
S'A User Synchronization primitive'
p256
sg148
I1
sg149
(lp257
sg152
cpanda_pbd.msg._UserSyncGoal
UserSyncGoal
p258
sg154
(dp259
S'force_threshold'
p260
(lp261
F5.0
aF30.0
assg158
(lp262
g0
(g258
g2
Ntp263
Rp264
(lp265
F10.0
abag0
(g258
g2
Ntp266
Rp267
(lp268
F9.24175295869287
abag0
(g258
g2
Ntp269
Rp270
(lp271
F9.0
abasg223
I0
sg224
(dp272
S'force_threshold'
p273
(lp274
F10.0
aF9.24175295869287
aF9.0
assg249
g0
(g258
g2
Ntp275
Rp276
(lp277
F9.0
absbag0
(g14
g2
Ntp278
Rp279
(dp280
g142
g145
sg146
I01
sg18
S'A Apply Force (with) Fingers primitive'
p281
sg148
I1
sg149
(lp282
S'force'
p283
asg152
cpanda_pbd.srv._ApplyForceFingers
ApplyForceFingersRequest
p284
sg154
(dp285
g130
(lp286
F20.0
aF60.0
assg158
(lp287
g0
(g284
g2
Ntp288
Rp289
(lp290
F20.0
abag0
(g284
g2
Ntp291
Rp292
(lp293
F37.67821027312675
abasg223
I0
sg224
(dp294
g283
(lp295
F20.0
aF37.67821027312675
assg249
g0
(g284
g2
Ntp296
Rp297
(lp298
F37.67821027312675
absbag0
(g10
g2
Ntp299
Rp300
(dp301
g142
g145
sg146
I01
sg18
g147
sg148
I1
sg149
(lp302
g151
asg152
g153
sg154
g155
sg158
(lp303
g0
(g153
g2
Ntp304
Rp305
(lp306
g0
(g22
g2
Ntp307
Rp308
(lp309
g0
(g26
g2
Ntp310
Rp311
(lp312
I0
ag0
(g30
g2
Ntp313
Rp314
(lp315
I0
aI0
abag75
abag0
(g35
g2
Ntp316
Rp317
(lp318
g0
(g39
g2
Ntp319
Rp320
(lp321
F0.6925634165505562
aF-0.03161010303150283
aF0.1515468745803516
abag0
(g43
g2
Ntp322
Rp323
(lp324
F-0.5472531305577372
aF0.48193816034954157
aF-0.4457876407294544
aF0.5191560459693428
abababaF0.07
aF-1.0
abag0
(g153
g2
Ntp325
Rp326
(lp327
g0
(g22
g2
Ntp328
Rp329
(lp330
g0
(g26
g2
Ntp331
Rp332
(lp333
I0
ag0
(g30
g2
Ntp334
Rp335
(lp336
I0
aI0
abag75
abag0
(g35
g2
Ntp337
Rp338
(lp339
g0
(g39
g2
Ntp340
Rp341
(lp342
F0.6925634165505562
aF-0.03161010303150283
aF0.1515468745803516
abag0
(g43
g2
Ntp343
Rp344
(lp345
F-0.5472531305577372
aF0.48193816034954157
aF-0.4457876407294544
aF0.5191560459693428
abababaF0.028176425092119907
aF-1.0
abag0
(g153
g2
Ntp346
Rp347
(lp348
g0
(g22
g2
Ntp349
Rp350
(lp351
g0
(g26
g2
Ntp352
Rp353
(lp354
I0
ag0
(g30
g2
Ntp355
Rp356
(lp357
I0
aI0
abag75
abag0
(g35
g2
Ntp358
Rp359
(lp360
g0
(g39
g2
Ntp361
Rp362
(lp363
F0.6925634165505562
aF-0.03161010303150283
aF0.1515468745803516
abag0
(g43
g2
Ntp364
Rp365
(lp366
F-0.5472531305577372
aF0.48193816034954157
aF-0.4457876407294544
aF0.5191560459693428
abababaF0.09839999999999999
aF-1.0
abag0
(g153
g2
Ntp367
Rp368
(lp369
g0
(g22
g2
Ntp370
Rp371
(lp372
g0
(g26
g2
Ntp373
Rp374
(lp375
I0
ag0
(g30
g2
Ntp376
Rp377
(lp378
I0
aI0
abag75
abag0
(g35
g2
Ntp379
Rp380
(lp381
g0
(g39
g2
Ntp382
Rp383
(lp384
F0.6925634165505562
aF-0.03161010303150283
aF0.1515468745803516
abag0
(g43
g2
Ntp385
Rp386
(lp387
F-0.5472531305577372
aF0.48193816034954157
aF-0.4457876407294544
aF0.5191560459693428
abababaF0.08479999999999999
aF-1.0
abag0
(g153
g2
Ntp388
Rp389
(lp390
g0
(g22
g2
Ntp391
Rp392
(lp393
g0
(g26
g2
Ntp394
Rp395
(lp396
I0
ag0
(g30
g2
Ntp397
Rp398
(lp399
I0
aI0
abag75
abag0
(g35
g2
Ntp400
Rp401
(lp402
g0
(g39
g2
Ntp403
Rp404
(lp405
F0.6925634165505562
aF-0.03161010303150283
aF0.1515468745803516
abag0
(g43
g2
Ntp406
Rp407
(lp408
F-0.5472531305577372
aF0.48193816034954157
aF-0.4457876407294544
aF0.5191560459693428
abababaF0.08479999999999999
aF-1.0
abag0
(g153
g2
Ntp409
Rp410
(lp411
g0
(g22
g2
Ntp412
Rp413
(lp414
g0
(g26
g2
Ntp415
Rp416
(lp417
I0
ag0
(g30
g2
Ntp418
Rp419
(lp420
I0
aI0
abag75
abag0
(g35
g2
Ntp421
Rp422
(lp423
g0
(g39
g2
Ntp424
Rp425
(lp426
F0.6925634165505562
aF-0.03161010303150283
aF0.1515468745803516
abag0
(g43
g2
Ntp427
Rp428
(lp429
F-0.5472531305577372
aF0.48193816034954157
aF-0.4457876407294544
aF0.5191560459693428
abababaF0.09159999999999999
aF-1.0
abasg223
I1
sg224
(dp430
g226
(lp431
F0.07
aF0.028176425092119907
aF0.09839999999999999
aF0.08479999999999999
aF0.08479999999999999
aF0.09159999999999999
asg228
(lp432
F-1.0
asg151
(lp433
g0
(g22
g2
Ntp434
Rp435
(lp436
g0
(g26
g2
Ntp437
Rp438
(lp439
I0
ag0
(g30
g2
Ntp440
Rp441
(lp442
I0
aI0
abag75
abag0
(g35
g2
Ntp443
Rp444
(lp445
g0
(g39
g2
Ntp446
Rp447
(lp448
F0.6925634165505562
aF-0.03161010303150283
aF0.1515468745803516
abag0
(g43
g2
Ntp449
Rp450
(lp451
F-0.5472531305577372
aF0.48193816034954157
aF-0.4457876407294544
aF0.5191560459693428
abababassg249
g0
(g153
g2
Ntp452
Rp453
(lp454
g67
aF0.09159999999999999
aF-1.0
absbag0
(g10
g2
Ntp455
Rp456
(dp457
g142
g145
sg146
I01
sg18
g147
sg148
I2
sg149
(lp458
g151
asg152
g153
sg154
g155
sg158
(lp459
g0
(g153
g2
Ntp460
Rp461
(lp462
g0
(g22
g2
Ntp463
Rp464
(lp465
g0
(g26
g2
Ntp466
Rp467
(lp468
I0
ag0
(g30
g2
Ntp469
Rp470
(lp471
I0
aI0
abag94
abag0
(g35
g2
Ntp472
Rp473
(lp474
g0
(g39
g2
Ntp475
Rp476
(lp477
F0.581848720349036
aF0.37632116390939524
aF0.3458198812985057
abag0
(g43
g2
Ntp478
Rp479
(lp480
F-0.6558731655374604
aF0.2796442810897982
aF-0.2831432228500472
aF0.6414509974547778
abababaF0.07
aF-1.0
abag0
(g153
g2
Ntp481
Rp482
(lp483
g0
(g22
g2
Ntp484
Rp485
(lp486
g0
(g26
g2
Ntp487
Rp488
(lp489
I0
ag0
(g30
g2
Ntp490
Rp491
(lp492
I0
aI0
abag94
abag0
(g35
g2
Ntp493
Rp494
(lp495
g0
(g39
g2
Ntp496
Rp497
(lp498
F0.581848720349036
aF0.37632116390939524
aF0.3458198812985057
abag0
(g43
g2
Ntp499
Rp500
(lp501
F-0.6558731655374604
aF0.2796442810897982
aF-0.2831432228500472
aF0.6414509974547778
abababaF0.3208973026691796
aF-1.0
abag0
(g153
g2
Ntp502
Rp503
(lp504
g0
(g22
g2
Ntp505
Rp506
(lp507
g0
(g26
g2
Ntp508
Rp509
(lp510
I0
ag0
(g30
g2
Ntp511
Rp512
(lp513
I0
aI0
abag94
abag0
(g35
g2
Ntp514
Rp515
(lp516
g0
(g39
g2
Ntp517
Rp518
(lp519
F0.581848720349036
aF0.37632116390939524
aF0.3458198812985057
abag0
(g43
g2
Ntp520
Rp521
(lp522
F-0.6558731655374604
aF0.2796442810897982
aF-0.2831432228500472
aF0.6414509974547778
abababaF0.09159999999999999
aF-1.0
abag0
(g153
g2
Ntp523
Rp524
(lp525
g0
(g22
g2
Ntp526
Rp527
(lp528
g0
(g26
g2
Ntp529
Rp530
(lp531
I0
ag0
(g30
g2
Ntp532
Rp533
(lp534
I0
aI0
abag94
abag0
(g35
g2
Ntp535
Rp536
(lp537
g0
(g39
g2
Ntp538
Rp539
(lp540
F0.581848720349036
aF0.37632116390939524
aF0.3458198812985057
abag0
(g43
g2
Ntp541
Rp542
(lp543
F-0.6558731655374604
aF0.2796442810897982
aF-0.2831432228500472
aF0.6414509974547778
abababaF0.08479999999999999
aF-1.0
abasg223
I1
sg224
(dp544
g226
(lp545
F0.07
aF0.3208973026691796
aF0.09159999999999999
aF0.08479999999999999
asg228
(lp546
F-1.0
asg151
(lp547
g0
(g22
g2
Ntp548
Rp549
(lp550
g0
(g26
g2
Ntp551
Rp552
(lp553
I0
ag0
(g30
g2
Ntp554
Rp555
(lp556
I0
aI0
abag94
abag0
(g35
g2
Ntp557
Rp558
(lp559
g0
(g39
g2
Ntp560
Rp561
(lp562
F0.581848720349036
aF0.37632116390939524
aF0.3458198812985057
abag0
(g43
g2
Ntp563
Rp564
(lp565
F-0.6558731655374604
aF0.2796442810897982
aF-0.2831432228500472
aF0.6414509974547778
abababassg249
g0
(g153
g2
Ntp566
Rp567
(lp568
g86
aF0.08479999999999999
aF-1.0
absbag0
(g8
g2
Ntp569
Rp570
(dp571
g142
g145
sg146
I01
sg18
g256
sg148
I3
sg149
(lp572
sg152
g258
sg154
g259
sg158
(lp573
g0
(g258
g2
Ntp574
Rp575
(lp576
F10.0
abag0
(g258
g2
Ntp577
Rp578
(lp579
F15.501585726196918
abag0
(g258
g2
Ntp580
Rp581
(lp582
F12.5
abasg223
I1
sg224
(dp583
g273
(lp584
F10.0
aF15.501585726196918
aF12.5
assg249
g0
(g258
g2
Ntp585
Rp586
(lp587
F12.5
absbag0
(g16
g2
Ntp588
Rp589
(dp590
g142
g145
sg146
I01
sg18
S'A Move Fingers primitive'
p591
sg148
I3
sg149
(lp592
S'width'
p593
asg152
cpanda_pbd.srv._MoveFingers
MoveFingersRequest
p594
sg154
(dp595
g593
(lp596
F0.04410567507147789
aF0.08
assg158
(lp597
g0
(g594
g2
Ntp598
Rp599
(lp600
F0.04410567507147789
abag0
(g594
g2
Ntp601
Rp602
(lp603
F0.07351985567558007
abag0
(g594
g2
Ntp604
Rp605
(lp606
F0.0432
abasg223
I1
sg224
(dp607
g593
(lp608
F0.04410567507147789
aF0.07351985567558007
aF0.0432
assg249
g0
(g594
g2
Ntp609
Rp610
(lp611
F0.0432
absbag0
(g10
g2
Ntp612
Rp613
(dp614
g142
g145
sg146
I01
sg18
g147
sg148
I3
sg149
(lp615
g151
asg152
g153
sg154
g155
sg158
(lp616
g0
(g153
g2
Ntp617
Rp618
(lp619
g0
(g22
g2
Ntp620
Rp621
(lp622
g0
(g26
g2
Ntp623
Rp624
(lp625
I0
ag0
(g30
g2
Ntp626
Rp627
(lp628
I0
aI0
abag113
abag0
(g35
g2
Ntp629
Rp630
(lp631
g0
(g39
g2
Ntp632
Rp633
(lp634
F0.44612082019446336
aF-0.04256435300120127
aF0.408240721202241
abag0
(g43
g2
Ntp635
Rp636
(lp637
F0.9998713088044058
aF-0.010703239032880212
aF-0.0070168970835132564
aF-0.009673141128363653
abababaF0.07
aF-1.0
abag0
(g153
g2
Ntp638
Rp639
(lp640
g0
(g22
g2
Ntp641
Rp642
(lp643
g0
(g26
g2
Ntp644
Rp645
(lp646
I0
ag0
(g30
g2
Ntp647
Rp648
(lp649
I0
aI0
abag113
abag0
(g35
g2
Ntp650
Rp651
(lp652
g0
(g39
g2
Ntp653
Rp654
(lp655
F0.44612082019446336
aF-0.04256435300120127
aF0.408240721202241
abag0
(g43
g2
Ntp656
Rp657
(lp658
F0.9998713088044058
aF-0.010703239032880212
aF-0.0070168970835132564
aF-0.009673141128363653
abababaF0.05986903006020911
aF-1.0
abag0
(g153
g2
Ntp659
Rp660
(lp661
g0
(g22
g2
Ntp662
Rp663
(lp664
g0
(g26
g2
Ntp665
Rp666
(lp667
I0
ag0
(g30
g2
Ntp668
Rp669
(lp670
I0
aI0
abag113
abag0
(g35
g2
Ntp671
Rp672
(lp673
g0
(g39
g2
Ntp674
Rp675
(lp676
F0.44612082019446336
aF-0.04256435300120127
aF0.408240721202241
abag0
(g43
g2
Ntp677
Rp678
(lp679
F0.9998713088044058
aF-0.010703239032880212
aF-0.0070168970835132564
aF-0.009673141128363653
abababaF0.09159999999999999
aF-1.0
abasg223
I2
sg224
(dp680
g226
(lp681
F0.07
aF0.05986903006020911
aF0.09159999999999999
asg228
(lp682
F-1.0
asg151
(lp683
g0
(g22
g2
Ntp684
Rp685
(lp686
g0
(g26
g2
Ntp687
Rp688
(lp689
I0
ag0
(g30
g2
Ntp690
Rp691
(lp692
I0
aI0
abag113
abag0
(g35
g2
Ntp693
Rp694
(lp695
g0
(g39
g2
Ntp696
Rp697
(lp698
F0.44612082019446336
aF-0.04256435300120127
aF0.408240721202241
abag0
(g43
g2
Ntp699
Rp700
(lp701
F0.9998713088044058
aF-0.010703239032880212
aF-0.0070168970835132564
aF-0.009673141128363653
abababassg249
g0
(g153
g2
Ntp702
Rp703
(lp704
g105
aF0.09159999999999999
aF-1.0
absbasS'name'
p705
S'A Panda Program'
p706
sb.