ccopy_reg
_reconstructor
p0
(cpanda_eup.panda_primitive
PandaProgram
p1
c__builtin__
object
p2
Ntp3
Rp4
(dp5
S'effect_of_primitive'
p6
(dp7
cpanda_eup.panda_primitive
OpenGripper
p8
(lp9
I00
aI01
ascpanda_eup.panda_primitive
UserSync
p10
(lp11
I00
aI00
ascpanda_eup.panda_primitive
MoveToContact
p12
(lp13
I01
aI00
ascpanda_eup.panda_primitive
MoveToEE
p14
(lp15
I01
aI00
ascpanda_eup.panda_primitive
CloseGripper
p16
(lp17
I00
aI01
ascpanda_eup.panda_primitive
MoveFingers
p18
(lp19
I00
aI01
ascpanda_eup.panda_primitive
ApplyForceFingers
p20
(lp21
I00
aI01
assS'name'
p22
S'A Panda Program'
p23
sS'arm_state_list'
p24
(lp25
g0
(cgeometry_msgs.msg._PoseStamped
PoseStamped
p26
g2
Ntp27
Rp28
(lp29
g0
(cstd_msgs.msg._Header
Header
p30
g2
Ntp31
Rp32
(lp33
I0
ag0
(cgenpy.rostime
Time
p34
g2
Ntp35
Rp36
(lp37
I0
aI0
abaS'panda_link0'
p38
abag0
(cgeometry_msgs.msg._Pose
Pose
p39
g2
Ntp40
Rp41
(lp42
g0
(cgeometry_msgs.msg._Point
Point
p43
g2
Ntp44
Rp45
(lp46
F0.5099790357248195
aF-0.03291455516668819
aF0.2917317713595566
abag0
(cgeometry_msgs.msg._Quaternion
Quaternion
p47
g2
Ntp48
Rp49
(lp50
F0.9999672094519991
aF-0.0017193423487520587
aF-0.001634185101569533
aF0.0077429530363568
abababag0
(g26
g2
Ntp51
Rp52
(lp53
g0
(g30
g2
Ntp54
Rp55
(lp56
I0
ag0
(g34
g2
Ntp57
Rp58
(lp59
I0
aI0
abaS'panda_link0'
p60
abag0
(g39
g2
Ntp61
Rp62
(lp63
g0
(g43
g2
Ntp64
Rp65
(lp66
F0.5083834174549611
aF-0.2936494559795641
aF0.21096791185353908
abag0
(g47
g2
Ntp67
Rp68
(lp69
F0.999533970422346
aF-0.002413635186008458
aF0.029061745357896542
aF0.009023928949321984
abababag0
(g26
g2
Ntp70
Rp71
(lp72
g0
(g30
g2
Ntp73
Rp74
(lp75
I0
ag0
(g34
g2
Ntp76
Rp77
(lp78
I0
aI0
abaS'panda_link0'
p79
abag0
(g39
g2
Ntp80
Rp81
(lp82
g0
(g43
g2
Ntp83
Rp84
(lp85
F0.5018833947377148
aF-0.2919208077555058
aF0.12022098263359421
abag0
(g47
g2
Ntp86
Rp87
(lp88
F0.9996458545853304
aF0.0029199533088159046
aF-0.016027688331998854
aF0.021041684575418065
abababag0
(g26
g2
Ntp89
Rp90
(lp91
g0
(g30
g2
Ntp92
Rp93
(lp94
I0
ag0
(g34
g2
Ntp95
Rp96
(lp97
I0
aI0
abaS'panda_link0'
p98
abag0
(g39
g2
Ntp99
Rp100
(lp101
g0
(g43
g2
Ntp102
Rp103
(lp104
F0.5260697445295415
aF0.2612626517157033
aF0.1189493714851487
abag0
(g47
g2
Ntp105
Rp106
(lp107
F0.9977054692526703
aF-0.047339833391588586
aF-0.014033196960568577
aF-0.04632284728761274
abababag0
(g26
g2
Ntp108
Rp109
(lp110
g0
(g30
g2
Ntp111
Rp112
(lp113
I0
ag0
(g34
g2
Ntp114
Rp115
(lp116
I0
aI0
abaS'panda_link0'
p117
abag0
(g39
g2
Ntp118
Rp119
(lp120
g0
(g43
g2
Ntp121
Rp122
(lp123
F0.5391832990319834
aF0.25639734316183016
aF0.2974385862878764
abag0
(g47
g2
Ntp124
Rp125
(lp126
F0.9985165762731453
aF-0.04358271120535336
aF-0.0022573857030009684
aF-0.03255915234668499
abababasS'gripper_state_list'
p127
(lp128
g0
(cpanda_eup.panda_primitive
GripperState
p129
g2
Ntp130
Rp131
(dp132
S'width'
p133
F0.06044156849384308
sS'force'
p134
F0.0
sbag0
(g129
g2
Ntp135
Rp136
(dp137
g133
F0.08077459782361984
sg134
F0.0
sbag0
(g129
g2
Ntp138
Rp139
(dp140
g133
F0.015886737033724785
sg134
F5.0
sbag0
(g129
g2
Ntp141
Rp142
(dp143
g133
F0.0808737501502037
sg134
F0.0
sbasS'primitives'
p144
(lp145
g0
(g14
g2
Ntp146
Rp147
(dp148
S'status'
p149
cpanda_eup.panda_primitive
PandaPrimitiveStatus
p150
(I0
tp151
Rp152
sS'starting_arm_state_index'
p153
I0
sS'description'
p154
S'A Move to End-Effector primitive'
p155
sS'parameters_with_effects_on_robot_state'
p156
(lp157
S'pose'
p158
asS'expected_container'
p159
cpanda_pbd.msg._MoveToEEGoal
MoveToEEGoal
p160
sS'starting_gripper_state_index'
p161
I0
sS'revertible'
p162
I01
sS'parameter_container'
p163
g0
(g160
g2
Ntp164
Rp165
(lp166
g52
aF0.05
aF1.0
absbag0
(g8
g2
Ntp167
Rp168
(dp169
g149
g152
sg153
I1
sg154
S'A Open Gripper primitive'
p170
sg156
(lp171
g133
asg159
cpanda_pbd.srv._OpenGripper
OpenGripperRequest
p172
sg161
I0
sg162
I01
sg163
g0
(g172
g2
Ntp173
Rp174
(lp175
F0.08077459782361984
absbag0
(g12
g2
Ntp176
Rp177
(dp178
g149
g152
sg153
I1
sg154
S'A Move to Contact primitive'
p179
sg156
(lp180
g158
aS'force_threshold'
p181
aS'torque_threshold'
p182
asg159
cpanda_pbd.msg._MoveToContactGoal
MoveToContactGoal
p183
sg161
I1
sg162
I01
sg163
g0
(g183
g2
Ntp184
Rp185
(lp186
g71
aF0.05
aF1.0
aF5.0
aF5.0
absbag0
(g20
g2
Ntp187
Rp188
(dp189
g149
g152
sg153
I2
sg154
S'A Apply Force (with) Fingers primitive'
p190
sg156
(lp191
g134
asg159
cpanda_pbd.srv._ApplyForceFingers
ApplyForceFingersRequest
p192
sg161
I1
sg162
I01
sg163
g0
(g192
g2
Ntp193
Rp194
(lp195
F5.0
absbag0
(g14
g2
Ntp196
Rp197
(dp198
g149
g152
sg153
I2
sg154
g155
sg156
(lp199
g158
asg159
g160
sg161
I2
sg162
I01
sg163
g0
(g160
g2
Ntp200
Rp201
(lp202
g90
aF0.05
aF1.0
absbag0
(g18
g2
Ntp203
Rp204
(dp205
g149
g152
sg153
I3
sg154
S'A Move Fingers primitive'
p206
sg156
(lp207
g133
asg159
cpanda_pbd.srv._MoveFingers
MoveFingersRequest
p208
sg161
I2
sg162
I01
sg163
g0
(g208
g2
Ntp209
Rp210
(lp211
F0.0808737501502037
absbag0
(g14
g2
Ntp212
Rp213
(dp214
g149
g152
sg153
I3
sg154
g155
sg156
(lp215
g158
asg159
g160
sg161
I3
sg162
I01
sg163
g0
(g160
g2
Ntp216
Rp217
(lp218
g109
aF0.05
aF1.0
absbasg154
S'Empty Description'
p219
sb.