ccopy_reg
_reconstructor
p0
(cpanda_eup.panda_primitive
PandaProgram
p1
c__builtin__
object
p2
Ntp3
Rp4
(dp5
S'effect_of_primitive'
p6
(dp7
cpanda_eup.panda_primitive
ApplyForceFingers
p8
(lp9
I00
aI01
ascpanda_eup.panda_primitive
MoveToEE
p10
(lp11
I01
aI00
ascpanda_eup.panda_primitive
UserSync
p12
(lp13
I00
aI00
ascpanda_eup.panda_primitive
MoveToContact
p14
(lp15
I01
aI00
ascpanda_eup.panda_primitive
MoveFingers
p16
(lp17
I00
aI01
assS'name'
p18
S'A Panda Program'
p19
sS'arm_state_list'
p20
(lp21
g0
(cgeometry_msgs.msg._PoseStamped
PoseStamped
p22
g2
Ntp23
Rp24
(lp25
g0
(cstd_msgs.msg._Header
Header
p26
g2
Ntp27
Rp28
(lp29
I0
ag0
(cgenpy.rostime
Time
p30
g2
Ntp31
Rp32
(lp33
I0
aI0
abaS'panda_link0'
p34
abag0
(cgeometry_msgs.msg._Pose
Pose
p35
g2
Ntp36
Rp37
(lp38
g0
(cgeometry_msgs.msg._Point
Point
p39
g2
Ntp40
Rp41
(lp42
F0.4191045953308766
aF-0.016252830460434933
aF0.37622288434844137
abag0
(cgeometry_msgs.msg._Quaternion
Quaternion
p43
g2
Ntp44
Rp45
(lp46
F0.9986105609871982
aF-0.04612608966903478
aF0.02385558308515153
aF-0.008957817387336536
abababag0
(g22
g2
Ntp47
Rp48
(lp49
g0
(g26
g2
Ntp50
Rp51
(lp52
I0
ag0
(g30
g2
Ntp53
Rp54
(lp55
I0
aI0
abaS'panda_link0'
p56
abag0
(g35
g2
Ntp57
Rp58
(lp59
g0
(g39
g2
Ntp60
Rp61
(lp62
F0.7065007071441877
aF-0.279712758689725
aF0.23173132282399556
abag0
(g43
g2
Ntp63
Rp64
(lp65
F0.8523613866181228
aF-0.522338812253475
aF0.02532868876321784
aF-0.0008302659791145937
abababag0
(g22
g2
Ntp66
Rp67
(lp68
g0
(g26
g2
Ntp69
Rp70
(lp71
I0
ag0
(g30
g2
Ntp72
Rp73
(lp74
I0
aI0
abaS'panda_link0'
p75
abag0
(g35
g2
Ntp76
Rp77
(lp78
g0
(g39
g2
Ntp79
Rp80
(lp81
F0.41311699641084326
aF-0.010418723368866657
aF0.3333554094710404
abag0
(g43
g2
Ntp82
Rp83
(lp84
F0.9997670454782138
aF-0.01971828696088899
aF-0.006748076932735523
aF-0.005613144644595147
abababasS'gripper_state_list'
p85
(lp86
g0
(cpanda_eup.panda_primitive
GripperState
p87
g2
Ntp88
Rp89
(dp90
S'width'
p91
F0.06529367715120316
sS'force'
p92
F0.0
sbasS'primitives'
p93
(lp94
g0
(g10
g2
Ntp95
Rp96
(dp97
S'status'
p98
cpanda_eup.panda_primitive
PandaPrimitiveStatus
p99
(I0
tp100
Rp101
sS'starting_arm_state_index'
p102
I0
sS'description'
p103
S'A Move to End-Effector primitive'
p104
sS'parameters_update_history'
p105
(dp106
S'position_speed'
p107
(lp108
F0.07
asS'pose'
p109
(lp110
g0
(g22
g2
Ntp111
Rp112
(lp113
g0
(g26
g2
Ntp114
Rp115
(lp116
I0
ag0
(g30
g2
Ntp117
Rp118
(lp119
I0
aI0
abag56
abag0
(g35
g2
Ntp120
Rp121
(lp122
g0
(g39
g2
Ntp123
Rp124
(lp125
F0.7065007071441877
aF-0.279712758689725
aF0.23173132282399556
abag0
(g43
g2
Ntp126
Rp127
(lp128
F0.8523613866181228
aF-0.522338812253475
aF0.02532868876321784
aF-0.0008302659791145937
abababasS'rotation_speed'
p129
(lp130
F-1.0
assS'parameters_range_history'
p131
(dp132
g107
(lp133
ssS'parameters_with_effects_on_robot_state'
p134
(lp135
g109
asS'expected_container'
p136
cpanda_pbd.msg._MoveToEEGoal
MoveToEEGoal
p137
sS'gui_tunable_parameter_strict_ranges'
p138
(dp139
g107
(lp140
F0.01
aF0.35
assS'container_update_history'
p141
(lp142
g0
(g137
g2
Ntp143
Rp144
(lp145
g0
(g22
g2
Ntp146
Rp147
(lp148
g0
(g26
g2
Ntp149
Rp150
(lp151
I0
ag0
(g30
g2
Ntp152
Rp153
(lp154
I0
aI0
abag56
abag0
(g35
g2
Ntp155
Rp156
(lp157
g0
(g39
g2
Ntp158
Rp159
(lp160
F0.7065007071441877
aF-0.279712758689725
aF0.23173132282399556
abag0
(g43
g2
Ntp161
Rp162
(lp163
F0.8523613866181228
aF-0.522338812253475
aF0.02532868876321784
aF-0.0008302659791145937
abababaF0.07
aF-1.0
abasS'starting_gripper_state_index'
p164
I0
sS'revertible'
p165
I01
sS'parameter_container'
p166
g0
(g137
g2
Ntp167
Rp168
(lp169
g48
aF0.07
aF-1.0
absbag0
(g12
g2
Ntp170
Rp171
(dp172
g98
g101
sg102
I1
sg103
S'A User Synchronization primitive'
p173
sg105
(dp174
S'force_threshold'
p175
(lp176
F10.0
assg131
(dp177
g175
(lp178
ssg134
(lp179
sg136
cpanda_pbd.msg._UserSyncGoal
UserSyncGoal
p180
sg138
(dp181
g175
(lp182
F5.0
aF30.0
assg141
(lp183
g0
(g180
g2
Ntp184
Rp185
(lp186
F10.0
abasg164
I0
sg165
I01
sg166
g0
(g180
g2
Ntp187
Rp188
(lp189
F10.0
absbag0
(g10
g2
Ntp190
Rp191
(dp192
g98
g101
sg102
I1
sg103
g104
sg105
(dp193
g107
(lp194
F0.07
asg109
(lp195
g0
(g22
g2
Ntp196
Rp197
(lp198
g0
(g26
g2
Ntp199
Rp200
(lp201
I0
ag0
(g30
g2
Ntp202
Rp203
(lp204
I0
aI0
abag75
abag0
(g35
g2
Ntp205
Rp206
(lp207
g0
(g39
g2
Ntp208
Rp209
(lp210
F0.41311699641084326
aF-0.010418723368866657
aF0.3333554094710404
abag0
(g43
g2
Ntp211
Rp212
(lp213
F0.9997670454782138
aF-0.01971828696088899
aF-0.006748076932735523
aF-0.005613144644595147
abababasg129
(lp214
F-1.0
assg131
(dp215
g107
(lp216
ssg134
(lp217
g109
asg136
g137
sg138
g139
sg141
(lp218
g0
(g137
g2
Ntp219
Rp220
(lp221
g0
(g22
g2
Ntp222
Rp223
(lp224
g0
(g26
g2
Ntp225
Rp226
(lp227
I0
ag0
(g30
g2
Ntp228
Rp229
(lp230
I0
aI0
abag75
abag0
(g35
g2
Ntp231
Rp232
(lp233
g0
(g39
g2
Ntp234
Rp235
(lp236
F0.41311699641084326
aF-0.010418723368866657
aF0.3333554094710404
abag0
(g43
g2
Ntp237
Rp238
(lp239
F0.9997670454782138
aF-0.01971828696088899
aF-0.006748076932735523
aF-0.005613144644595147
abababaF0.07
aF-1.0
abasg164
I0
sg165
I01
sg166
g0
(g137
g2
Ntp240
Rp241
(lp242
g67
aF0.07
aF-1.0
absbasg103
S'Empty Description'
p243
sb.