ccopy_reg
_reconstructor
p0
(cpanda_eup.panda_primitive
PandaProgram
p1
c__builtin__
object
p2
Ntp3
Rp4
(dp5
S'effect_of_primitive'
p6
(dp7
cpanda_eup.panda_primitive
MoveToEE
p8
(lp9
I01
aI00
ascpanda_eup.panda_primitive
MoveToContact
p10
(lp11
I01
aI00
ascpanda_eup.panda_primitive
UserSync
p12
(lp13
I00
aI00
ascpanda_eup.panda_primitive
MoveFingers
p14
(lp15
I00
aI01
ascpanda_eup.panda_primitive
ApplyForceFingers
p16
(lp17
I00
aI01
assS'name'
p18
S'A Panda Program'
p19
sS'arm_state_list'
p20
(lp21
g0
(cgeometry_msgs.msg._PoseStamped
PoseStamped
p22
g2
Ntp23
Rp24
(lp25
g0
(cstd_msgs.msg._Header
Header
p26
g2
Ntp27
Rp28
(lp29
I0
ag0
(cgenpy.rostime
Time
p30
g2
Ntp31
Rp32
(lp33
I0
aI0
abaS'panda_link0'
p34
abag0
(cgeometry_msgs.msg._Pose
Pose
p35
g2
Ntp36
Rp37
(lp38
g0
(cgeometry_msgs.msg._Point
Point
p39
g2
Ntp40
Rp41
(lp42
F0.4085007637617008
aF-0.04743834298515986
aF0.41592672837953215
abag0
(cgeometry_msgs.msg._Quaternion
Quaternion
p43
g2
Ntp44
Rp45
(lp46
F0.999969677491424
aF0.006662980259596884
aF0.001583209543998861
aF0.0037070526429503078
abababag0
(g22
g2
Ntp47
Rp48
(lp49
g0
(g26
g2
Ntp50
Rp51
(lp52
I0
ag0
(g30
g2
Ntp53
Rp54
(lp55
I0
aI0
abaS'panda_link0'
p56
abag0
(g35
g2
Ntp57
Rp58
(lp59
g0
(g39
g2
Ntp60
Rp61
(lp62
F0.5555374971188675
aF-0.3665594011198935
aF0.2768798697008012
abag0
(g43
g2
Ntp63
Rp64
(lp65
F-0.5202366923331977
aF0.488836282074162
aF-0.4848922246640578
aF0.5052448948168257
abababag0
(g22
g2
Ntp66
Rp67
(lp68
g0
(g26
g2
Ntp69
Rp70
(lp71
I0
ag0
(g30
g2
Ntp72
Rp73
(lp74
I0
aI0
abaS'panda_link0'
p75
abag0
(g35
g2
Ntp76
Rp77
(lp78
g0
(g39
g2
Ntp79
Rp80
(lp81
F0.6925634165505562
aF-0.03161010303150283
aF0.1515468745803516
abag0
(g43
g2
Ntp82
Rp83
(lp84
F-0.5472531305577372
aF0.48193816034954157
aF-0.4457876407294544
aF0.5191560459693428
abababag0
(g22
g2
Ntp85
Rp86
(lp87
g0
(g26
g2
Ntp88
Rp89
(lp90
I0
ag0
(g30
g2
Ntp91
Rp92
(lp93
I0
aI0
abaS'panda_link0'
p94
abag0
(g35
g2
Ntp95
Rp96
(lp97
g0
(g39
g2
Ntp98
Rp99
(lp100
F0.581848720349036
aF0.37632116390939524
aF0.3458198812985057
abag0
(g43
g2
Ntp101
Rp102
(lp103
F-0.6558731655374604
aF0.2796442810897982
aF-0.2831432228500472
aF0.6414509974547778
abababag0
(g22
g2
Ntp104
Rp105
(lp106
g0
(g26
g2
Ntp107
Rp108
(lp109
I0
ag0
(g30
g2
Ntp110
Rp111
(lp112
I0
aI0
abaS'panda_link0'
p113
abag0
(g35
g2
Ntp114
Rp115
(lp116
g0
(g39
g2
Ntp117
Rp118
(lp119
F0.44612082019446336
aF-0.04256435300120127
aF0.408240721202241
abag0
(g43
g2
Ntp120
Rp121
(lp122
F0.9998713088044058
aF-0.010703239032880212
aF-0.0070168970835132564
aF-0.009673141128363653
abababasS'gripper_state_list'
p123
(lp124
g0
(cpanda_eup.panda_primitive
GripperState
p125
g2
Ntp126
Rp127
(dp128
S'width'
p129
F0.08
sS'force'
p130
F0.0
sbag0
(g125
g2
Ntp131
Rp132
(dp133
g129
F0.0013586432905867696
sg130
F20.0
sbag0
(g125
g2
Ntp134
Rp135
(dp136
g129
F0.04410567507147789
sg130
F0.0
sbasS'primitives'
p137
(lp138
g0
(g8
g2
Ntp139
Rp140
(dp141
S'status'
p142
cpanda_eup.panda_primitive
PandaPrimitiveStatus
p143
(I0
tp144
Rp145
sS'starting_arm_state_index'
p146
I0
sS'description'
p147
S'A Move to End-Effector primitive'
p148
sS'parameters_update_history'
p149
(dp150
S'position_speed'
p151
(lp152
F0.07
asS'pose'
p153
(lp154
g0
(g22
g2
Ntp155
Rp156
(lp157
g0
(g26
g2
Ntp158
Rp159
(lp160
I0
ag0
(g30
g2
Ntp161
Rp162
(lp163
I0
aI0
abag56
abag0
(g35
g2
Ntp164
Rp165
(lp166
g0
(g39
g2
Ntp167
Rp168
(lp169
F0.5555374971188675
aF-0.3665594011198935
aF0.2768798697008012
abag0
(g43
g2
Ntp170
Rp171
(lp172
F-0.5202366923331977
aF0.488836282074162
aF-0.4848922246640578
aF0.5052448948168257
abababasS'rotation_speed'
p173
(lp174
F-1.0
assS'parameters_with_effects_on_robot_state'
p175
(lp176
g153
asS'expected_container'
p177
cpanda_pbd.msg._MoveToEEGoal
MoveToEEGoal
p178
sS'gui_tunable_parameter_strict_ranges'
p179
(dp180
g151
(lp181
F0.01
aF0.35
assS'container_update_history'
p182
(lp183
g0
(g178
g2
Ntp184
Rp185
(lp186
g0
(g22
g2
Ntp187
Rp188
(lp189
g0
(g26
g2
Ntp190
Rp191
(lp192
I0
ag0
(g30
g2
Ntp193
Rp194
(lp195
I0
aI0
abag56
abag0
(g35
g2
Ntp196
Rp197
(lp198
g0
(g39
g2
Ntp199
Rp200
(lp201
F0.5555374971188675
aF-0.3665594011198935
aF0.2768798697008012
abag0
(g43
g2
Ntp202
Rp203
(lp204
F-0.5202366923331977
aF0.488836282074162
aF-0.4848922246640578
aF0.5052448948168257
abababaF0.07
aF-1.0
abasS'starting_gripper_state_index'
p205
I0
sS'revertible'
p206
I01
sS'parameter_container'
p207
g0
(g178
g2
Ntp208
Rp209
(lp210
g48
aF0.07
aF-1.0
absbag0
(g12
g2
Ntp211
Rp212
(dp213
g142
g145
sg146
I1
sg147
S'A User Synchronization primitive'
p214
sg149
(dp215
S'force_threshold'
p216
(lp217
F10.0
assg175
(lp218
sg177
cpanda_pbd.msg._UserSyncGoal
UserSyncGoal
p219
sg179
(dp220
g216
(lp221
F5.0
aF30.0
assg182
(lp222
g0
(g219
g2
Ntp223
Rp224
(lp225
F10.0
abasg205
I0
sg206
I01
sg207
g0
(g219
g2
Ntp226
Rp227
(lp228
F10.0
absbag0
(g16
g2
Ntp229
Rp230
(dp231
g142
g145
sg146
I1
sg147
S'A Apply Force (with) Fingers primitive'
p232
sg149
(dp233
g130
(lp234
F20.0
assg175
(lp235
g130
asg177
cpanda_pbd.srv._ApplyForceFingers
ApplyForceFingersRequest
p236
sg179
(dp237
g130
(lp238
F20.0
aF60.0
assg182
(lp239
g0
(g236
g2
Ntp240
Rp241
(lp242
F20.0
abasg205
I0
sg206
I01
sg207
g0
(g236
g2
Ntp243
Rp244
(lp245
F20.0
absbag0
(g8
g2
Ntp246
Rp247
(dp248
g142
g145
sg146
I1
sg147
g148
sg149
(dp249
g151
(lp250
F0.07
asg153
(lp251
g0
(g22
g2
Ntp252
Rp253
(lp254
g0
(g26
g2
Ntp255
Rp256
(lp257
I0
ag0
(g30
g2
Ntp258
Rp259
(lp260
I0
aI0
abag75
abag0
(g35
g2
Ntp261
Rp262
(lp263
g0
(g39
g2
Ntp264
Rp265
(lp266
F0.6925634165505562
aF-0.03161010303150283
aF0.1515468745803516
abag0
(g43
g2
Ntp267
Rp268
(lp269
F-0.5472531305577372
aF0.48193816034954157
aF-0.4457876407294544
aF0.5191560459693428
abababasg173
(lp270
F-1.0
assg175
(lp271
g153
asg177
g178
sg179
g180
sg182
(lp272
g0
(g178
g2
Ntp273
Rp274
(lp275
g0
(g22
g2
Ntp276
Rp277
(lp278
g0
(g26
g2
Ntp279
Rp280
(lp281
I0
ag0
(g30
g2
Ntp282
Rp283
(lp284
I0
aI0
abag75
abag0
(g35
g2
Ntp285
Rp286
(lp287
g0
(g39
g2
Ntp288
Rp289
(lp290
F0.6925634165505562
aF-0.03161010303150283
aF0.1515468745803516
abag0
(g43
g2
Ntp291
Rp292
(lp293
F-0.5472531305577372
aF0.48193816034954157
aF-0.4457876407294544
aF0.5191560459693428
abababaF0.07
aF-1.0
abasg205
I1
sg206
I01
sg207
g0
(g178
g2
Ntp294
Rp295
(lp296
g67
aF0.07
aF-1.0
absbag0
(g8
g2
Ntp297
Rp298
(dp299
g142
g145
sg146
I2
sg147
g148
sg149
(dp300
g151
(lp301
F0.07
asg153
(lp302
g0
(g22
g2
Ntp303
Rp304
(lp305
g0
(g26
g2
Ntp306
Rp307
(lp308
I0
ag0
(g30
g2
Ntp309
Rp310
(lp311
I0
aI0
abag94
abag0
(g35
g2
Ntp312
Rp313
(lp314
g0
(g39
g2
Ntp315
Rp316
(lp317
F0.581848720349036
aF0.37632116390939524
aF0.3458198812985057
abag0
(g43
g2
Ntp318
Rp319
(lp320
F-0.6558731655374604
aF0.2796442810897982
aF-0.2831432228500472
aF0.6414509974547778
abababasg173
(lp321
F-1.0
assg175
(lp322
g153
asg177
g178
sg179
g180
sg182
(lp323
g0
(g178
g2
Ntp324
Rp325
(lp326
g0
(g22
g2
Ntp327
Rp328
(lp329
g0
(g26
g2
Ntp330
Rp331
(lp332
I0
ag0
(g30
g2
Ntp333
Rp334
(lp335
I0
aI0
abag94
abag0
(g35
g2
Ntp336
Rp337
(lp338
g0
(g39
g2
Ntp339
Rp340
(lp341
F0.581848720349036
aF0.37632116390939524
aF0.3458198812985057
abag0
(g43
g2
Ntp342
Rp343
(lp344
F-0.6558731655374604
aF0.2796442810897982
aF-0.2831432228500472
aF0.6414509974547778
abababaF0.07
aF-1.0
abasg205
I1
sg206
I01
sg207
g0
(g178
g2
Ntp345
Rp346
(lp347
g86
aF0.07
aF-1.0
absbag0
(g12
g2
Ntp348
Rp349
(dp350
g142
g145
sg146
I3
sg147
g214
sg149
(dp351
g216
(lp352
F10.0
assg175
(lp353
sg177
g219
sg179
g220
sg182
(lp354
g0
(g219
g2
Ntp355
Rp356
(lp357
F10.0
abasg205
I1
sg206
I01
sg207
g0
(g219
g2
Ntp358
Rp359
(lp360
F10.0
absbag0
(g14
g2
Ntp361
Rp362
(dp363
g142
g145
sg146
I3
sg147
S'A Move Fingers primitive'
p364
sg149
(dp365
g129
(lp366
F0.04410567507147789
assg175
(lp367
g129
asg177
cpanda_pbd.srv._MoveFingers
MoveFingersRequest
p368
sg179
(dp369
g129
(lp370
F0.04410567507147789
aF0.08
assg182
(lp371
g0
(g368
g2
Ntp372
Rp373
(lp374
F0.04410567507147789
abasg205
I1
sg206
I01
sg207
g0
(g368
g2
Ntp375
Rp376
(lp377
F0.04410567507147789
absbag0
(g8
g2
Ntp378
Rp379
(dp380
g142
g145
sg146
I3
sg147
g148
sg149
(dp381
g151
(lp382
F0.07
asg153
(lp383
g0
(g22
g2
Ntp384
Rp385
(lp386
g0
(g26
g2
Ntp387
Rp388
(lp389
I0
ag0
(g30
g2
Ntp390
Rp391
(lp392
I0
aI0
abag113
abag0
(g35
g2
Ntp393
Rp394
(lp395
g0
(g39
g2
Ntp396
Rp397
(lp398
F0.44612082019446336
aF-0.04256435300120127
aF0.408240721202241
abag0
(g43
g2
Ntp399
Rp400
(lp401
F0.9998713088044058
aF-0.010703239032880212
aF-0.0070168970835132564
aF-0.009673141128363653
abababasg173
(lp402
F-1.0
assg175
(lp403
g153
asg177
g178
sg179
g180
sg182
(lp404
g0
(g178
g2
Ntp405
Rp406
(lp407
g0
(g22
g2
Ntp408
Rp409
(lp410
g0
(g26
g2
Ntp411
Rp412
(lp413
I0
ag0
(g30
g2
Ntp414
Rp415
(lp416
I0
aI0
abag113
abag0
(g35
g2
Ntp417
Rp418
(lp419
g0
(g39
g2
Ntp420
Rp421
(lp422
F0.44612082019446336
aF-0.04256435300120127
aF0.408240721202241
abag0
(g43
g2
Ntp423
Rp424
(lp425
F0.9998713088044058
aF-0.010703239032880212
aF-0.0070168970835132564
aF-0.009673141128363653
abababaF0.07
aF-1.0
abasg205
I2
sg206
I01
sg207
g0
(g178
g2
Ntp426
Rp427
(lp428
g105
aF0.07
aF-1.0
absbasg147
S'Empty Description'
p429
sb.