ccopy_reg
_reconstructor
p0
(cpanda_eup.panda_primitive
PandaProgram
p1
c__builtin__
object
p2
Ntp3
Rp4
(dp5
S'effect_of_primitive'
p6
(dp7
cpanda_eup.panda_primitive
ApplyForceFingers
p8
(lp9
I00
aI01
ascpanda_eup.panda_primitive
MoveToEE
p10
(lp11
I01
aI00
ascpanda_eup.panda_primitive
MoveFingers
p12
(lp13
I00
aI01
ascpanda_eup.panda_primitive
UserSync
p14
(lp15
I00
aI00
ascpanda_eup.panda_primitive
MoveToContact
p16
(lp17
I01
aI00
assS'name'
p18
S'A Panda Program'
p19
sS'arm_state_list'
p20
(lp21
g0
(cgeometry_msgs.msg._PoseStamped
PoseStamped
p22
g2
Ntp23
Rp24
(lp25
g0
(cstd_msgs.msg._Header
Header
p26
g2
Ntp27
Rp28
(lp29
I0
ag0
(cgenpy.rostime
Time
p30
g2
Ntp31
Rp32
(lp33
I0
aI0
abaS'panda_link0'
p34
abag0
(cgeometry_msgs.msg._Pose
Pose
p35
g2
Ntp36
Rp37
(lp38
g0
(cgeometry_msgs.msg._Point
Point
p39
g2
Ntp40
Rp41
(lp42
F0.31942928491478706
aF-0.08761147318281363
aF0.4310596931774819
abag0
(cgeometry_msgs.msg._Quaternion
Quaternion
p43
g2
Ntp44
Rp45
(lp46
F0.9993625793792634
aF0.010141162906685049
aF0.025580436996888837
aF0.02274275696510242
abababag0
(g22
g2
Ntp47
Rp48
(lp49
g0
(g26
g2
Ntp50
Rp51
(lp52
I0
ag0
(g30
g2
Ntp53
Rp54
(lp55
I0
aI0
abaS'panda_link0'
p56
abag0
(g35
g2
Ntp57
Rp58
(lp59
g0
(g39
g2
Ntp60
Rp61
(lp62
F0.4022640825725789
aF-0.4311892239272874
aF0.6191564052450718
abag0
(g43
g2
Ntp63
Rp64
(lp65
F-0.3273574085176072
aF0.6292850861545753
aF-0.610052596705791
aF0.35309097508232445
abababag0
(g22
g2
Ntp66
Rp67
(lp68
g0
(g26
g2
Ntp69
Rp70
(lp71
I0
ag0
(g30
g2
Ntp72
Rp73
(lp74
I0
aI0
abaS'panda_link0'
p75
abag0
(g35
g2
Ntp76
Rp77
(lp78
g0
(g39
g2
Ntp79
Rp80
(lp81
F0.4112304497175609
aF0.38231241666347904
aF0.534999382065574
abag0
(g43
g2
Ntp82
Rp83
(lp84
F-0.7119689195798571
aF0.2672443446561123
aF-0.2022536872884606
aF0.6170690105489315
abababag0
(g22
g2
Ntp85
Rp86
(lp87
g0
(g26
g2
Ntp88
Rp89
(lp90
I0
ag0
(g30
g2
Ntp91
Rp92
(lp93
I0
aI0
abaS'panda_link0'
p94
abag0
(g35
g2
Ntp95
Rp96
(lp97
g0
(g39
g2
Ntp98
Rp99
(lp100
F0.39419645566928346
aF0.3457285909406135
aF0.4164044568315047
abag0
(g43
g2
Ntp101
Rp102
(lp103
F0.9177732955453454
aF-0.36265814443866495
aF0.10901796762576413
aF-0.1195254407684338
abababag0
(g22
g2
Ntp104
Rp105
(lp106
g0
(g26
g2
Ntp107
Rp108
(lp109
I0
ag0
(g30
g2
Ntp110
Rp111
(lp112
I0
aI0
abaS'panda_link0'
p113
abag0
(g35
g2
Ntp114
Rp115
(lp116
g0
(g39
g2
Ntp117
Rp118
(lp119
F0.5158474665765809
aF-0.08703872198690607
aF0.37534735053249874
abag0
(g43
g2
Ntp120
Rp121
(lp122
F0.7092814409442195
aF-0.7047835651144638
aF0.012672224154626542
aF-0.006275237972625928
abababasS'gripper_state_list'
p123
(lp124
g0
(cpanda_eup.panda_primitive
GripperState
p125
g2
Ntp126
Rp127
(dp128
S'width'
p129
F0.08
sS'force'
p130
F0.0
sbag0
(g125
g2
Ntp131
Rp132
(dp133
g129
F0.0014138033147901297
sg130
F20.0
sbag0
(g125
g2
Ntp134
Rp135
(dp136
g129
F0.08
sg130
F0.0
sbasS'primitives'
p137
(lp138
g0
(g10
g2
Ntp139
Rp140
(dp141
S'status'
p142
cpanda_eup.panda_primitive
PandaPrimitiveStatus
p143
(I0
tp144
Rp145
sS'starting_arm_state_index'
p146
I0
sS'description'
p147
S'A Move to End-Effector primitive'
p148
sS'parameters_update_history'
p149
(dp150
S'position_speed'
p151
(lp152
F0.07
asS'pose'
p153
(lp154
g0
(g22
g2
Ntp155
Rp156
(lp157
g0
(g26
g2
Ntp158
Rp159
(lp160
I0
ag0
(g30
g2
Ntp161
Rp162
(lp163
I0
aI0
abag56
abag0
(g35
g2
Ntp164
Rp165
(lp166
g0
(g39
g2
Ntp167
Rp168
(lp169
F0.4022640825725789
aF-0.4311892239272874
aF0.6191564052450718
abag0
(g43
g2
Ntp170
Rp171
(lp172
F-0.3273574085176072
aF0.6292850861545753
aF-0.610052596705791
aF0.35309097508232445
abababasS'rotation_speed'
p173
(lp174
F-1.0
assS'parameters_with_effects_on_robot_state'
p175
(lp176
g153
asS'expected_container'
p177
cpanda_pbd.msg._MoveToEEGoal
MoveToEEGoal
p178
sS'gui_tunable_parameter_strict_ranges'
p179
(dp180
g151
(lp181
F0.01
aF0.25
assS'container_update_history'
p182
(lp183
g0
(g178
g2
Ntp184
Rp185
(lp186
g0
(g22
g2
Ntp187
Rp188
(lp189
g0
(g26
g2
Ntp190
Rp191
(lp192
I0
ag0
(g30
g2
Ntp193
Rp194
(lp195
I0
aI0
abag56
abag0
(g35
g2
Ntp196
Rp197
(lp198
g0
(g39
g2
Ntp199
Rp200
(lp201
F0.4022640825725789
aF-0.4311892239272874
aF0.6191564052450718
abag0
(g43
g2
Ntp202
Rp203
(lp204
F-0.3273574085176072
aF0.6292850861545753
aF-0.610052596705791
aF0.35309097508232445
abababaF0.07
aF-1.0
abasS'starting_gripper_state_index'
p205
I0
sS'revertible'
p206
I01
sS'parameter_container'
p207
g0
(g178
g2
Ntp208
Rp209
(lp210
g48
aF0.07
aF-1.0
absbag0
(g14
g2
Ntp211
Rp212
(dp213
g142
g145
sg146
I1
sg147
S'A User Synchronization primitive'
p214
sg149
(dp215
S'force_threshold'
p216
(lp217
F10.0
assg175
(lp218
sg177
cpanda_pbd.msg._UserSyncGoal
UserSyncGoal
p219
sg179
(dp220
g216
(lp221
F5.0
aF30.0
assg182
(lp222
g0
(g219
g2
Ntp223
Rp224
(lp225
F10.0
abasg205
I0
sg206
I01
sg207
g0
(g219
g2
Ntp226
Rp227
(lp228
F10.0
absbag0
(g8
g2
Ntp229
Rp230
(dp231
g142
g145
sg146
I1
sg147
S'A Apply Force (with) Fingers primitive'
p232
sg149
(dp233
g130
(lp234
F20.0
assg175
(lp235
g130
asg177
cpanda_pbd.srv._ApplyForceFingers
ApplyForceFingersRequest
p236
sg179
(dp237
g130
(lp238
F20.0
aF60.0
assg182
(lp239
g0
(g236
g2
Ntp240
Rp241
(lp242
F20.0
abasg205
I0
sg206
I01
sg207
g0
(g236
g2
Ntp243
Rp244
(lp245
F20.0
absbag0
(g10
g2
Ntp246
Rp247
(dp248
g142
g145
sg146
I1
sg147
g148
sg149
(dp249
g151
(lp250
F0.07
asg153
(lp251
g0
(g22
g2
Ntp252
Rp253
(lp254
g0
(g26
g2
Ntp255
Rp256
(lp257
I0
ag0
(g30
g2
Ntp258
Rp259
(lp260
I0
aI0
abag75
abag0
(g35
g2
Ntp261
Rp262
(lp263
g0
(g39
g2
Ntp264
Rp265
(lp266
F0.4112304497175609
aF0.38231241666347904
aF0.534999382065574
abag0
(g43
g2
Ntp267
Rp268
(lp269
F-0.7119689195798571
aF0.2672443446561123
aF-0.2022536872884606
aF0.6170690105489315
abababasg173
(lp270
F-1.0
assg175
(lp271
g153
asg177
g178
sg179
g180
sg182
(lp272
g0
(g178
g2
Ntp273
Rp274
(lp275
g0
(g22
g2
Ntp276
Rp277
(lp278
g0
(g26
g2
Ntp279
Rp280
(lp281
I0
ag0
(g30
g2
Ntp282
Rp283
(lp284
I0
aI0
abag75
abag0
(g35
g2
Ntp285
Rp286
(lp287
g0
(g39
g2
Ntp288
Rp289
(lp290
F0.4112304497175609
aF0.38231241666347904
aF0.534999382065574
abag0
(g43
g2
Ntp291
Rp292
(lp293
F-0.7119689195798571
aF0.2672443446561123
aF-0.2022536872884606
aF0.6170690105489315
abababaF0.07
aF-1.0
abasg205
I1
sg206
I01
sg207
g0
(g178
g2
Ntp294
Rp295
(lp296
g67
aF0.07
aF-1.0
absbag0
(g14
g2
Ntp297
Rp298
(dp299
g142
g145
sg146
I2
sg147
g214
sg149
(dp300
g216
(lp301
F10.0
assg175
(lp302
sg177
g219
sg179
g220
sg182
(lp303
g0
(g219
g2
Ntp304
Rp305
(lp306
F10.0
abasg205
I1
sg206
I01
sg207
g0
(g219
g2
Ntp307
Rp308
(lp309
F10.0
absbag0
(g10
g2
Ntp310
Rp311
(dp312
g142
g145
sg146
I2
sg147
g148
sg149
(dp313
g151
(lp314
F0.07
asg153
(lp315
g0
(g22
g2
Ntp316
Rp317
(lp318
g0
(g26
g2
Ntp319
Rp320
(lp321
I0
ag0
(g30
g2
Ntp322
Rp323
(lp324
I0
aI0
abag94
abag0
(g35
g2
Ntp325
Rp326
(lp327
g0
(g39
g2
Ntp328
Rp329
(lp330
F0.39419645566928346
aF0.3457285909406135
aF0.4164044568315047
abag0
(g43
g2
Ntp331
Rp332
(lp333
F0.9177732955453454
aF-0.36265814443866495
aF0.10901796762576413
aF-0.1195254407684338
abababasg173
(lp334
F-1.0
assg175
(lp335
g153
asg177
g178
sg179
g180
sg182
(lp336
g0
(g178
g2
Ntp337
Rp338
(lp339
g0
(g22
g2
Ntp340
Rp341
(lp342
g0
(g26
g2
Ntp343
Rp344
(lp345
I0
ag0
(g30
g2
Ntp346
Rp347
(lp348
I0
aI0
abag94
abag0
(g35
g2
Ntp349
Rp350
(lp351
g0
(g39
g2
Ntp352
Rp353
(lp354
F0.39419645566928346
aF0.3457285909406135
aF0.4164044568315047
abag0
(g43
g2
Ntp355
Rp356
(lp357
F0.9177732955453454
aF-0.36265814443866495
aF0.10901796762576413
aF-0.1195254407684338
abababaF0.07
aF-1.0
abasg205
I1
sg206
I01
sg207
g0
(g178
g2
Ntp358
Rp359
(lp360
g86
aF0.07
aF-1.0
absbag0
(g10
g2
Ntp361
Rp362
(dp363
g142
g145
sg146
I3
sg147
g148
sg149
(dp364
g151
(lp365
F0.07
asg153
(lp366
g0
(g22
g2
Ntp367
Rp368
(lp369
g0
(g26
g2
Ntp370
Rp371
(lp372
I0
ag0
(g30
g2
Ntp373
Rp374
(lp375
I0
aI0
abag113
abag0
(g35
g2
Ntp376
Rp377
(lp378
g0
(g39
g2
Ntp379
Rp380
(lp381
F0.5158474665765809
aF-0.08703872198690607
aF0.37534735053249874
abag0
(g43
g2
Ntp382
Rp383
(lp384
F0.7092814409442195
aF-0.7047835651144638
aF0.012672224154626542
aF-0.006275237972625928
abababasg173
(lp385
F-1.0
assg175
(lp386
g153
asg177
g178
sg179
g180
sg182
(lp387
g0
(g178
g2
Ntp388
Rp389
(lp390
g0
(g22
g2
Ntp391
Rp392
(lp393
g0
(g26
g2
Ntp394
Rp395
(lp396
I0
ag0
(g30
g2
Ntp397
Rp398
(lp399
I0
aI0
abag113
abag0
(g35
g2
Ntp400
Rp401
(lp402
g0
(g39
g2
Ntp403
Rp404
(lp405
F0.5158474665765809
aF-0.08703872198690607
aF0.37534735053249874
abag0
(g43
g2
Ntp406
Rp407
(lp408
F0.7092814409442195
aF-0.7047835651144638
aF0.012672224154626542
aF-0.006275237972625928
abababaF0.07
aF-1.0
abasg205
I1
sg206
I01
sg207
g0
(g178
g2
Ntp409
Rp410
(lp411
g105
aF0.07
aF-1.0
absbag0
(g14
g2
Ntp412
Rp413
(dp414
g142
g145
sg146
I4
sg147
g214
sg149
(dp415
g216
(lp416
F10.0
assg175
(lp417
sg177
g219
sg179
g220
sg182
(lp418
g0
(g219
g2
Ntp419
Rp420
(lp421
F10.0
abasg205
I1
sg206
I01
sg207
g0
(g219
g2
Ntp422
Rp423
(lp424
F10.0
absbag0
(g12
g2
Ntp425
Rp426
(dp427
g142
g145
sg146
I4
sg147
S'A Move Fingers primitive'
p428
sg149
(dp429
g129
(lp430
F0.08
assg175
(lp431
g129
asg177
cpanda_pbd.srv._MoveFingers
MoveFingersRequest
p432
sg179
(dp433
g129
(lp434
F0.08
aF0.08
assg182
(lp435
g0
(g432
g2
Ntp436
Rp437
(lp438
F0.08
abasg205
I1
sg206
I01
sg207
g0
(g432
g2
Ntp439
Rp440
(lp441
F0.08
absbasg147
S'Empty Description'
p442
sb.