ccopy_reg
_reconstructor
p0
(cpanda_eup.panda_primitive
PandaProgram
p1
c__builtin__
object
p2
Ntp3
Rp4
(dp5
S'effect_of_primitive'
p6
(dp7
cpanda_eup.panda_primitive
ApplyForceFingers
p8
(lp9
I00
aI01
ascpanda_eup.panda_primitive
MoveToEE
p10
(lp11
I01
aI00
ascpanda_eup.panda_primitive
CloseGripper
p12
(lp13
I00
aI01
ascpanda_eup.panda_primitive
OpenGripper
p14
(lp15
I00
aI01
ascpanda_eup.panda_primitive
MoveFingers
p16
(lp17
I00
aI01
ascpanda_eup.panda_primitive
UserSync
p18
(lp19
I00
aI00
ascpanda_eup.panda_primitive
MoveToContact
p20
(lp21
I01
aI00
assS'name'
p22
S'A Panda Program'
p23
sS'arm_state_list'
p24
(lp25
g0
(cgeometry_msgs.msg._PoseStamped
PoseStamped
p26
g2
Ntp27
Rp28
(lp29
g0
(cstd_msgs.msg._Header
Header
p30
g2
Ntp31
Rp32
(lp33
I0
ag0
(cgenpy.rostime
Time
p34
g2
Ntp35
Rp36
(lp37
I0
aI0
abaS'panda_link0'
p38
abag0
(cgeometry_msgs.msg._Pose
Pose
p39
g2
Ntp40
Rp41
(lp42
g0
(cgeometry_msgs.msg._Point
Point
p43
g2
Ntp44
Rp45
(lp46
F0.5057396516409943
aF0.0126055800906563
aF0.34088007328495645
abag0
(cgeometry_msgs.msg._Quaternion
Quaternion
p47
g2
Ntp48
Rp49
(lp50
F0.9990486177235242
aF-0.03377404105451519
aF0.015506707011332143
aF-0.022819193965351228
abababag0
(g26
g2
Ntp51
Rp52
(lp53
g0
(g30
g2
Ntp54
Rp55
(lp56
I0
ag0
(g34
g2
Ntp57
Rp58
(lp59
I0
aI0
abaS'panda_link0'
p60
abag0
(g39
g2
Ntp61
Rp62
(lp63
g0
(g43
g2
Ntp64
Rp65
(lp66
F0.5189125681381145
aF-0.16302545919055988
aF0.20974375648070465
abag0
(g47
g2
Ntp67
Rp68
(lp69
F0.9990924620605277
aF-0.03838054750550907
aF0.004215437534564475
aF-0.017983768053514978
abababag0
(g26
g2
Ntp70
Rp71
(lp72
g0
(g30
g2
Ntp73
Rp74
(lp75
I0
ag0
(g34
g2
Ntp76
Rp77
(lp78
I0
aI0
abaS'panda_link0'
p79
abag0
(g39
g2
Ntp80
Rp81
(lp82
g0
(g43
g2
Ntp83
Rp84
(lp85
F0.5295353629629745
aF-0.1632244866044994
aF0.018913575546603167
abag0
(g47
g2
Ntp86
Rp87
(lp88
F0.9994266735237552
aF-0.015059242909929946
aF0.029228043100856967
aF0.008078672459972343
abababag0
(g26
g2
Ntp89
Rp90
(lp91
g0
(g30
g2
Ntp92
Rp93
(lp94
I0
ag0
(g34
g2
Ntp95
Rp96
(lp97
I0
aI0
abaS'panda_link0'
p98
abag0
(g39
g2
Ntp99
Rp100
(lp101
g0
(g43
g2
Ntp102
Rp103
(lp104
F0.5332062011552884
aF0.0018430621544345827
aF0.29314985900501705
abag0
(g47
g2
Ntp105
Rp106
(lp107
F0.9990613786623945
aF-0.03297792930868901
aF0.019715023292410157
aF-0.02000339221948162
abababag0
(g26
g2
Ntp108
Rp109
(lp110
g0
(g30
g2
Ntp111
Rp112
(lp113
I0
ag0
(g34
g2
Ntp114
Rp115
(lp116
I0
aI0
abaS'panda_link0'
p117
abag0
(g39
g2
Ntp118
Rp119
(lp120
g0
(g43
g2
Ntp121
Rp122
(lp123
F0.5567013717013609
aF0.12619594377843402
aF0.018357686206683377
abag0
(g47
g2
Ntp124
Rp125
(lp126
F0.9994113035932475
aF-0.0306159479209416
aF0.014200862230626395
aF0.006168103019154427
abababag0
(g26
g2
Ntp127
Rp128
(lp129
g0
(g30
g2
Ntp130
Rp131
(lp132
I0
ag0
(g34
g2
Ntp133
Rp134
(lp135
I0
aI0
abaS'panda_link0'
p136
abag0
(g39
g2
Ntp137
Rp138
(lp139
g0
(g43
g2
Ntp140
Rp141
(lp142
F0.5311232611983886
aF0.13044791337859107
aF0.2651507052558569
abag0
(g47
g2
Ntp143
Rp144
(lp145
F0.9993689086933695
aF-0.029497882813655674
aF0.018855613443294342
aF-0.006010414978404715
abababasS'gripper_state_list'
p146
(lp147
g0
(cpanda_eup.panda_primitive
GripperState
p148
g2
Ntp149
Rp150
(dp151
S'width'
p152
F0.08
sS'force'
p153
F0.0
sbag0
(g148
g2
Ntp154
Rp155
(dp156
g152
F0.06580850481987
sg153
F20.0
sbag0
(g148
g2
Ntp157
Rp158
(dp159
g152
F0.08
sg153
F0.0
sbasS'primitives'
p160
(lp161
g0
(g10
g2
Ntp162
Rp163
(dp164
S'status'
p165
cpanda_eup.panda_primitive
PandaPrimitiveStatus
p166
(I0
tp167
Rp168
sS'starting_arm_state_index'
p169
I0
sS'description'
p170
S'A Move to End-Effector primitive'
p171
sS'parameters_with_effects_on_robot_state'
p172
(lp173
S'pose'
p174
asS'expected_container'
p175
cpanda_pbd.msg._MoveToEEGoal
MoveToEEGoal
p176
sS'starting_gripper_state_index'
p177
I0
sS'revertible'
p178
I01
sS'parameter_container'
p179
g0
(g176
g2
Ntp180
Rp181
(lp182
g52
aF0.05
aF1.0
absbag0
(g20
g2
Ntp183
Rp184
(dp185
g165
g168
sg169
I1
sg170
S'A Move to Contact primitive'
p186
sg172
(lp187
g174
aS'force_threshold'
p188
aS'torque_threshold'
p189
asg175
cpanda_pbd.msg._MoveToContactGoal
MoveToContactGoal
p190
sg177
I0
sg178
I01
sg179
g0
(g190
g2
Ntp191
Rp192
(lp193
g71
aF0.05
aF1.0
aF5.0
aF5.0
absbag0
(g8
g2
Ntp194
Rp195
(dp196
g165
g168
sg169
I2
sg170
S'A Apply Force (with) Fingers primitive'
p197
sg172
(lp198
g153
asg175
cpanda_pbd.srv._ApplyForceFingers
ApplyForceFingersRequest
p199
sg177
I0
sg178
I01
sg179
g0
(g199
g2
Ntp200
Rp201
(lp202
F20.0
absbag0
(g10
g2
Ntp203
Rp204
(dp205
g165
g168
sg169
I2
sg170
g171
sg172
(lp206
g174
asg175
g176
sg177
I1
sg178
I01
sg179
g0
(g176
g2
Ntp207
Rp208
(lp209
g90
aF0.05
aF1.0
absbag0
(g20
g2
Ntp210
Rp211
(dp212
g165
g168
sg169
I3
sg170
g186
sg172
(lp213
g174
ag188
ag189
asg175
g190
sg177
I1
sg178
I01
sg179
g0
(g190
g2
Ntp214
Rp215
(lp216
g109
aF0.05
aF1.0
aF5.0
aF5.0
absbag0
(g16
g2
Ntp217
Rp218
(dp219
g165
g168
sg169
I4
sg170
S'A Move Fingers primitive'
p220
sg172
(lp221
g152
asg175
cpanda_pbd.srv._MoveFingers
MoveFingersRequest
p222
sg177
I1
sg178
I01
sg179
g0
(g222
g2
Ntp223
Rp224
(lp225
F0.08
absbag0
(g10
g2
Ntp226
Rp227
(dp228
g165
g168
sg169
I4
sg170
g171
sg172
(lp229
g174
asg175
g176
sg177
I2
sg178
I01
sg179
g0
(g176
g2
Ntp230
Rp231
(lp232
g128
aF0.05
aF1.0
absbasg170
S'Empty Description'
p233
sb.