ccopy_reg
_reconstructor
p0
(cpanda_eup.panda_primitive
PandaProgram
p1
c__builtin__
object
p2
Ntp3
Rp4
(dp5
S'effect_of_primitive'
p6
(dp7
cpanda_eup.panda_primitive
UserSync
p8
(lp9
I00
aI00
ascpanda_eup.panda_primitive
ApplyForceFingers
p10
(lp11
I00
aI01
ascpanda_eup.panda_primitive
MoveFingers
p12
(lp13
I00
aI01
ascpanda_eup.panda_primitive
MoveToEE
p14
(lp15
I01
aI00
ascpanda_eup.panda_primitive
MoveToContact
p16
(lp17
I01
aI00
assS'name'
p18
S'A Panda Program'
p19
sS'arm_state_list'
p20
(lp21
g0
(cgeometry_msgs.msg._PoseStamped
PoseStamped
p22
g2
Ntp23
Rp24
(lp25
g0
(cstd_msgs.msg._Header
Header
p26
g2
Ntp27
Rp28
(lp29
I0
ag0
(cgenpy.rostime
Time
p30
g2
Ntp31
Rp32
(lp33
I0
aI0
abaS'panda_link0'
p34
abag0
(cgeometry_msgs.msg._Pose
Pose
p35
g2
Ntp36
Rp37
(lp38
g0
(cgeometry_msgs.msg._Point
Point
p39
g2
Ntp40
Rp41
(lp42
F0.4833974233623748
aF0.007318751177980708
aF0.3904495689279949
abag0
(cgeometry_msgs.msg._Quaternion
Quaternion
p43
g2
Ntp44
Rp45
(lp46
F0.9993500431690824
aF-0.014042189921340717
aF-0.02007113406023331
aF-0.026447262574839425
abababag0
(g22
g2
Ntp47
Rp48
(lp49
g0
(g26
g2
Ntp50
Rp51
(lp52
I0
ag0
(g30
g2
Ntp53
Rp54
(lp55
I0
aI0
abaS'panda_link0'
p56
abag0
(g35
g2
Ntp57
Rp58
(lp59
g0
(g39
g2
Ntp60
Rp61
(lp62
F0.5069132714754178
aF0.004873624607929537
aF0.027077189596690976
abag0
(g43
g2
Ntp63
Rp64
(lp65
F0.9995143312059889
aF-0.02583181235790082
aF0.016166211683465017
aF-0.006517114695673689
abababag0
(g22
g2
Ntp66
Rp67
(lp68
g0
(g26
g2
Ntp69
Rp70
(lp71
I0
ag0
(g30
g2
Ntp72
Rp73
(lp74
I0
aI0
abaS'panda_link0'
p75
abag0
(g35
g2
Ntp76
Rp77
(lp78
g0
(g39
g2
Ntp79
Rp80
(lp81
F0.6404225030201885
aF-0.21899515188976365
aF0.31947401035356376
abag0
(g43
g2
Ntp82
Rp83
(lp84
F0.8476936441278499
aF-0.15503337362532482
aF0.5028616917286283
aF0.06715845262823286
abababag0
(g22
g2
Ntp85
Rp86
(lp87
g0
(g26
g2
Ntp88
Rp89
(lp90
I0
ag0
(g30
g2
Ntp91
Rp92
(lp93
I0
aI0
abaS'panda_link0'
p94
abag0
(g35
g2
Ntp95
Rp96
(lp97
g0
(g39
g2
Ntp98
Rp99
(lp100
F0.48697273191184176
aF-0.0003249795766055996
aF0.3672047165651558
abag0
(g43
g2
Ntp101
Rp102
(lp103
F0.9986485219265587
aF-0.028677903984510297
aF0.042164274523526495
aF-0.010043974853580964
abababasS'gripper_state_list'
p104
(lp105
g0
(cpanda_eup.panda_primitive
GripperState
p106
g2
Ntp107
Rp108
(dp109
S'width'
p110
F0.08
sS'force'
p111
F0.0
sbag0
(g106
g2
Ntp112
Rp113
(dp114
g110
F0.033291686326265335
sg111
F20.0
sbag0
(g106
g2
Ntp115
Rp116
(dp117
g110
F0.04758337885141373
sg111
F0.0
sbasS'primitives'
p118
(lp119
g0
(g16
g2
Ntp120
Rp121
(dp122
S'status'
p123
cpanda_eup.panda_primitive
PandaPrimitiveStatus
p124
(I0
tp125
Rp126
sS'starting_arm_state_index'
p127
I0
sS'description'
p128
S'A Move to Contact primitive'
p129
sS'parameters_update_history'
p130
(dp131
S'position_speed'
p132
(lp133
F0.07
asS'force_threshold'
p134
(lp135
F10.0
asS'pose'
p136
(lp137
g0
(g22
g2
Ntp138
Rp139
(lp140
g0
(g26
g2
Ntp141
Rp142
(lp143
I0
ag0
(g30
g2
Ntp144
Rp145
(lp146
I0
aI0
abag56
abag0
(g35
g2
Ntp147
Rp148
(lp149
g0
(g39
g2
Ntp150
Rp151
(lp152
F0.5069132714754178
aF0.004873624607929537
aF0.027077189596690976
abag0
(g43
g2
Ntp153
Rp154
(lp155
F0.9995143312059889
aF-0.02583181235790082
aF0.016166211683465017
aF-0.006517114695673689
abababasS'rotation_speed'
p156
(lp157
F-1.0
asS'torque_threshold'
p158
(lp159
F10.0
assS'parameters_with_effects_on_robot_state'
p160
(lp161
g136
ag134
ag158
asS'expected_container'
p162
cpanda_pbd.msg._MoveToContactGoal
MoveToContactGoal
p163
sS'gui_tunable_parameter_strict_ranges'
p164
(dp165
g134
(lp166
F5.0
aF20.0
asg132
(lp167
F0.01
aF0.25
assS'container_update_history'
p168
(lp169
g0
(g163
g2
Ntp170
Rp171
(lp172
g0
(g22
g2
Ntp173
Rp174
(lp175
g0
(g26
g2
Ntp176
Rp177
(lp178
I0
ag0
(g30
g2
Ntp179
Rp180
(lp181
I0
aI0
abag56
abag0
(g35
g2
Ntp182
Rp183
(lp184
g0
(g39
g2
Ntp185
Rp186
(lp187
F0.5069132714754178
aF0.004873624607929537
aF0.027077189596690976
abag0
(g43
g2
Ntp188
Rp189
(lp190
F0.9995143312059889
aF-0.02583181235790082
aF0.016166211683465017
aF-0.006517114695673689
abababaF0.07
aF-1.0
aF10.0
aF10.0
abasS'starting_gripper_state_index'
p191
I0
sS'revertible'
p192
I01
sS'parameter_container'
p193
g0
(g163
g2
Ntp194
Rp195
(lp196
g48
aF0.07
aF-1.0
aF10.0
aF10.0
absbag0
(g10
g2
Ntp197
Rp198
(dp199
g123
g126
sg127
I1
sg128
S'A Apply Force (with) Fingers primitive'
p200
sg130
(dp201
g111
(lp202
F20.0
assg160
(lp203
g111
asg162
cpanda_pbd.srv._ApplyForceFingers
ApplyForceFingersRequest
p204
sg164
(dp205
g111
(lp206
F20.0
aF60.0
assg168
(lp207
g0
(g204
g2
Ntp208
Rp209
(lp210
F20.0
abasg191
I0
sg192
I01
sg193
g0
(g204
g2
Ntp211
Rp212
(lp213
F20.0
absbag0
(g14
g2
Ntp214
Rp215
(dp216
g123
g126
sg127
I1
sg128
S'A Move to End-Effector primitive'
p217
sg130
(dp218
g132
(lp219
F0.07
asg136
(lp220
g0
(g22
g2
Ntp221
Rp222
(lp223
g0
(g26
g2
Ntp224
Rp225
(lp226
I0
ag0
(g30
g2
Ntp227
Rp228
(lp229
I0
aI0
abag75
abag0
(g35
g2
Ntp230
Rp231
(lp232
g0
(g39
g2
Ntp233
Rp234
(lp235
F0.6404225030201885
aF-0.21899515188976365
aF0.31947401035356376
abag0
(g43
g2
Ntp236
Rp237
(lp238
F0.8476936441278499
aF-0.15503337362532482
aF0.5028616917286283
aF0.06715845262823286
abababasg156
(lp239
F-1.0
assg160
(lp240
g136
asg162
cpanda_pbd.msg._MoveToEEGoal
MoveToEEGoal
p241
sg164
(dp242
g132
(lp243
F0.01
aF0.25
assg168
(lp244
g0
(g241
g2
Ntp245
Rp246
(lp247
g0
(g22
g2
Ntp248
Rp249
(lp250
g0
(g26
g2
Ntp251
Rp252
(lp253
I0
ag0
(g30
g2
Ntp254
Rp255
(lp256
I0
aI0
abag75
abag0
(g35
g2
Ntp257
Rp258
(lp259
g0
(g39
g2
Ntp260
Rp261
(lp262
F0.6404225030201885
aF-0.21899515188976365
aF0.31947401035356376
abag0
(g43
g2
Ntp263
Rp264
(lp265
F0.8476936441278499
aF-0.15503337362532482
aF0.5028616917286283
aF0.06715845262823286
abababaF0.07
aF-1.0
abasg191
I1
sg192
I01
sg193
g0
(g241
g2
Ntp266
Rp267
(lp268
g67
aF0.07
aF-1.0
absbag0
(g8
g2
Ntp269
Rp270
(dp271
g123
g126
sg127
I2
sg128
S'A User Synchronization primitive'
p272
sg130
(dp273
g134
(lp274
F10.0
assg160
(lp275
sg162
cpanda_pbd.msg._UserSyncGoal
UserSyncGoal
p276
sg164
(dp277
g134
(lp278
F5.0
aF30.0
assg168
(lp279
g0
(g276
g2
Ntp280
Rp281
(lp282
F10.0
abasg191
I1
sg192
I01
sg193
g0
(g276
g2
Ntp283
Rp284
(lp285
F10.0
absbag0
(g12
g2
Ntp286
Rp287
(dp288
g123
g126
sg127
I2
sg128
S'A Move Fingers primitive'
p289
sg130
(dp290
g110
(lp291
F0.04758337885141373
assg160
(lp292
g110
asg162
cpanda_pbd.srv._MoveFingers
MoveFingersRequest
p293
sg164
(dp294
g110
(lp295
F0.04758337885141373
aF0.08
assg168
(lp296
g0
(g293
g2
Ntp297
Rp298
(lp299
F0.04758337885141373
abasg191
I1
sg192
I01
sg193
g0
(g293
g2
Ntp300
Rp301
(lp302
F0.04758337885141373
absbag0
(g14
g2
Ntp303
Rp304
(dp305
g123
g126
sg127
I2
sg128
g217
sg130
(dp306
g132
(lp307
F0.07
asg136
(lp308
g0
(g22
g2
Ntp309
Rp310
(lp311
g0
(g26
g2
Ntp312
Rp313
(lp314
I0
ag0
(g30
g2
Ntp315
Rp316
(lp317
I0
aI0
abag94
abag0
(g35
g2
Ntp318
Rp319
(lp320
g0
(g39
g2
Ntp321
Rp322
(lp323
F0.48697273191184176
aF-0.0003249795766055996
aF0.3672047165651558
abag0
(g43
g2
Ntp324
Rp325
(lp326
F0.9986485219265587
aF-0.028677903984510297
aF0.042164274523526495
aF-0.010043974853580964
abababasg156
(lp327
F-1.0
assg160
(lp328
g136
asg162
g241
sg164
g242
sg168
(lp329
g0
(g241
g2
Ntp330
Rp331
(lp332
g0
(g22
g2
Ntp333
Rp334
(lp335
g0
(g26
g2
Ntp336
Rp337
(lp338
I0
ag0
(g30
g2
Ntp339
Rp340
(lp341
I0
aI0
abag94
abag0
(g35
g2
Ntp342
Rp343
(lp344
g0
(g39
g2
Ntp345
Rp346
(lp347
F0.48697273191184176
aF-0.0003249795766055996
aF0.3672047165651558
abag0
(g43
g2
Ntp348
Rp349
(lp350
F0.9986485219265587
aF-0.028677903984510297
aF0.042164274523526495
aF-0.010043974853580964
abababaF0.07
aF-1.0
abasg191
I2
sg192
I01
sg193
g0
(g241
g2
Ntp351
Rp352
(lp353
g86
aF0.07
aF-1.0
absbasg128
S'Empty Description'
p354
sb.