ccopy_reg
_reconstructor
p0
(cpanda_eup.panda_primitive
PandaProgram
p1
c__builtin__
object
p2
Ntp3
Rp4
(dp5
S'effect_of_primitive'
p6
(dp7
cpanda_eup.panda_primitive
MoveToContact
p8
(lp9
I01
aI00
ascpanda_eup.panda_primitive
MoveToEE
p10
(lp11
I01
aI00
ascpanda_eup.panda_primitive
UserSync
p12
(lp13
I00
aI00
ascpanda_eup.panda_primitive
ApplyForceFingers
p14
(lp15
I00
aI01
ascpanda_eup.panda_primitive
MoveFingers
p16
(lp17
I00
aI01
assS'name'
p18
S'A Panda Program'
p19
sS'arm_state_list'
p20
(lp21
g0
(cgeometry_msgs.msg._PoseStamped
PoseStamped
p22
g2
Ntp23
Rp24
(lp25
g0
(cstd_msgs.msg._Header
Header
p26
g2
Ntp27
Rp28
(lp29
I0
ag0
(cgenpy.rostime
Time
p30
g2
Ntp31
Rp32
(lp33
I0
aI0
abaS'panda_link0'
p34
abag0
(cgeometry_msgs.msg._Pose
Pose
p35
g2
Ntp36
Rp37
(lp38
g0
(cgeometry_msgs.msg._Point
Point
p39
g2
Ntp40
Rp41
(lp42
F0.5312156772136741
aF-0.004213832037605003
aF0.2791477857696641
abag0
(cgeometry_msgs.msg._Quaternion
Quaternion
p43
g2
Ntp44
Rp45
(lp46
F0.9998426745293479
aF-0.0012989036211814623
aF-0.015151451703851461
aF0.009130857059957196
abababag0
(g22
g2
Ntp47
Rp48
(lp49
g0
(g26
g2
Ntp50
Rp51
(lp52
I0
ag0
(g30
g2
Ntp53
Rp54
(lp55
I0
aI0
abaS'panda_link0'
p56
abag0
(g35
g2
Ntp57
Rp58
(lp59
g0
(g39
g2
Ntp60
Rp61
(lp62
F0.6291606890683931
aF-0.01756171880400191
aF0.028914236115472003
abag0
(g43
g2
Ntp63
Rp64
(lp65
F0.9996633523777806
aF-0.015343713262413525
aF-0.006487542474414595
aF0.01989130887550479
abababag0
(g22
g2
Ntp66
Rp67
(lp68
g0
(g26
g2
Ntp69
Rp70
(lp71
I0
ag0
(g30
g2
Ntp72
Rp73
(lp74
I0
aI0
abaS'panda_link0'
p75
abag0
(g35
g2
Ntp76
Rp77
(lp78
g0
(g39
g2
Ntp79
Rp80
(lp81
F0.6606032360834263
aF-0.25509909749650367
aF0.2189918506397342
abag0
(g43
g2
Ntp82
Rp83
(lp84
F0.8691574559457833
aF-0.08500692855363186
aF0.4602916968377993
aF0.15959540311021178
abababag0
(g22
g2
Ntp85
Rp86
(lp87
g0
(g26
g2
Ntp88
Rp89
(lp90
I0
ag0
(g30
g2
Ntp91
Rp92
(lp93
I0
aI0
abaS'panda_link0'
p94
abag0
(g35
g2
Ntp95
Rp96
(lp97
g0
(g39
g2
Ntp98
Rp99
(lp100
F0.6671468676689439
aF-0.016613193735631467
aF0.30707715355753323
abag0
(g43
g2
Ntp101
Rp102
(lp103
F0.9986598217558271
aF0.006538418720246301
aF0.044624325389529575
aF0.02538659242174208
abababasS'gripper_state_list'
p104
(lp105
g0
(cpanda_eup.panda_primitive
GripperState
p106
g2
Ntp107
Rp108
(dp109
S'width'
p110
F0.07941201329231262
sS'force'
p111
F0.0
sbag0
(g106
g2
Ntp112
Rp113
(dp114
g110
F0.031635574996471405
sg111
F20.0
sbag0
(g106
g2
Ntp115
Rp116
(dp117
g110
F0.08
sg111
F0.0
sbasS'primitives'
p118
(lp119
g0
(g8
g2
Ntp120
Rp121
(dp122
S'status'
p123
cpanda_eup.panda_primitive
PandaPrimitiveStatus
p124
(I0
tp125
Rp126
sS'starting_arm_state_index'
p127
I0
sS'description'
p128
S'A Move to Contact primitive'
p129
sS'parameters_update_history'
p130
(dp131
S'position_speed'
p132
(lp133
F0.07
asS'force_threshold'
p134
(lp135
F10.0
asS'pose'
p136
(lp137
g0
(g22
g2
Ntp138
Rp139
(lp140
g0
(g26
g2
Ntp141
Rp142
(lp143
I0
ag0
(g30
g2
Ntp144
Rp145
(lp146
I0
aI0
abag56
abag0
(g35
g2
Ntp147
Rp148
(lp149
g0
(g39
g2
Ntp150
Rp151
(lp152
F0.6291606890683931
aF-0.01756171880400191
aF0.028914236115472003
abag0
(g43
g2
Ntp153
Rp154
(lp155
F0.9996633523777806
aF-0.015343713262413525
aF-0.006487542474414595
aF0.01989130887550479
abababasS'rotation_speed'
p156
(lp157
F-1.0
asS'torque_threshold'
p158
(lp159
F10.0
assS'parameters_with_effects_on_robot_state'
p160
(lp161
g136
ag134
ag158
asS'expected_container'
p162
cpanda_pbd.msg._MoveToContactGoal
MoveToContactGoal
p163
sS'container_update_history'
p164
(lp165
g0
(g163
g2
Ntp166
Rp167
(lp168
g0
(g22
g2
Ntp169
Rp170
(lp171
g0
(g26
g2
Ntp172
Rp173
(lp174
I0
ag0
(g30
g2
Ntp175
Rp176
(lp177
I0
aI0
abag56
abag0
(g35
g2
Ntp178
Rp179
(lp180
g0
(g39
g2
Ntp181
Rp182
(lp183
F0.6291606890683931
aF-0.01756171880400191
aF0.028914236115472003
abag0
(g43
g2
Ntp184
Rp185
(lp186
F0.9996633523777806
aF-0.015343713262413525
aF-0.006487542474414595
aF0.01989130887550479
abababaF0.07
aF-1.0
aF10.0
aF10.0
abasS'starting_gripper_state_index'
p187
I0
sS'revertible'
p188
I01
sS'parameter_container'
p189
g0
(g163
g2
Ntp190
Rp191
(lp192
g48
aF0.07
aF-1.0
aF10.0
aF10.0
absbag0
(g14
g2
Ntp193
Rp194
(dp195
g123
g126
sg127
I1
sg128
S'A Apply Force (with) Fingers primitive'
p196
sg130
(dp197
g111
(lp198
F20.0
assg160
(lp199
g111
asg162
cpanda_pbd.srv._ApplyForceFingers
ApplyForceFingersRequest
p200
sg164
(lp201
g0
(g200
g2
Ntp202
Rp203
(lp204
F20.0
abasg187
I0
sg188
I01
sg189
g0
(g200
g2
Ntp205
Rp206
(lp207
F20.0
absbag0
(g10
g2
Ntp208
Rp209
(dp210
g123
g126
sg127
I1
sg128
S'A Move to End-Effector primitive'
p211
sg130
(dp212
g132
(lp213
F0.07
asg136
(lp214
g0
(g22
g2
Ntp215
Rp216
(lp217
g0
(g26
g2
Ntp218
Rp219
(lp220
I0
ag0
(g30
g2
Ntp221
Rp222
(lp223
I0
aI0
abag75
abag0
(g35
g2
Ntp224
Rp225
(lp226
g0
(g39
g2
Ntp227
Rp228
(lp229
F0.6606032360834263
aF-0.25509909749650367
aF0.2189918506397342
abag0
(g43
g2
Ntp230
Rp231
(lp232
F0.8691574559457833
aF-0.08500692855363186
aF0.4602916968377993
aF0.15959540311021178
abababasg156
(lp233
F-1.0
assg160
(lp234
g136
asg162
cpanda_pbd.msg._MoveToEEGoal
MoveToEEGoal
p235
sg164
(lp236
g0
(g235
g2
Ntp237
Rp238
(lp239
g0
(g22
g2
Ntp240
Rp241
(lp242
g0
(g26
g2
Ntp243
Rp244
(lp245
I0
ag0
(g30
g2
Ntp246
Rp247
(lp248
I0
aI0
abag75
abag0
(g35
g2
Ntp249
Rp250
(lp251
g0
(g39
g2
Ntp252
Rp253
(lp254
F0.6606032360834263
aF-0.25509909749650367
aF0.2189918506397342
abag0
(g43
g2
Ntp255
Rp256
(lp257
F0.8691574559457833
aF-0.08500692855363186
aF0.4602916968377993
aF0.15959540311021178
abababaF0.07
aF-1.0
abasg187
I1
sg188
I01
sg189
g0
(g235
g2
Ntp258
Rp259
(lp260
g67
aF0.07
aF-1.0
absbag0
(g12
g2
Ntp261
Rp262
(dp263
g123
g126
sg127
I2
sg128
S'A User Synchronization primitive'
p264
sg130
(dp265
g134
(lp266
F10.0
assg160
(lp267
sg162
cpanda_pbd.msg._UserSyncGoal
UserSyncGoal
p268
sg164
(lp269
g0
(g268
g2
Ntp270
Rp271
(lp272
F10.0
abasg187
I1
sg188
I01
sg189
g0
(g268
g2
Ntp273
Rp274
(lp275
F10.0
absbag0
(g16
g2
Ntp276
Rp277
(dp278
g123
g126
sg127
I2
sg128
S'A Move Fingers primitive'
p279
sg130
(dp280
g110
(lp281
F0.08
assg160
(lp282
g110
asg162
cpanda_pbd.srv._MoveFingers
MoveFingersRequest
p283
sg164
(lp284
g0
(g283
g2
Ntp285
Rp286
(lp287
F0.08
abasg187
I1
sg188
I01
sg189
g0
(g283
g2
Ntp288
Rp289
(lp290
F0.08
absbag0
(g10
g2
Ntp291
Rp292
(dp293
g123
g126
sg127
I2
sg128
g211
sg130
(dp294
g132
(lp295
F0.07
asg136
(lp296
g0
(g22
g2
Ntp297
Rp298
(lp299
g0
(g26
g2
Ntp300
Rp301
(lp302
I0
ag0
(g30
g2
Ntp303
Rp304
(lp305
I0
aI0
abag94
abag0
(g35
g2
Ntp306
Rp307
(lp308
g0
(g39
g2
Ntp309
Rp310
(lp311
F0.6671468676689439
aF-0.016613193735631467
aF0.30707715355753323
abag0
(g43
g2
Ntp312
Rp313
(lp314
F0.9986598217558271
aF0.006538418720246301
aF0.044624325389529575
aF0.02538659242174208
abababasg156
(lp315
F-1.0
assg160
(lp316
g136
asg162
g235
sg164
(lp317
g0
(g235
g2
Ntp318
Rp319
(lp320
g0
(g22
g2
Ntp321
Rp322
(lp323
g0
(g26
g2
Ntp324
Rp325
(lp326
I0
ag0
(g30
g2
Ntp327
Rp328
(lp329
I0
aI0
abag94
abag0
(g35
g2
Ntp330
Rp331
(lp332
g0
(g39
g2
Ntp333
Rp334
(lp335
F0.6671468676689439
aF-0.016613193735631467
aF0.30707715355753323
abag0
(g43
g2
Ntp336
Rp337
(lp338
F0.9986598217558271
aF0.006538418720246301
aF0.044624325389529575
aF0.02538659242174208
abababaF0.07
aF-1.0
abasg187
I2
sg188
I01
sg189
g0
(g235
g2
Ntp339
Rp340
(lp341
g86
aF0.07
aF-1.0
absbasg128
S'Empty Description'
p342
sb.