ccopy_reg
_reconstructor
p0
(cpanda_eup.panda_primitive
PandaProgram
p1
c__builtin__
object
p2
Ntp3
Rp4
(dp5
S'effect_of_primitive'
p6
(dp7
cpanda_eup.panda_primitive
UserSync
p8
(lp9
I00
aI00
ascpanda_eup.panda_primitive
CloseGripper
p10
(lp11
I00
aI01
ascpanda_eup.panda_primitive
MoveToContact
p12
(lp13
I01
aI00
ascpanda_eup.panda_primitive
OpenGripper
p14
(lp15
I00
aI01
ascpanda_eup.panda_primitive
MoveToEE
p16
(lp17
I01
aI00
ascpanda_eup.panda_primitive
MoveFingers
p18
(lp19
I00
aI01
ascpanda_eup.panda_primitive
ApplyForceFingers
p20
(lp21
I00
aI01
assS'name'
p22
S'A Panda Program'
p23
sS'arm_state_list'
p24
(lp25
g0
(cgeometry_msgs.msg._PoseStamped
PoseStamped
p26
g2
Ntp27
Rp28
(lp29
g0
(cstd_msgs.msg._Header
Header
p30
g2
Ntp31
Rp32
(lp33
I0
ag0
(cgenpy.rostime
Time
p34
g2
Ntp35
Rp36
(lp37
I0
aI0
abaS'panda_link0'
p38
abag0
(cgeometry_msgs.msg._Pose
Pose
p39
g2
Ntp40
Rp41
(lp42
g0
(cgeometry_msgs.msg._Point
Point
p43
g2
Ntp44
Rp45
(lp46
F0.5140044505804332
aF-0.006223732211879621
aF0.2893824383349195
abag0
(cgeometry_msgs.msg._Quaternion
Quaternion
p47
g2
Ntp48
Rp49
(lp50
F0.9999113518159196
aF0.008041028533542953
aF-0.004672295372898962
aF-0.009528904749829365
abababag0
(g26
g2
Ntp51
Rp52
(lp53
g0
(g30
g2
Ntp54
Rp55
(lp56
I0
ag0
(g34
g2
Ntp57
Rp58
(lp59
I0
aI0
abaS'panda_link0'
p60
abag0
(g39
g2
Ntp61
Rp62
(lp63
g0
(g43
g2
Ntp64
Rp65
(lp66
F0.6460442579405017
aF-0.015283975685430266
aF0.019122068051120322
abag0
(g47
g2
Ntp67
Rp68
(lp69
F0.9997848038246328
aF-0.006000433405049153
aF-0.008129569659178684
aF0.018117696803095877
abababag0
(g26
g2
Ntp70
Rp71
(lp72
g0
(g30
g2
Ntp73
Rp74
(lp75
I0
ag0
(g34
g2
Ntp76
Rp77
(lp78
I0
aI0
abaS'panda_link0'
p79
abag0
(g39
g2
Ntp80
Rp81
(lp82
g0
(g43
g2
Ntp83
Rp84
(lp85
F0.6198879647268778
aF-0.19631947244134634
aF0.2155106502198696
abag0
(g47
g2
Ntp86
Rp87
(lp88
F0.999505313924461
aF-0.012183380812192952
aF-0.010436362037717008
aF0.027051340376540403
abababag0
(g26
g2
Ntp89
Rp90
(lp91
g0
(g30
g2
Ntp92
Rp93
(lp94
I0
ag0
(g34
g2
Ntp95
Rp96
(lp97
I0
aI0
abaS'panda_link0'
p98
abag0
(g39
g2
Ntp99
Rp100
(lp101
g0
(g43
g2
Ntp102
Rp103
(lp104
F0.655798556841779
aF-0.20020988395588293
aF0.25276537637251406
abag0
(g47
g2
Ntp105
Rp106
(lp107
F0.9082208760801136
aF-0.05446392690482062
aF0.4089700455250013
aF0.07008582439877438
abababag0
(g26
g2
Ntp108
Rp109
(lp110
g0
(g30
g2
Ntp111
Rp112
(lp113
I0
ag0
(g34
g2
Ntp114
Rp115
(lp116
I0
aI0
abaS'panda_link0'
p117
abag0
(g39
g2
Ntp118
Rp119
(lp120
g0
(g43
g2
Ntp121
Rp122
(lp123
F0.5055378404761658
aF-0.011987166956512432
aF0.2863275903938503
abag0
(g47
g2
Ntp124
Rp125
(lp126
F0.9998113003351528
aF-0.01132608880028168
aF-0.015581519306889237
aF-0.002509918466457639
abababasS'gripper_state_list'
p127
(lp128
g0
(cpanda_eup.panda_primitive
GripperState
p129
g2
Ntp130
Rp131
(dp132
S'width'
p133
F0.07945272326469421
sS'force'
p134
F0.0
sbag0
(g129
g2
Ntp135
Rp136
(dp137
g133
F0.032250214368104935
sg134
F20.0
sbag0
(g129
g2
Ntp138
Rp139
(dp140
g133
F0.03212610259652138
sg134
F0.0
sbasS'primitives'
p141
(lp142
g0
(g12
g2
Ntp143
Rp144
(dp145
S'status'
p146
cpanda_eup.panda_primitive
PandaPrimitiveStatus
p147
(I0
tp148
Rp149
sS'starting_arm_state_index'
p150
I0
sS'description'
p151
S'A Move to Contact primitive'
p152
sS'parameters_update_history'
p153
(dp154
S'position_speed'
p155
(lp156
F0.05
asS'force_threshold'
p157
(lp158
F5.0
asS'pose'
p159
(lp160
g0
(g26
g2
Ntp161
Rp162
(lp163
g0
(g30
g2
Ntp164
Rp165
(lp166
I0
ag0
(g34
g2
Ntp167
Rp168
(lp169
I0
aI0
abag60
abag0
(g39
g2
Ntp170
Rp171
(lp172
g0
(g43
g2
Ntp173
Rp174
(lp175
F0.6460442579405017
aF-0.015283975685430266
aF0.019122068051120322
abag0
(g47
g2
Ntp176
Rp177
(lp178
F0.9997848038246328
aF-0.006000433405049153
aF-0.008129569659178684
aF0.018117696803095877
abababasS'rotation_speed'
p179
(lp180
F-1.0
asS'torque_threshold'
p181
(lp182
F5.0
assS'parameters_with_effects_on_robot_state'
p183
(lp184
g159
ag157
ag181
asS'expected_container'
p185
cpanda_pbd.msg._MoveToContactGoal
MoveToContactGoal
p186
sS'container_update_history'
p187
(lp188
g0
(g186
g2
Ntp189
Rp190
(lp191
g0
(g26
g2
Ntp192
Rp193
(lp194
g0
(g30
g2
Ntp195
Rp196
(lp197
I0
ag0
(g34
g2
Ntp198
Rp199
(lp200
I0
aI0
abag60
abag0
(g39
g2
Ntp201
Rp202
(lp203
g0
(g43
g2
Ntp204
Rp205
(lp206
F0.6460442579405017
aF-0.015283975685430266
aF0.019122068051120322
abag0
(g47
g2
Ntp207
Rp208
(lp209
F0.9997848038246328
aF-0.006000433405049153
aF-0.008129569659178684
aF0.018117696803095877
abababaF0.05
aF-1.0
aF5.0
aF5.0
abasS'starting_gripper_state_index'
p210
I0
sS'revertible'
p211
I01
sS'parameter_container'
p212
g0
(g186
g2
Ntp213
Rp214
(lp215
g52
aF0.05
aF-1.0
aF5.0
aF5.0
absbag0
(g20
g2
Ntp216
Rp217
(dp218
g146
g149
sg150
I1
sg151
S'A Apply Force (with) Fingers primitive'
p219
sg153
(dp220
g134
(lp221
F20.0
assg183
(lp222
g134
asg185
cpanda_pbd.srv._ApplyForceFingers
ApplyForceFingersRequest
p223
sg187
(lp224
g0
(g223
g2
Ntp225
Rp226
(lp227
F20.0
abasg210
I0
sg211
I01
sg212
g0
(g223
g2
Ntp228
Rp229
(lp230
F20.0
absbag0
(g16
g2
Ntp231
Rp232
(dp233
g146
g149
sg150
I1
sg151
S'A Move to End-Effector primitive'
p234
sg153
(dp235
g155
(lp236
F0.05
asg159
(lp237
g0
(g26
g2
Ntp238
Rp239
(lp240
g0
(g30
g2
Ntp241
Rp242
(lp243
I0
ag0
(g34
g2
Ntp244
Rp245
(lp246
I0
aI0
abag79
abag0
(g39
g2
Ntp247
Rp248
(lp249
g0
(g43
g2
Ntp250
Rp251
(lp252
F0.6198879647268778
aF-0.19631947244134634
aF0.2155106502198696
abag0
(g47
g2
Ntp253
Rp254
(lp255
F0.999505313924461
aF-0.012183380812192952
aF-0.010436362037717008
aF0.027051340376540403
abababasg179
(lp256
F-1.0
assg183
(lp257
g159
asg185
cpanda_pbd.msg._MoveToEEGoal
MoveToEEGoal
p258
sg187
(lp259
g0
(g258
g2
Ntp260
Rp261
(lp262
g0
(g26
g2
Ntp263
Rp264
(lp265
g0
(g30
g2
Ntp266
Rp267
(lp268
I0
ag0
(g34
g2
Ntp269
Rp270
(lp271
I0
aI0
abag79
abag0
(g39
g2
Ntp272
Rp273
(lp274
g0
(g43
g2
Ntp275
Rp276
(lp277
F0.6198879647268778
aF-0.19631947244134634
aF0.2155106502198696
abag0
(g47
g2
Ntp278
Rp279
(lp280
F0.999505313924461
aF-0.012183380812192952
aF-0.010436362037717008
aF0.027051340376540403
abababaF0.05
aF-1.0
abasg210
I1
sg211
I01
sg212
g0
(g258
g2
Ntp281
Rp282
(lp283
g71
aF0.05
aF-1.0
absbag0
(g16
g2
Ntp284
Rp285
(dp286
g146
g149
sg150
I2
sg151
g234
sg153
(dp287
g155
(lp288
F0.05
asg159
(lp289
g0
(g26
g2
Ntp290
Rp291
(lp292
g0
(g30
g2
Ntp293
Rp294
(lp295
I0
ag0
(g34
g2
Ntp296
Rp297
(lp298
I0
aI0
abag98
abag0
(g39
g2
Ntp299
Rp300
(lp301
g0
(g43
g2
Ntp302
Rp303
(lp304
F0.655798556841779
aF-0.20020988395588293
aF0.25276537637251406
abag0
(g47
g2
Ntp305
Rp306
(lp307
F0.9082208760801136
aF-0.05446392690482062
aF0.4089700455250013
aF0.07008582439877438
abababasg179
(lp308
F-1.0
assg183
(lp309
g159
asg185
g258
sg187
(lp310
g0
(g258
g2
Ntp311
Rp312
(lp313
g0
(g26
g2
Ntp314
Rp315
(lp316
g0
(g30
g2
Ntp317
Rp318
(lp319
I0
ag0
(g34
g2
Ntp320
Rp321
(lp322
I0
aI0
abag98
abag0
(g39
g2
Ntp323
Rp324
(lp325
g0
(g43
g2
Ntp326
Rp327
(lp328
F0.655798556841779
aF-0.20020988395588293
aF0.25276537637251406
abag0
(g47
g2
Ntp329
Rp330
(lp331
F0.9082208760801136
aF-0.05446392690482062
aF0.4089700455250013
aF0.07008582439877438
abababaF0.05
aF-1.0
abasg210
I1
sg211
I01
sg212
g0
(g258
g2
Ntp332
Rp333
(lp334
g90
aF0.05
aF-1.0
absbag0
(g8
g2
Ntp335
Rp336
(dp337
g146
g149
sg150
I3
sg151
S'A User Synchronization primitive'
p338
sg153
(dp339
g157
(lp340
F10.0
assg183
(lp341
sg185
cpanda_pbd.msg._UserSyncGoal
UserSyncGoal
p342
sg187
(lp343
g0
(g342
g2
Ntp344
Rp345
(lp346
F10.0
abasg210
I1
sg211
I01
sg212
g0
(g342
g2
Ntp347
Rp348
(lp349
F10.0
absbag0
(g18
g2
Ntp350
Rp351
(dp352
g146
g149
sg150
I3
sg151
S'A Move Fingers primitive'
p353
sg153
(dp354
g133
(lp355
F0.03212610259652138
assg183
(lp356
g133
asg185
cpanda_pbd.srv._MoveFingers
MoveFingersRequest
p357
sg187
(lp358
g0
(g357
g2
Ntp359
Rp360
(lp361
F0.03212610259652138
abasg210
I1
sg211
I01
sg212
g0
(g357
g2
Ntp362
Rp363
(lp364
F0.03212610259652138
absbag0
(g16
g2
Ntp365
Rp366
(dp367
g146
g149
sg150
I3
sg151
g234
sg153
(dp368
g155
(lp369
F0.05
asg159
(lp370
g0
(g26
g2
Ntp371
Rp372
(lp373
g0
(g30
g2
Ntp374
Rp375
(lp376
I0
ag0
(g34
g2
Ntp377
Rp378
(lp379
I0
aI0
abag117
abag0
(g39
g2
Ntp380
Rp381
(lp382
g0
(g43
g2
Ntp383
Rp384
(lp385
F0.5055378404761658
aF-0.011987166956512432
aF0.2863275903938503
abag0
(g47
g2
Ntp386
Rp387
(lp388
F0.9998113003351528
aF-0.01132608880028168
aF-0.015581519306889237
aF-0.002509918466457639
abababasg179
(lp389
F-1.0
assg183
(lp390
g159
asg185
g258
sg187
(lp391
g0
(g258
g2
Ntp392
Rp393
(lp394
g0
(g26
g2
Ntp395
Rp396
(lp397
g0
(g30
g2
Ntp398
Rp399
(lp400
I0
ag0
(g34
g2
Ntp401
Rp402
(lp403
I0
aI0
abag117
abag0
(g39
g2
Ntp404
Rp405
(lp406
g0
(g43
g2
Ntp407
Rp408
(lp409
F0.5055378404761658
aF-0.011987166956512432
aF0.2863275903938503
abag0
(g47
g2
Ntp410
Rp411
(lp412
F0.9998113003351528
aF-0.01132608880028168
aF-0.015581519306889237
aF-0.002509918466457639
abababaF0.05
aF-1.0
abasg210
I2
sg211
I01
sg212
g0
(g258
g2
Ntp413
Rp414
(lp415
g109
aF0.05
aF-1.0
absbasg151
S'Empty Description'
p416
sb.