ccopy_reg
_reconstructor
p0
(cpanda_eup.panda_primitive
PandaProgram
p1
c__builtin__
object
p2
Ntp3
Rp4
(dp5
S'effect_of_primitive'
p6
(dp7
cpanda_eup.panda_primitive
UserSync
p8
(lp9
I00
aI00
ascpanda_eup.panda_primitive
CloseGripper
p10
(lp11
I00
aI01
ascpanda_eup.panda_primitive
MoveToEE
p12
(lp13
I01
aI00
ascpanda_eup.panda_primitive
ApplyForceFingers
p14
(lp15
I00
aI01
ascpanda_eup.panda_primitive
OpenGripper
p16
(lp17
I00
aI01
ascpanda_eup.panda_primitive
MoveFingers
p18
(lp19
I00
aI01
ascpanda_eup.panda_primitive
MoveToContact
p20
(lp21
I01
aI00
assS'name'
p22
S'test'
p23
sS'arm_state_list'
p24
(lp25
I0
aI0
asS'gripper_state_list'
p26
(lp27
I0
aI0
asS'primitives'
p28
(lp29
g0
(g12
g2
Ntp30
Rp31
(dp32
S'starting_arm_state_index'
p33
I-1
sS'description'
p34
S'A Move to End-Effector primitive'
p35
sS'parameters_with_effects_on_robot_state'
p36
(lp37
S'pose'
p38
asS'expected_container'
p39
cpanda_pbd.msg._MoveToEEGoal
MoveToEEGoal
p40
sS'starting_gripper_state_index'
p41
I-1
sS'revertible'
p42
I01
sS'parameter_container'
p43
Nsbag0
(g18
g2
Ntp44
Rp45
(dp46
g33
I0
sg34
S'A Move Fingers primitive'
p47
sg36
(lp48
S'width'
p49
asg39
cpanda_pbd.srv._MoveFingers
MoveFingersRequest
p50
sg41
I-1
sg42
I01
sg43
Nsbag0
(g14
g2
Ntp51
Rp52
(dp53
g33
I0
sg34
S'A Apply Force (with) Fingers primitive'
p54
sg36
(lp55
S'force'
p56
asg39
cpanda_pbd.srv._ApplyForceFingers
ApplyForceFingersRequest
p57
sg41
I0
sg42
I01
sg43
Nsbag0
(g20
g2
Ntp58
Rp59
(dp60
g33
I0
sg34
S'A Move to Contact primitive'
p61
sg36
(lp62
g38
aS'force_threshold'
p63
aS'torque_threshold'
p64
asg39
cpanda_pbd.msg._MoveToContactGoal
MoveToContactGoal
p65
sg41
I1
sg42
I01
sg43
Nsbag0
(g8
g2
Ntp66
Rp67
(dp68
g33
I1
sg34
S'A User Synchronization primitive'
p69
sg36
(lp70
sg39
cpanda_pbd.msg._UserSyncGoal
UserSyncGoal
p71
sg41
I1
sg42
I01
sg43
Nsbasg34
S'a test program'
p72
sb.