ccopy_reg
_reconstructor
p0
(cpanda_eup.panda_primitive
PandaProgram
p1
c__builtin__
object
p2
Ntp3
Rp4
(dp5
S'effect_of_primitive'
p6
(dp7
cpanda_eup.panda_primitive
MoveToContact
p8
(lp9
I01
aI00
ascpanda_eup.panda_primitive
MoveToEE
p10
(lp11
I01
aI00
ascpanda_eup.panda_primitive
UserSync
p12
(lp13
I00
aI00
ascpanda_eup.panda_primitive
ApplyForceFingers
p14
(lp15
I00
aI01
ascpanda_eup.panda_primitive
MoveFingers
p16
(lp17
I00
aI01
assS'name'
p18
S'A Panda Program'
p19
sS'arm_state_list'
p20
(lp21
g0
(cgeometry_msgs.msg._PoseStamped
PoseStamped
p22
g2
Ntp23
Rp24
(lp25
g0
(cstd_msgs.msg._Header
Header
p26
g2
Ntp27
Rp28
(lp29
I0
ag0
(cgenpy.rostime
Time
p30
g2
Ntp31
Rp32
(lp33
I0
aI0
abaS'panda_link0'
p34
abag0
(cgeometry_msgs.msg._Pose
Pose
p35
g2
Ntp36
Rp37
(lp38
g0
(cgeometry_msgs.msg._Point
Point
p39
g2
Ntp40
Rp41
(lp42
F0.4510165764388451
aF-0.25451251814105036
aF0.3556417119176069
abag0
(cgeometry_msgs.msg._Quaternion
Quaternion
p43
g2
Ntp44
Rp45
(lp46
F0.7211211619272221
aF-0.6927664377328487
aF-0.0034873344989196893
aF0.0068389377658327165
abababag0
(g22
g2
Ntp47
Rp48
(lp49
g0
(g26
g2
Ntp50
Rp51
(lp52
I0
ag0
(g30
g2
Ntp53
Rp54
(lp55
I0
aI0
abaS'panda_link0'
p56
abag0
(g35
g2
Ntp57
Rp58
(lp59
g0
(g39
g2
Ntp60
Rp61
(lp62
F0.45731330339970816
aF-0.22204124762790467
aF0.12802671441706054
abag0
(g43
g2
Ntp63
Rp64
(lp65
F0.7070758708113997
aF-0.7067034985416127
aF0.014400301817407694
aF0.020162077594167223
abababag0
(g22
g2
Ntp66
Rp67
(lp68
g0
(g26
g2
Ntp69
Rp70
(lp71
I0
ag0
(g30
g2
Ntp72
Rp73
(lp74
I0
aI0
abaS'panda_link0'
p75
abag0
(g35
g2
Ntp76
Rp77
(lp78
g0
(g39
g2
Ntp79
Rp80
(lp81
F0.5313906534561575
aF-0.2283100021383075
aF0.09632848108884426
abag0
(g43
g2
Ntp82
Rp83
(lp84
F0.6791688475698168
aF-0.6490679687518547
aF-0.2476786971801487
aF-0.23684533221951534
abababag0
(g22
g2
Ntp85
Rp86
(lp87
g0
(g26
g2
Ntp88
Rp89
(lp90
I0
ag0
(g30
g2
Ntp91
Rp92
(lp93
I0
aI0
abaS'panda_link0'
p94
abag0
(g35
g2
Ntp95
Rp96
(lp97
g0
(g39
g2
Ntp98
Rp99
(lp100
F0.48522597525926614
aF0.2760220039769015
aF0.06658220792782904
abag0
(g43
g2
Ntp101
Rp102
(lp103
F-0.6684704132562753
aF0.6785119972421104
aF0.22596807729879947
aF0.20422341746575107
abababag0
(g22
g2
Ntp104
Rp105
(lp106
g0
(g26
g2
Ntp107
Rp108
(lp109
I0
ag0
(g30
g2
Ntp110
Rp111
(lp112
I0
aI0
abaS'panda_link0'
p113
abag0
(g35
g2
Ntp114
Rp115
(lp116
g0
(g39
g2
Ntp117
Rp118
(lp119
F0.45994461169103945
aF-0.053965652564801334
aF0.3414368641542338
abag0
(g43
g2
Ntp120
Rp121
(lp122
F0.9989220383304196
aF-0.03026478824798525
aF0.02526619563073721
aF-0.02450353624384985
abababasS'gripper_state_list'
p123
(lp124
g0
(cpanda_eup.panda_primitive
GripperState
p125
g2
Ntp126
Rp127
(dp128
S'width'
p129
F0.08
sS'force'
p130
F0.0
sbasS'primitives'
p131
(lp132
g0
(g10
g2
Ntp133
Rp134
(dp135
S'status'
p136
cpanda_eup.panda_primitive
PandaPrimitiveStatus
p137
(I0
tp138
Rp139
sS'starting_arm_state_index'
p140
I0
sS'description'
p141
S'A Move to End-Effector primitive'
p142
sS'parameters_update_history'
p143
(dp144
S'position_speed'
p145
(lp146
F0.07
asS'pose'
p147
(lp148
g0
(g22
g2
Ntp149
Rp150
(lp151
g0
(g26
g2
Ntp152
Rp153
(lp154
I0
ag0
(g30
g2
Ntp155
Rp156
(lp157
I0
aI0
abag56
abag0
(g35
g2
Ntp158
Rp159
(lp160
g0
(g39
g2
Ntp161
Rp162
(lp163
F0.45731330339970816
aF-0.22204124762790467
aF0.12802671441706054
abag0
(g43
g2
Ntp164
Rp165
(lp166
F0.7070758708113997
aF-0.7067034985416127
aF0.014400301817407694
aF0.020162077594167223
abababasS'rotation_speed'
p167
(lp168
F-1.0
assS'parameters_with_effects_on_robot_state'
p169
(lp170
g147
asS'expected_container'
p171
cpanda_pbd.msg._MoveToEEGoal
MoveToEEGoal
p172
sS'gui_tunable_parameter_strict_ranges'
p173
(dp174
g145
(lp175
F0.01
aF0.25
assS'container_update_history'
p176
(lp177
g0
(g172
g2
Ntp178
Rp179
(lp180
g0
(g22
g2
Ntp181
Rp182
(lp183
g0
(g26
g2
Ntp184
Rp185
(lp186
I0
ag0
(g30
g2
Ntp187
Rp188
(lp189
I0
aI0
abag56
abag0
(g35
g2
Ntp190
Rp191
(lp192
g0
(g39
g2
Ntp193
Rp194
(lp195
F0.45731330339970816
aF-0.22204124762790467
aF0.12802671441706054
abag0
(g43
g2
Ntp196
Rp197
(lp198
F0.7070758708113997
aF-0.7067034985416127
aF0.014400301817407694
aF0.020162077594167223
abababaF0.07
aF-1.0
abasS'starting_gripper_state_index'
p199
I0
sS'revertible'
p200
I01
sS'parameter_container'
p201
g0
(g172
g2
Ntp202
Rp203
(lp204
g48
aF0.07
aF-1.0
absbag0
(g10
g2
Ntp205
Rp206
(dp207
g136
g139
sg140
I1
sg141
g142
sg143
(dp208
g145
(lp209
F0.07
asg147
(lp210
g0
(g22
g2
Ntp211
Rp212
(lp213
g0
(g26
g2
Ntp214
Rp215
(lp216
I0
ag0
(g30
g2
Ntp217
Rp218
(lp219
I0
aI0
abag75
abag0
(g35
g2
Ntp220
Rp221
(lp222
g0
(g39
g2
Ntp223
Rp224
(lp225
F0.5313906534561575
aF-0.2283100021383075
aF0.09632848108884426
abag0
(g43
g2
Ntp226
Rp227
(lp228
F0.6791688475698168
aF-0.6490679687518547
aF-0.2476786971801487
aF-0.23684533221951534
abababasg167
(lp229
F-1.0
assg169
(lp230
g147
asg171
g172
sg173
g174
sg176
(lp231
g0
(g172
g2
Ntp232
Rp233
(lp234
g0
(g22
g2
Ntp235
Rp236
(lp237
g0
(g26
g2
Ntp238
Rp239
(lp240
I0
ag0
(g30
g2
Ntp241
Rp242
(lp243
I0
aI0
abag75
abag0
(g35
g2
Ntp244
Rp245
(lp246
g0
(g39
g2
Ntp247
Rp248
(lp249
F0.5313906534561575
aF-0.2283100021383075
aF0.09632848108884426
abag0
(g43
g2
Ntp250
Rp251
(lp252
F0.6791688475698168
aF-0.6490679687518547
aF-0.2476786971801487
aF-0.23684533221951534
abababaF0.07
aF-1.0
abasg199
I0
sg200
I01
sg201
g0
(g172
g2
Ntp253
Rp254
(lp255
g67
aF0.07
aF-1.0
absbag0
(g8
g2
Ntp256
Rp257
(dp258
g136
g139
sg140
I2
sg141
S'A Move to Contact primitive'
p259
sg143
(dp260
g145
(lp261
F0.07
asS'force_threshold'
p262
(lp263
F10.0
asg147
(lp264
g0
(g22
g2
Ntp265
Rp266
(lp267
g0
(g26
g2
Ntp268
Rp269
(lp270
I0
ag0
(g30
g2
Ntp271
Rp272
(lp273
I0
aI0
abag94
abag0
(g35
g2
Ntp274
Rp275
(lp276
g0
(g39
g2
Ntp277
Rp278
(lp279
F0.48522597525926614
aF0.2760220039769015
aF0.06658220792782904
abag0
(g43
g2
Ntp280
Rp281
(lp282
F-0.6684704132562753
aF0.6785119972421104
aF0.22596807729879947
aF0.20422341746575107
abababasg167
(lp283
F-1.0
asS'torque_threshold'
p284
(lp285
F10.0
assg169
(lp286
g147
ag262
ag284
asg171
cpanda_pbd.msg._MoveToContactGoal
MoveToContactGoal
p287
sg173
(dp288
g262
(lp289
F5.0
aF20.0
asg145
(lp290
F0.01
aF0.25
assg176
(lp291
g0
(g287
g2
Ntp292
Rp293
(lp294
g0
(g22
g2
Ntp295
Rp296
(lp297
g0
(g26
g2
Ntp298
Rp299
(lp300
I0
ag0
(g30
g2
Ntp301
Rp302
(lp303
I0
aI0
abag94
abag0
(g35
g2
Ntp304
Rp305
(lp306
g0
(g39
g2
Ntp307
Rp308
(lp309
F0.48522597525926614
aF0.2760220039769015
aF0.06658220792782904
abag0
(g43
g2
Ntp310
Rp311
(lp312
F-0.6684704132562753
aF0.6785119972421104
aF0.22596807729879947
aF0.20422341746575107
abababaF0.07
aF-1.0
aF10.0
aF10.0
abasg199
I0
sg200
I01
sg201
g0
(g287
g2
Ntp313
Rp314
(lp315
g86
aF0.07
aF-1.0
aF10.0
aF10.0
absbag0
(g10
g2
Ntp316
Rp317
(dp318
g136
g139
sg140
I3
sg141
g142
sg143
(dp319
g145
(lp320
F0.07
asg147
(lp321
g0
(g22
g2
Ntp322
Rp323
(lp324
g0
(g26
g2
Ntp325
Rp326
(lp327
I0
ag0
(g30
g2
Ntp328
Rp329
(lp330
I0
aI0
abag113
abag0
(g35
g2
Ntp331
Rp332
(lp333
g0
(g39
g2
Ntp334
Rp335
(lp336
F0.45994461169103945
aF-0.053965652564801334
aF0.3414368641542338
abag0
(g43
g2
Ntp337
Rp338
(lp339
F0.9989220383304196
aF-0.03026478824798525
aF0.02526619563073721
aF-0.02450353624384985
abababasg167
(lp340
F-1.0
assg169
(lp341
g147
asg171
g172
sg173
g174
sg176
(lp342
g0
(g172
g2
Ntp343
Rp344
(lp345
g0
(g22
g2
Ntp346
Rp347
(lp348
g0
(g26
g2
Ntp349
Rp350
(lp351
I0
ag0
(g30
g2
Ntp352
Rp353
(lp354
I0
aI0
abag113
abag0
(g35
g2
Ntp355
Rp356
(lp357
g0
(g39
g2
Ntp358
Rp359
(lp360
F0.45994461169103945
aF-0.053965652564801334
aF0.3414368641542338
abag0
(g43
g2
Ntp361
Rp362
(lp363
F0.9989220383304196
aF-0.03026478824798525
aF0.02526619563073721
aF-0.02450353624384985
abababaF0.07
aF-1.0
abasg199
I0
sg200
I01
sg201
g0
(g172
g2
Ntp364
Rp365
(lp366
g105
aF0.07
aF-1.0
absbasg141
S'Empty Description'
p367
sb.