ccopy_reg
_reconstructor
p0
(cpanda_eup.panda_primitive
PandaProgram
p1
c__builtin__
object
p2
Ntp3
Rp4
(dp5
S'effect_of_primitive'
p6
(dp7
cpanda_eup.panda_primitive
ApplyForceFingers
p8
(lp9
I00
aI01
ascpanda_eup.panda_primitive
UserSync
p10
(lp11
I00
aI00
ascpanda_eup.panda_primitive
MoveFingers
p12
(lp13
I00
aI01
ascpanda_eup.panda_primitive
MoveToEE
p14
(lp15
I01
aI00
ascpanda_eup.panda_primitive
MoveToContact
p16
(lp17
I01
aI00
assS'name'
p18
S'A Panda Program'
p19
sS'arm_state_list'
p20
(lp21
g0
(cgeometry_msgs.msg._PoseStamped
PoseStamped
p22
g2
Ntp23
Rp24
(lp25
g0
(cstd_msgs.msg._Header
Header
p26
g2
Ntp27
Rp28
(lp29
I0
ag0
(cgenpy.rostime
Time
p30
g2
Ntp31
Rp32
(lp33
I0
aI0
abaS'panda_link0'
p34
abag0
(cgeometry_msgs.msg._Pose
Pose
p35
g2
Ntp36
Rp37
(lp38
g0
(cgeometry_msgs.msg._Point
Point
p39
g2
Ntp40
Rp41
(lp42
F0.5045138365062377
aF-0.265431521081101
aF0.4086585275481172
abag0
(cgeometry_msgs.msg._Quaternion
Quaternion
p43
g2
Ntp44
Rp45
(lp46
F0.9995540503376575
aF-0.02962858766662235
aF0.00040849401323953287
aF-0.003698699650716961
abababag0
(g22
g2
Ntp47
Rp48
(lp49
g0
(g26
g2
Ntp50
Rp51
(lp52
I0
ag0
(g30
g2
Ntp53
Rp54
(lp55
I0
aI0
abaS'panda_link0'
p56
abag0
(g35
g2
Ntp57
Rp58
(lp59
g0
(g39
g2
Ntp60
Rp61
(lp62
F0.5294752097753854
aF-0.23891993409430162
aF0.02570893459679896
abag0
(g43
g2
Ntp63
Rp64
(lp65
F-0.704688659619377
aF0.7085322142558269
aF-0.0335033762754408
aF-0.016538383951495636
abababag0
(g22
g2
Ntp66
Rp67
(lp68
g0
(g26
g2
Ntp69
Rp70
(lp71
I0
ag0
(g30
g2
Ntp72
Rp73
(lp74
I0
aI0
abaS'panda_link0'
p75
abag0
(g35
g2
Ntp76
Rp77
(lp78
g0
(g39
g2
Ntp79
Rp80
(lp81
F0.512283028132677
aF0.1492318253473133
aF0.035534203431970335
abag0
(g43
g2
Ntp82
Rp83
(lp84
F-0.7054319914467646
aF0.7087651220338805
aF0.0038737904474442854
aF-0.0016434656430182005
abababag0
(g22
g2
Ntp85
Rp86
(lp87
g0
(g26
g2
Ntp88
Rp89
(lp90
I0
ag0
(g30
g2
Ntp91
Rp92
(lp93
I0
aI0
abaS'panda_link0'
p94
abag0
(g35
g2
Ntp95
Rp96
(lp97
g0
(g39
g2
Ntp98
Rp99
(lp100
F0.4340239876172547
aF-0.018694378705386674
aF0.36310452212031397
abag0
(g43
g2
Ntp101
Rp102
(lp103
F0.9996651157292086
aF-0.021109210280240997
aF-0.014510167637759988
aF-0.003675958456885042
abababasS'gripper_state_list'
p104
(lp105
g0
(cpanda_eup.panda_primitive
GripperState
p106
g2
Ntp107
Rp108
(dp109
S'width'
p110
F0.08
sS'force'
p111
F0.0
sbasS'primitives'
p112
(lp113
g0
(g14
g2
Ntp114
Rp115
(dp116
S'status'
p117
cpanda_eup.panda_primitive
PandaPrimitiveStatus
p118
(I0
tp119
Rp120
sS'starting_arm_state_index'
p121
I0
sS'description'
p122
S'A Move to End-Effector primitive'
p123
sS'parameters_update_history'
p124
(dp125
S'position_speed'
p126
(lp127
F0.07
asS'pose'
p128
(lp129
g0
(g22
g2
Ntp130
Rp131
(lp132
g0
(g26
g2
Ntp133
Rp134
(lp135
I0
ag0
(g30
g2
Ntp136
Rp137
(lp138
I0
aI0
abag56
abag0
(g35
g2
Ntp139
Rp140
(lp141
g0
(g39
g2
Ntp142
Rp143
(lp144
F0.5294752097753854
aF-0.23891993409430162
aF0.02570893459679896
abag0
(g43
g2
Ntp145
Rp146
(lp147
F-0.704688659619377
aF0.7085322142558269
aF-0.0335033762754408
aF-0.016538383951495636
abababasS'rotation_speed'
p148
(lp149
F-1.0
assS'parameters_with_effects_on_robot_state'
p150
(lp151
g128
asS'expected_container'
p152
cpanda_pbd.msg._MoveToEEGoal
MoveToEEGoal
p153
sS'gui_tunable_parameter_strict_ranges'
p154
(dp155
g126
(lp156
F0.01
aF0.25
assS'container_update_history'
p157
(lp158
g0
(g153
g2
Ntp159
Rp160
(lp161
g0
(g22
g2
Ntp162
Rp163
(lp164
g0
(g26
g2
Ntp165
Rp166
(lp167
I0
ag0
(g30
g2
Ntp168
Rp169
(lp170
I0
aI0
abag56
abag0
(g35
g2
Ntp171
Rp172
(lp173
g0
(g39
g2
Ntp174
Rp175
(lp176
F0.5294752097753854
aF-0.23891993409430162
aF0.02570893459679896
abag0
(g43
g2
Ntp177
Rp178
(lp179
F-0.704688659619377
aF0.7085322142558269
aF-0.0335033762754408
aF-0.016538383951495636
abababaF0.07
aF-1.0
abasS'starting_gripper_state_index'
p180
I0
sS'revertible'
p181
I01
sS'parameter_container'
p182
g0
(g153
g2
Ntp183
Rp184
(lp185
g48
aF0.07
aF-1.0
absbag0
(g16
g2
Ntp186
Rp187
(dp188
g117
g120
sg121
I1
sg122
S'A Move to Contact primitive'
p189
sg124
(dp190
g126
(lp191
F0.07
asS'force_threshold'
p192
(lp193
F10.0
asg128
(lp194
g0
(g22
g2
Ntp195
Rp196
(lp197
g0
(g26
g2
Ntp198
Rp199
(lp200
I0
ag0
(g30
g2
Ntp201
Rp202
(lp203
I0
aI0
abag75
abag0
(g35
g2
Ntp204
Rp205
(lp206
g0
(g39
g2
Ntp207
Rp208
(lp209
F0.512283028132677
aF0.1492318253473133
aF0.035534203431970335
abag0
(g43
g2
Ntp210
Rp211
(lp212
F-0.7054319914467646
aF0.7087651220338805
aF0.0038737904474442854
aF-0.0016434656430182005
abababasg148
(lp213
F-1.0
asS'torque_threshold'
p214
(lp215
F10.0
assg150
(lp216
g128
ag192
ag214
asg152
cpanda_pbd.msg._MoveToContactGoal
MoveToContactGoal
p217
sg154
(dp218
g192
(lp219
F5.0
aF20.0
asg126
(lp220
F0.01
aF0.25
assg157
(lp221
g0
(g217
g2
Ntp222
Rp223
(lp224
g0
(g22
g2
Ntp225
Rp226
(lp227
g0
(g26
g2
Ntp228
Rp229
(lp230
I0
ag0
(g30
g2
Ntp231
Rp232
(lp233
I0
aI0
abag75
abag0
(g35
g2
Ntp234
Rp235
(lp236
g0
(g39
g2
Ntp237
Rp238
(lp239
F0.512283028132677
aF0.1492318253473133
aF0.035534203431970335
abag0
(g43
g2
Ntp240
Rp241
(lp242
F-0.7054319914467646
aF0.7087651220338805
aF0.0038737904474442854
aF-0.0016434656430182005
abababaF0.07
aF-1.0
aF10.0
aF10.0
abasg180
I0
sg181
I01
sg182
g0
(g217
g2
Ntp243
Rp244
(lp245
g67
aF0.07
aF-1.0
aF10.0
aF10.0
absbag0
(g14
g2
Ntp246
Rp247
(dp248
g117
g120
sg121
I2
sg122
g123
sg124
(dp249
g126
(lp250
F0.07
asg128
(lp251
g0
(g22
g2
Ntp252
Rp253
(lp254
g0
(g26
g2
Ntp255
Rp256
(lp257
I0
ag0
(g30
g2
Ntp258
Rp259
(lp260
I0
aI0
abag94
abag0
(g35
g2
Ntp261
Rp262
(lp263
g0
(g39
g2
Ntp264
Rp265
(lp266
F0.4340239876172547
aF-0.018694378705386674
aF0.36310452212031397
abag0
(g43
g2
Ntp267
Rp268
(lp269
F0.9996651157292086
aF-0.021109210280240997
aF-0.014510167637759988
aF-0.003675958456885042
abababasg148
(lp270
F-1.0
assg150
(lp271
g128
asg152
g153
sg154
g155
sg157
(lp272
g0
(g153
g2
Ntp273
Rp274
(lp275
g0
(g22
g2
Ntp276
Rp277
(lp278
g0
(g26
g2
Ntp279
Rp280
(lp281
I0
ag0
(g30
g2
Ntp282
Rp283
(lp284
I0
aI0
abag94
abag0
(g35
g2
Ntp285
Rp286
(lp287
g0
(g39
g2
Ntp288
Rp289
(lp290
F0.4340239876172547
aF-0.018694378705386674
aF0.36310452212031397
abag0
(g43
g2
Ntp291
Rp292
(lp293
F0.9996651157292086
aF-0.021109210280240997
aF-0.014510167637759988
aF-0.003675958456885042
abababaF0.07
aF-1.0
abasg180
I0
sg181
I01
sg182
g0
(g153
g2
Ntp294
Rp295
(lp296
g86
aF0.07
aF-1.0
absbasg122
S'Empty Description'
p297
sb.