(dp0
S'program'
p1
ccopy_reg
_reconstructor
p2
(cpanda_eup.panda_primitive
PandaProgram
p3
c__builtin__
object
p4
Ntp5
Rp6
(dp7
S'effect_of_primitive'
p8
(dp9
cpanda_eup.panda_primitive
MoveFingers
p10
(lp11
I00
aI01
ascpanda_eup.panda_primitive
UserSync
p12
(lp13
I00
aI00
ascpanda_eup.panda_primitive
ApplyForceFingers
p14
(lp15
I00
aI01
ascpanda_eup.panda_primitive
MoveToContact
p16
(lp17
I01
aI00
ascpanda_eup.panda_primitive
MoveToEE
p18
(lp19
I01
aI00
assS'description'
p20
S'Empty Description'
p21
sS'arm_state_list'
p22
(lp23
g2
(cgeometry_msgs.msg._PoseStamped
PoseStamped
p24
g4
Ntp25
Rp26
(lp27
g2
(cstd_msgs.msg._Header
Header
p28
g4
Ntp29
Rp30
(lp31
I0
ag2
(cgenpy.rostime
Time
p32
g4
Ntp33
Rp34
(lp35
I0
aI0
abaS'panda_link0'
p36
abag2
(cgeometry_msgs.msg._Pose
Pose
p37
g4
Ntp38
Rp39
(lp40
g2
(cgeometry_msgs.msg._Point
Point
p41
g4
Ntp42
Rp43
(lp44
F0.4833974233623748
aF0.007318751177980708
aF0.3904495689279949
abag2
(cgeometry_msgs.msg._Quaternion
Quaternion
p45
g4
Ntp46
Rp47
(lp48
F0.9993500431690824
aF-0.014042189921340717
aF-0.02007113406023331
aF-0.026447262574839425
abababag2
(g24
g4
Ntp49
Rp50
(lp51
g2
(g28
g4
Ntp52
Rp53
(lp54
I0
ag2
(g32
g4
Ntp55
Rp56
(lp57
I0
aI0
abaS'panda_link0'
p58
abag2
(g37
g4
Ntp59
Rp60
(lp61
g2
(g41
g4
Ntp62
Rp63
(lp64
F0.5029045256096215
aF0.0035016114744461733
aF0.024321733835541537
abag2
(g45
g4
Ntp65
Rp66
(lp67
F0.9993371333548714
aF-0.03344614714572263
aF0.004015775570669214
aF-0.013802995535050093
abababag2
(g24
g4
Ntp68
Rp69
(lp70
g2
(g28
g4
Ntp71
Rp72
(lp73
I0
ag2
(g32
g4
Ntp74
Rp75
(lp76
I0
aI0
abaS'panda_link0'
p77
abag2
(g37
g4
Ntp78
Rp79
(lp80
g2
(g41
g4
Ntp81
Rp82
(lp83
F0.6404225030201885
aF-0.21899515188976365
aF0.31947401035356376
abag2
(g45
g4
Ntp84
Rp85
(lp86
F0.8476936441278499
aF-0.15503337362532482
aF0.5028616917286283
aF0.06715845262823286
abababag2
(g24
g4
Ntp87
Rp88
(lp89
g2
(g28
g4
Ntp90
Rp91
(lp92
I0
ag2
(g32
g4
Ntp93
Rp94
(lp95
I0
aI0
abaS'panda_link0'
p96
abag2
(g37
g4
Ntp97
Rp98
(lp99
g2
(g41
g4
Ntp100
Rp101
(lp102
F0.48697273191184176
aF-0.0003249795766055996
aF0.3672047165651558
abag2
(g45
g4
Ntp103
Rp104
(lp105
F0.9986485219265587
aF-0.028677903984510297
aF0.042164274523526495
aF-0.010043974853580964
abababasS'gripper_state_list'
p106
(lp107
g2
(cpanda_eup.panda_primitive
GripperState
p108
g4
Ntp109
Rp110
(dp111
S'width'
p112
F0.08
sS'force'
p113
F0.0
sbag2
(g108
g4
Ntp114
Rp115
(dp116
g112
F0.032747309654951096
sg113
F39.2
sbag2
(g108
g4
Ntp117
Rp118
(dp119
g112
F0.057026248425245285
sg113
F0.0
sbasS'primitives'
p120
(lp121
g2
(g16
g4
Ntp122
Rp123
(dp124
S'status'
p125
cpanda_eup.panda_primitive
PandaPrimitiveStatus
p126
(I1
tp127
Rp128
sS'revertible'
p129
I01
sg20
S'A Move to Contact primitive'
p130
sS'parameters_range_history'
p131
(dp132
S'force_threshold'
p133
(lp134
(lp135
F8.0
aF11.899999999999999
aasS'position_speed'
p136
(lp137
(lp138
F0.057999999999999996
aF0.11559999999999998
aassS'starting_arm_state_index'
p139
I0
sS'parameters_with_effects_on_robot_state'
p140
(lp141
S'pose'
p142
aS'force_threshold'
p143
aS'torque_threshold'
p144
asS'expected_container'
p145
cpanda_pbd.msg._MoveToContactGoal
MoveToContactGoal
p146
sS'gui_tunable_parameter_strict_ranges'
p147
(dp148
g133
(lp149
F5.0
aF20.0
asg136
(lp150
F0.01
aF0.25
assS'container_update_history'
p151
(lp152
g2
(g146
g4
Ntp153
Rp154
(lp155
g2
(g24
g4
Ntp156
Rp157
(lp158
g2
(g28
g4
Ntp159
Rp160
(lp161
I0
ag2
(g32
g4
Ntp162
Rp163
(lp164
I0
aI0
abaS'panda_link0'
p165
abag2
(g37
g4
Ntp166
Rp167
(lp168
g2
(g41
g4
Ntp169
Rp170
(lp171
F0.5069132714754178
aF0.004873624607929537
aF0.027077189596690976
abag2
(g45
g4
Ntp172
Rp173
(lp174
F0.9995143312059889
aF-0.02583181235790082
aF0.016166211683465017
aF-0.006517114695673689
abababaF0.22220191897135136
aF-1.0
aF13.20046744873081
aF10.0
abag2
(g146
g4
Ntp175
Rp176
(lp177
g2
(g24
g4
Ntp178
Rp179
(lp180
g2
(g28
g4
Ntp181
Rp182
(lp183
I0
ag2
(g32
g4
Ntp184
Rp185
(lp186
I0
aI0
abag165
abag2
(g37
g4
Ntp187
Rp188
(lp189
g2
(g41
g4
Ntp190
Rp191
(lp192
F0.5069132714754178
aF0.004873624607929537
aF0.027077189596690976
abag2
(g45
g4
Ntp193
Rp194
(lp195
F0.9995143312059889
aF-0.02583181235790082
aF0.016166211683465017
aF-0.006517114695673689
abababaF0.22220191897135136
aF-1.0
aF13.1
aF10.0
abag2
(g146
g4
Ntp196
Rp197
(lp198
g2
(g24
g4
Ntp199
Rp200
(lp201
g2
(g28
g4
Ntp202
Rp203
(lp204
I0
ag2
(g32
g4
Ntp205
Rp206
(lp207
I0
aI0
abag165
abag2
(g37
g4
Ntp208
Rp209
(lp210
g2
(g41
g4
Ntp211
Rp212
(lp213
F0.5069132714754178
aF0.004873624607929537
aF0.027077189596690976
abag2
(g45
g4
Ntp214
Rp215
(lp216
F0.9995143312059889
aF-0.02583181235790082
aF0.016166211683465017
aF-0.006517114695673689
abababaF0.08679999999999999
aF-1.0
aF13.1
aF10.0
abag2
(g146
g4
Ntp217
Rp218
(lp219
g2
(g24
g4
Ntp220
Rp221
(lp222
g2
(g28
g4
Ntp223
Rp224
(lp225
I0
ag2
(g32
g4
Ntp226
Rp227
(lp228
I0
aI0
abag165
abag2
(g37
g4
Ntp229
Rp230
(lp231
g2
(g41
g4
Ntp232
Rp233
(lp234
F0.5069132714754178
aF0.004873624607929537
aF0.027077189596690976
abag2
(g45
g4
Ntp235
Rp236
(lp237
F0.9995143312059889
aF-0.02583181235790082
aF0.016166211683465017
aF-0.006517114695673689
abababaF0.08679999999999999
aF-1.0
aF9.8
aF10.0
abasS'starting_gripper_state_index'
p238
I0
sS'parameters_update_history'
p239
(dp240
g136
(lp241
F0.22220191897135136
aF0.08679999999999999
asg133
(lp242
F13.20046744873081
aF13.1
aF9.8
asS'pose'
p243
(lp244
g2
(g24
g4
Ntp245
Rp246
(lp247
g2
(g28
g4
Ntp248
Rp249
(lp250
I0
ag2
(g32
g4
Ntp251
Rp252
(lp253
I0
aI0
abag165
abag2
(g37
g4
Ntp254
Rp255
(lp256
g2
(g41
g4
Ntp257
Rp258
(lp259
F0.5069132714754178
aF0.004873624607929537
aF0.027077189596690976
abag2
(g45
g4
Ntp260
Rp261
(lp262
F0.9995143312059889
aF-0.02583181235790082
aF0.016166211683465017
aF-0.006517114695673689
abababasS'rotation_speed'
p263
(lp264
F-1.0
asS'torque_threshold'
p265
(lp266
F10.0
assS'parameter_container'
p267
g2
(g146
g4
Ntp268
Rp269
(lp270
g2
(g24
g4
Ntp271
Rp272
(lp273
g2
(g28
g4
Ntp274
Rp275
(lp276
I0
ag2
(g32
g4
Ntp277
Rp278
(lp279
I0
aI0
abag165
abag2
(g37
g4
Ntp280
Rp281
(lp282
g2
(g41
g4
Ntp283
Rp284
(lp285
F0.5069132714754178
aF0.004873624607929537
aF0.027077189596690976
abag2
(g45
g4
Ntp286
Rp287
(lp288
F0.9995143312059889
aF-0.02583181235790082
aF0.016166211683465017
aF-0.006517114695673689
abababaF0.08679999999999999
aF-1.0
aF9.8
aF10.0
absbag2
(g14
g4
Ntp289
Rp290
(dp291
g125
g128
sg129
I01
sg20
S'A Apply Force (with) Fingers primitive'
p292
sg131
(dp293
g113
(lp294
(lp295
F35.2
aF42.400000000000006
aassg139
I1
sg140
(lp296
S'force'
p297
asg145
cpanda_pbd.srv._ApplyForceFingers
ApplyForceFingersRequest
p298
sg147
(dp299
g113
(lp300
F20.0
aF60.0
assg151
(lp301
g2
(g298
g4
Ntp302
Rp303
(lp304
F57.016787310811516
abag2
(g298
g4
Ntp305
Rp306
(lp307
F39.2
abasg238
I0
sg239
(dp308
g113
(lp309
F57.016787310811516
aF39.2
assg267
g2
(g298
g4
Ntp310
Rp311
(lp312
F39.2
absbag2
(g18
g4
Ntp313
Rp314
(dp315
g125
g128
sg129
I01
sg20
S'A Move to End-Effector primitive'
p316
sg131
(dp317
g136
(lp318
(lp319
F0.09159999999999999
aF0.1596
aa(lp320
F0.09159999999999999
aF0.1528
aassg139
I1
sg140
(lp321
g142
asg145
cpanda_pbd.msg._MoveToEEGoal
MoveToEEGoal
p322
sg147
(dp323
g136
(lp324
F0.01
aF0.35
assg151
(lp325
g2
(g322
g4
Ntp326
Rp327
(lp328
g2
(g24
g4
Ntp329
Rp330
(lp331
g2
(g28
g4
Ntp332
Rp333
(lp334
I0
ag2
(g32
g4
Ntp335
Rp336
(lp337
I0
aI0
abag77
abag2
(g37
g4
Ntp338
Rp339
(lp340
g2
(g41
g4
Ntp341
Rp342
(lp343
F0.6404225030201885
aF-0.21899515188976365
aF0.31947401035356376
abag2
(g45
g4
Ntp344
Rp345
(lp346
F0.8476936441278499
aF-0.15503337362532482
aF0.5028616917286283
aF0.06715845262823286
abababaF0.07199612356292685
aF-1.0
abag2
(g322
g4
Ntp347
Rp348
(lp349
g2
(g24
g4
Ntp350
Rp351
(lp352
g2
(g28
g4
Ntp353
Rp354
(lp355
I0
ag2
(g32
g4
Ntp356
Rp357
(lp358
I0
aI0
abag77
abag2
(g37
g4
Ntp359
Rp360
(lp361
g2
(g41
g4
Ntp362
Rp363
(lp364
F0.6404225030201885
aF-0.21899515188976365
aF0.31947401035356376
abag2
(g45
g4
Ntp365
Rp366
(lp367
F0.8476936441278499
aF-0.15503337362532482
aF0.5028616917286283
aF0.06715845262823286
abababaF0.11879999999999999
aF-1.0
abasg238
I1
sg239
(dp368
g136
(lp369
F0.07199612356292685
aF0.11879999999999999
asg243
(lp370
g2
(g24
g4
Ntp371
Rp372
(lp373
g2
(g28
g4
Ntp374
Rp375
(lp376
I0
ag2
(g32
g4
Ntp377
Rp378
(lp379
I0
aI0
abag77
abag2
(g37
g4
Ntp380
Rp381
(lp382
g2
(g41
g4
Ntp383
Rp384
(lp385
F0.6404225030201885
aF-0.21899515188976365
aF0.31947401035356376
abag2
(g45
g4
Ntp386
Rp387
(lp388
F0.8476936441278499
aF-0.15503337362532482
aF0.5028616917286283
aF0.06715845262823286
abababasg263
(lp389
F-1.0
assg267
g2
(g322
g4
Ntp390
Rp391
(lp392
g69
aF0.11879999999999999
aF-1.0
absbag2
(g12
g4
Ntp393
Rp394
(dp395
g125
g128
sg129
I01
sg20
S'A User Synchronization primitive'
p396
sg131
(dp397
g133
(lp398
(lp399
F9.5
aF15.0
aassg139
I2
sg140
(lp400
sg145
cpanda_pbd.msg._UserSyncGoal
UserSyncGoal
p401
sg147
(dp402
g133
(lp403
F5.0
aF30.0
assg151
(lp404
g2
(g401
g4
Ntp405
Rp406
(lp407
F29.632989419503424
abag2
(g401
g4
Ntp408
Rp409
(lp410
F15.5
abag2
(g401
g4
Ntp411
Rp412
(lp413
F12.5
abasg238
I1
sg239
(dp414
g133
(lp415
F29.632989419503424
aF15.5
aF12.5
assg267
g2
(g401
g4
Ntp416
Rp417
(lp418
F12.5
absbag2
(g10
g4
Ntp419
Rp420
(dp421
g125
g128
sg129
I01
sg20
S'A Move Fingers primitive'
p422
sg131
(dp423
g112
(lp424
(lp425
F0.04758337885141373
aF0.0704
aa(lp426
F0.04758337885141373
aF0.06720000000000001
aassg139
I2
sg140
(lp427
S'width'
p428
asg145
cpanda_pbd.srv._MoveFingers
MoveFingersRequest
p429
sg147
(dp430
g428
(lp431
F0.04758337885141373
aF0.08
assg151
(lp432
g2
(g429
g4
Ntp433
Rp434
(lp435
F0.061761207106792865
abag2
(g429
g4
Ntp436
Rp437
(lp438
F0.0592
abag2
(g429
g4
Ntp439
Rp440
(lp441
F0.057600000000000005
abasg238
I1
sg239
(dp442
g112
(lp443
F0.061761207106792865
aF0.0592
aF0.057600000000000005
assg267
g2
(g429
g4
Ntp444
Rp445
(lp446
F0.057600000000000005
absbag2
(g18
g4
Ntp447
Rp448
(dp449
g125
g126
(I5
tp450
Rp451
sg129
I01
sg20
g316
sg131
(dp452
g136
(lp453
(lp454
F0.09159999999999999
aF0.1596
aassg139
I2
sg140
(lp455
g142
asg145
g322
sg147
g323
sg151
(lp456
g2
(g322
g4
Ntp457
Rp458
(lp459
g2
(g24
g4
Ntp460
Rp461
(lp462
g2
(g28
g4
Ntp463
Rp464
(lp465
I0
ag2
(g32
g4
Ntp466
Rp467
(lp468
I0
aI0
abag96
abag2
(g37
g4
Ntp469
Rp470
(lp471
g2
(g41
g4
Ntp472
Rp473
(lp474
F0.48697273191184176
aF-0.0003249795766055996
aF0.3672047165651558
abag2
(g45
g4
Ntp475
Rp476
(lp477
F0.9986485219265587
aF-0.028677903984510297
aF0.042164274523526495
aF-0.010043974853580964
abababaF0.09844957096649812
aF-1.0
abag2
(g322
g4
Ntp478
Rp479
(lp480
g2
(g24
g4
Ntp481
Rp482
(lp483
g2
(g28
g4
Ntp484
Rp485
(lp486
I0
ag2
(g32
g4
Ntp487
Rp488
(lp489
I0
aI0
abag96
abag2
(g37
g4
Ntp490
Rp491
(lp492
g2
(g41
g4
Ntp493
Rp494
(lp495
F0.48697273191184176
aF-0.0003249795766055996
aF0.3672047165651558
abag2
(g45
g4
Ntp496
Rp497
(lp498
F0.9986485219265587
aF-0.028677903984510297
aF0.042164274523526495
aF-0.010043974853580964
abababaF0.1256
aF-1.0
abasg238
I2
sg239
(dp499
g136
(lp500
F0.09844957096649812
aF0.1256
asg243
(lp501
g2
(g24
g4
Ntp502
Rp503
(lp504
g2
(g28
g4
Ntp505
Rp506
(lp507
I0
ag2
(g32
g4
Ntp508
Rp509
(lp510
I0
aI0
abag96
abag2
(g37
g4
Ntp511
Rp512
(lp513
g2
(g41
g4
Ntp514
Rp515
(lp516
F0.48697273191184176
aF-0.0003249795766055996
aF0.3672047165651558
abag2
(g45
g4
Ntp517
Rp518
(lp519
F0.9986485219265587
aF-0.028677903984510297
aF0.042164274523526495
aF-0.010043974853580964
abababasg263
(lp520
F-1.0
assg267
g2
(g322
g4
Ntp521
Rp522
(lp523
g88
aF0.1256
aF-1.0
absbasS'name'
p524
S'A Panda Program'
p525
sbsS'wallclock_time'
p526
F294.825984954834
sS'execution_timeseries'
p527
(lp528
F1567750940.055688
aF1567750985.296059
aF1567751009.662239
aF1567751036.831661
aF1567751055.342451
aF1567751079.814192
aF1567751102.345575
aF1567751128.491309
aF1567751153.52726
aF1567751176.007345
asS'tuning_timeseries'
p529
(lp530
F1567750940.055684
aF1567750985.270843
aF1567751009.662231
aF1567751055.321014
aF1567751102.345565
aF1567751128.472006
aF1567751153.510652
aF1567751175.991633
aF1567751195.242235
as.