ccopy_reg
_reconstructor
p0
(cpanda_eup.panda_primitive
PandaProgram
p1
c__builtin__
object
p2
Ntp3
Rp4
(dp5
S'effect_of_primitive'
p6
(dp7
cpanda_eup.panda_primitive
UserSync
p8
(lp9
I00
aI00
ascpanda_eup.panda_primitive
MoveToEE
p10
(lp11
I01
aI00
ascpanda_eup.panda_primitive
MoveToContact
p12
(lp13
I01
aI00
ascpanda_eup.panda_primitive
MoveFingers
p14
(lp15
I00
aI01
ascpanda_eup.panda_primitive
ApplyForceFingers
p16
(lp17
I00
aI01
assS'description'
p18
S'Empty Description'
p19
sS'arm_state_list'
p20
(lp21
g0
(cgeometry_msgs.msg._PoseStamped
PoseStamped
p22
g2
Ntp23
Rp24
(lp25
g0
(cstd_msgs.msg._Header
Header
p26
g2
Ntp27
Rp28
(lp29
I0
ag0
(cgenpy.rostime
Time
p30
g2
Ntp31
Rp32
(lp33
I0
aI0
abaS'panda_link0'
p34
abag0
(cgeometry_msgs.msg._Pose
Pose
p35
g2
Ntp36
Rp37
(lp38
g0
(cgeometry_msgs.msg._Point
Point
p39
g2
Ntp40
Rp41
(lp42
F0.4085007637617008
aF-0.04743834298515986
aF0.41592672837953215
abag0
(cgeometry_msgs.msg._Quaternion
Quaternion
p43
g2
Ntp44
Rp45
(lp46
F0.999969677491424
aF0.006662980259596884
aF0.001583209543998861
aF0.0037070526429503078
abababag0
(g22
g2
Ntp47
Rp48
(lp49
g0
(g26
g2
Ntp50
Rp51
(lp52
I0
ag0
(g30
g2
Ntp53
Rp54
(lp55
I0
aI0
abaS'panda_link0'
p56
abag0
(g35
g2
Ntp57
Rp58
(lp59
g0
(g39
g2
Ntp60
Rp61
(lp62
F0.5555374971188675
aF-0.3665594011198935
aF0.2768798697008012
abag0
(g43
g2
Ntp63
Rp64
(lp65
F-0.5202366923331977
aF0.488836282074162
aF-0.4848922246640578
aF0.5052448948168257
abababag0
(g22
g2
Ntp66
Rp67
(lp68
g0
(g26
g2
Ntp69
Rp70
(lp71
I0
ag0
(g30
g2
Ntp72
Rp73
(lp74
I0
aI0
abaS'panda_link0'
p75
abag0
(g35
g2
Ntp76
Rp77
(lp78
g0
(g39
g2
Ntp79
Rp80
(lp81
F0.6925634165505562
aF-0.03161010303150283
aF0.1515468745803516
abag0
(g43
g2
Ntp82
Rp83
(lp84
F-0.5472531305577372
aF0.48193816034954157
aF-0.4457876407294544
aF0.5191560459693428
abababag0
(g22
g2
Ntp85
Rp86
(lp87
g0
(g26
g2
Ntp88
Rp89
(lp90
I0
ag0
(g30
g2
Ntp91
Rp92
(lp93
I0
aI0
abaS'panda_link0'
p94
abag0
(g35
g2
Ntp95
Rp96
(lp97
g0
(g39
g2
Ntp98
Rp99
(lp100
F0.581848720349036
aF0.37632116390939524
aF0.3458198812985057
abag0
(g43
g2
Ntp101
Rp102
(lp103
F-0.6558731655374604
aF0.2796442810897982
aF-0.2831432228500472
aF0.6414509974547778
abababag0
(g22
g2
Ntp104
Rp105
(lp106
g0
(g26
g2
Ntp107
Rp108
(lp109
I0
ag0
(g30
g2
Ntp110
Rp111
(lp112
I0
aI0
abaS'panda_link0'
p113
abag0
(g35
g2
Ntp114
Rp115
(lp116
g0
(g39
g2
Ntp117
Rp118
(lp119
F0.44612082019446336
aF-0.04256435300120127
aF0.408240721202241
abag0
(g43
g2
Ntp120
Rp121
(lp122
F0.9998713088044058
aF-0.010703239032880212
aF-0.0070168970835132564
aF-0.009673141128363653
abababasS'gripper_state_list'
p123
(lp124
g0
(cpanda_eup.panda_primitive
GripperState
p125
g2
Ntp126
Rp127
(dp128
S'width'
p129
F0.08
sS'force'
p130
F0.0
sbag0
(g125
g2
Ntp131
Rp132
(dp133
g129
F0.0021788200829178095
sg130
F20.0
sbag0
(g125
g2
Ntp134
Rp135
(dp136
g129
F0.04232610762119293
sg130
F0.0
sbasS'primitives'
p137
(lp138
g0
(g10
g2
Ntp139
Rp140
(dp141
S'status'
p142
cpanda_eup.panda_primitive
PandaPrimitiveStatus
p143
(I1
tp144
Rp145
sS'revertible'
p146
I01
sg18
S'A Move to End-Effector primitive'
p147
sS'starting_arm_state_index'
p148
I0
sS'parameters_with_effects_on_robot_state'
p149
(lp150
S'pose'
p151
asS'expected_container'
p152
cpanda_pbd.msg._MoveToEEGoal
MoveToEEGoal
p153
sS'gui_tunable_parameter_strict_ranges'
p154
(dp155
S'position_speed'
p156
(lp157
F0.01
aF0.35
assS'container_update_history'
p158
(lp159
g0
(g153
g2
Ntp160
Rp161
(lp162
g0
(g22
g2
Ntp163
Rp164
(lp165
g0
(g26
g2
Ntp166
Rp167
(lp168
I0
ag0
(g30
g2
Ntp169
Rp170
(lp171
I0
aI0
abag56
abag0
(g35
g2
Ntp172
Rp173
(lp174
g0
(g39
g2
Ntp175
Rp176
(lp177
F0.5555374971188675
aF-0.3665594011198935
aF0.2768798697008012
abag0
(g43
g2
Ntp178
Rp179
(lp180
F-0.5202366923331977
aF0.488836282074162
aF-0.4848922246640578
aF0.5052448948168257
abababaF0.07
aF-1.0
abag0
(g153
g2
Ntp181
Rp182
(lp183
g0
(g22
g2
Ntp184
Rp185
(lp186
g0
(g26
g2
Ntp187
Rp188
(lp189
I0
ag0
(g30
g2
Ntp190
Rp191
(lp192
I0
aI0
abag56
abag0
(g35
g2
Ntp193
Rp194
(lp195
g0
(g39
g2
Ntp196
Rp197
(lp198
F0.5555374971188675
aF-0.3665594011198935
aF0.2768798697008012
abag0
(g43
g2
Ntp199
Rp200
(lp201
F-0.5202366923331977
aF0.488836282074162
aF-0.4848922246640578
aF0.5052448948168257
abababaF0.21074761126868993
aF-1.0
abag0
(g153
g2
Ntp202
Rp203
(lp204
g0
(g22
g2
Ntp205
Rp206
(lp207
g0
(g26
g2
Ntp208
Rp209
(lp210
I0
ag0
(g30
g2
Ntp211
Rp212
(lp213
I0
aI0
abag56
abag0
(g35
g2
Ntp214
Rp215
(lp216
g0
(g39
g2
Ntp217
Rp218
(lp219
F0.5555374971188675
aF-0.3665594011198935
aF0.2768798697008012
abag0
(g43
g2
Ntp220
Rp221
(lp222
F-0.5202366923331977
aF0.488836282074162
aF-0.4848922246640578
aF0.5052448948168257
abababaF0.2956
aF-1.0
abasS'starting_gripper_state_index'
p223
I0
sS'parameters_update_history'
p224
(dp225
S'position_speed'
p226
F0.2956
sS'rotation_speed'
p227
(lp228
F-1.0
asg151
(lp229
g0
(g22
g2
Ntp230
Rp231
(lp232
g0
(g26
g2
Ntp233
Rp234
(lp235
I0
ag0
(g30
g2
Ntp236
Rp237
(lp238
I0
aI0
abag56
abag0
(g35
g2
Ntp239
Rp240
(lp241
g0
(g39
g2
Ntp242
Rp243
(lp244
F0.5555374971188675
aF-0.3665594011198935
aF0.2768798697008012
abag0
(g43
g2
Ntp245
Rp246
(lp247
F-0.5202366923331977
aF0.488836282074162
aF-0.4848922246640578
aF0.5052448948168257
abababassS'parameter_container'
p248
g0
(g153
g2
Ntp249
Rp250
(lp251
g48
aF0.2956
aF-1.0
absbag0
(g8
g2
Ntp252
Rp253
(dp254
g142
g145
sg146
I01
sg18
S'A User Synchronization primitive'
p255
sg148
I1
sg149
(lp256
sg152
cpanda_pbd.msg._UserSyncGoal
UserSyncGoal
p257
sg154
(dp258
S'force_threshold'
p259
(lp260
F5.0
aF30.0
assg158
(lp261
g0
(g257
g2
Ntp262
Rp263
(lp264
F10.0
abag0
(g257
g2
Ntp265
Rp266
(lp267
F14.828637685459773
abag0
(g257
g2
Ntp268
Rp269
(lp270
F5.0
abasg223
I0
sg224
(dp271
S'force_threshold'
p272
F5.0
ssg248
g0
(g257
g2
Ntp273
Rp274
(lp275
F5.0
absbag0
(g16
g2
Ntp276
Rp277
(dp278
g142
g145
sg146
I01
sg18
S'A Apply Force (with) Fingers primitive'
p279
sg148
I1
sg149
(lp280
S'force'
p281
asg152
cpanda_pbd.srv._ApplyForceFingers
ApplyForceFingersRequest
p282
sg154
(dp283
g130
(lp284
F20.0
aF60.0
assg158
(lp285
g0
(g282
g2
Ntp286
Rp287
(lp288
F20.0
abag0
(g282
g2
Ntp289
Rp290
(lp291
F32.82204099874014
abag0
(g282
g2
Ntp292
Rp293
(lp294
F20.0
abasg223
I0
sg224
(dp295
g281
F20.0
ssg248
g0
(g282
g2
Ntp296
Rp297
(lp298
F20.0
absbag0
(g10
g2
Ntp299
Rp300
(dp301
g142
g145
sg146
I01
sg18
g147
sg148
I1
sg149
(lp302
g151
asg152
g153
sg154
g155
sg158
(lp303
g0
(g153
g2
Ntp304
Rp305
(lp306
g0
(g22
g2
Ntp307
Rp308
(lp309
g0
(g26
g2
Ntp310
Rp311
(lp312
I0
ag0
(g30
g2
Ntp313
Rp314
(lp315
I0
aI0
abag75
abag0
(g35
g2
Ntp316
Rp317
(lp318
g0
(g39
g2
Ntp319
Rp320
(lp321
F0.6925634165505562
aF-0.03161010303150283
aF0.1515468745803516
abag0
(g43
g2
Ntp322
Rp323
(lp324
F-0.5472531305577372
aF0.48193816034954157
aF-0.4457876407294544
aF0.5191560459693428
abababaF0.07
aF-1.0
abag0
(g153
g2
Ntp325
Rp326
(lp327
g0
(g22
g2
Ntp328
Rp329
(lp330
g0
(g26
g2
Ntp331
Rp332
(lp333
I0
ag0
(g30
g2
Ntp334
Rp335
(lp336
I0
aI0
abag75
abag0
(g35
g2
Ntp337
Rp338
(lp339
g0
(g39
g2
Ntp340
Rp341
(lp342
F0.6925634165505562
aF-0.03161010303150283
aF0.1515468745803516
abag0
(g43
g2
Ntp343
Rp344
(lp345
F-0.5472531305577372
aF0.48193816034954157
aF-0.4457876407294544
aF0.5191560459693428
abababaF0.3243282315940034
aF-1.0
abag0
(g153
g2
Ntp346
Rp347
(lp348
g0
(g22
g2
Ntp349
Rp350
(lp351
g0
(g26
g2
Ntp352
Rp353
(lp354
I0
ag0
(g30
g2
Ntp355
Rp356
(lp357
I0
aI0
abag75
abag0
(g35
g2
Ntp358
Rp359
(lp360
g0
(g39
g2
Ntp361
Rp362
(lp363
F0.6925634165505562
aF-0.03161010303150283
aF0.1515468745803516
abag0
(g43
g2
Ntp364
Rp365
(lp366
F-0.5472531305577372
aF0.48193816034954157
aF-0.4457876407294544
aF0.5191560459693428
abababaF0.146
aF-1.0
abag0
(g153
g2
Ntp367
Rp368
(lp369
g0
(g22
g2
Ntp370
Rp371
(lp372
g0
(g26
g2
Ntp373
Rp374
(lp375
I0
ag0
(g30
g2
Ntp376
Rp377
(lp378
I0
aI0
abag75
abag0
(g35
g2
Ntp379
Rp380
(lp381
g0
(g39
g2
Ntp382
Rp383
(lp384
F0.6925634165505562
aF-0.03161010303150283
aF0.1515468745803516
abag0
(g43
g2
Ntp385
Rp386
(lp387
F-0.5472531305577372
aF0.48193816034954157
aF-0.4457876407294544
aF0.5191560459693428
abababaF0.09159999999999999
aF-1.0
abag0
(g153
g2
Ntp388
Rp389
(lp390
g0
(g22
g2
Ntp391
Rp392
(lp393
g0
(g26
g2
Ntp394
Rp395
(lp396
I0
ag0
(g30
g2
Ntp397
Rp398
(lp399
I0
aI0
abag75
abag0
(g35
g2
Ntp400
Rp401
(lp402
g0
(g39
g2
Ntp403
Rp404
(lp405
F0.6925634165505562
aF-0.03161010303150283
aF0.1515468745803516
abag0
(g43
g2
Ntp406
Rp407
(lp408
F-0.5472531305577372
aF0.48193816034954157
aF-0.4457876407294544
aF0.5191560459693428
abababaF0.1324
aF-1.0
abag0
(g153
g2
Ntp409
Rp410
(lp411
g0
(g22
g2
Ntp412
Rp413
(lp414
g0
(g26
g2
Ntp415
Rp416
(lp417
I0
ag0
(g30
g2
Ntp418
Rp419
(lp420
I0
aI0
abag75
abag0
(g35
g2
Ntp421
Rp422
(lp423
g0
(g39
g2
Ntp424
Rp425
(lp426
F0.6925634165505562
aF-0.03161010303150283
aF0.1515468745803516
abag0
(g43
g2
Ntp427
Rp428
(lp429
F-0.5472531305577372
aF0.48193816034954157
aF-0.4457876407294544
aF0.5191560459693428
abababaF0.18
aF-1.0
abag0
(g153
g2
Ntp430
Rp431
(lp432
g0
(g22
g2
Ntp433
Rp434
(lp435
g0
(g26
g2
Ntp436
Rp437
(lp438
I0
ag0
(g30
g2
Ntp439
Rp440
(lp441
I0
aI0
abag75
abag0
(g35
g2
Ntp442
Rp443
(lp444
g0
(g39
g2
Ntp445
Rp446
(lp447
F0.6925634165505562
aF-0.03161010303150283
aF0.1515468745803516
abag0
(g43
g2
Ntp448
Rp449
(lp450
F-0.5472531305577372
aF0.48193816034954157
aF-0.4457876407294544
aF0.5191560459693428
abababaF0.2004
aF-1.0
abag0
(g153
g2
Ntp451
Rp452
(lp453
g0
(g22
g2
Ntp454
Rp455
(lp456
g0
(g26
g2
Ntp457
Rp458
(lp459
I0
ag0
(g30
g2
Ntp460
Rp461
(lp462
I0
aI0
abag75
abag0
(g35
g2
Ntp463
Rp464
(lp465
g0
(g39
g2
Ntp466
Rp467
(lp468
F0.6925634165505562
aF-0.03161010303150283
aF0.1515468745803516
abag0
(g43
g2
Ntp469
Rp470
(lp471
F-0.5472531305577372
aF0.48193816034954157
aF-0.4457876407294544
aF0.5191560459693428
abababaF0.1868
aF-1.0
abasg223
I1
sg224
(dp472
g226
F0.1868
sg227
(lp473
F-1.0
asg151
(lp474
g0
(g22
g2
Ntp475
Rp476
(lp477
g0
(g26
g2
Ntp478
Rp479
(lp480
I0
ag0
(g30
g2
Ntp481
Rp482
(lp483
I0
aI0
abag75
abag0
(g35
g2
Ntp484
Rp485
(lp486
g0
(g39
g2
Ntp487
Rp488
(lp489
F0.6925634165505562
aF-0.03161010303150283
aF0.1515468745803516
abag0
(g43
g2
Ntp490
Rp491
(lp492
F-0.5472531305577372
aF0.48193816034954157
aF-0.4457876407294544
aF0.5191560459693428
abababassg248
g0
(g153
g2
Ntp493
Rp494
(lp495
g67
aF0.1868
aF-1.0
absbag0
(g10
g2
Ntp496
Rp497
(dp498
g142
g145
sg146
I01
sg18
g147
sg148
I2
sg149
(lp499
g151
asg152
g153
sg154
g155
sg158
(lp500
g0
(g153
g2
Ntp501
Rp502
(lp503
g0
(g22
g2
Ntp504
Rp505
(lp506
g0
(g26
g2
Ntp507
Rp508
(lp509
I0
ag0
(g30
g2
Ntp510
Rp511
(lp512
I0
aI0
abag94
abag0
(g35
g2
Ntp513
Rp514
(lp515
g0
(g39
g2
Ntp516
Rp517
(lp518
F0.581848720349036
aF0.37632116390939524
aF0.3458198812985057
abag0
(g43
g2
Ntp519
Rp520
(lp521
F-0.6558731655374604
aF0.2796442810897982
aF-0.2831432228500472
aF0.6414509974547778
abababaF0.07
aF-1.0
abag0
(g153
g2
Ntp522
Rp523
(lp524
g0
(g22
g2
Ntp525
Rp526
(lp527
g0
(g26
g2
Ntp528
Rp529
(lp530
I0
ag0
(g30
g2
Ntp531
Rp532
(lp533
I0
aI0
abag94
abag0
(g35
g2
Ntp534
Rp535
(lp536
g0
(g39
g2
Ntp537
Rp538
(lp539
F0.581848720349036
aF0.37632116390939524
aF0.3458198812985057
abag0
(g43
g2
Ntp540
Rp541
(lp542
F-0.6558731655374604
aF0.2796442810897982
aF-0.2831432228500472
aF0.6414509974547778
abababaF0.2863180167744335
aF-1.0
abag0
(g153
g2
Ntp543
Rp544
(lp545
g0
(g22
g2
Ntp546
Rp547
(lp548
g0
(g26
g2
Ntp549
Rp550
(lp551
I0
ag0
(g30
g2
Ntp552
Rp553
(lp554
I0
aI0
abag94
abag0
(g35
g2
Ntp555
Rp556
(lp557
g0
(g39
g2
Ntp558
Rp559
(lp560
F0.581848720349036
aF0.37632116390939524
aF0.3458198812985057
abag0
(g43
g2
Ntp561
Rp562
(lp563
F-0.6558731655374604
aF0.2796442810897982
aF-0.2831432228500472
aF0.6414509974547778
abababaF0.2004
aF-1.0
abag0
(g153
g2
Ntp564
Rp565
(lp566
g0
(g22
g2
Ntp567
Rp568
(lp569
g0
(g26
g2
Ntp570
Rp571
(lp572
I0
ag0
(g30
g2
Ntp573
Rp574
(lp575
I0
aI0
abag94
abag0
(g35
g2
Ntp576
Rp577
(lp578
g0
(g39
g2
Ntp579
Rp580
(lp581
F0.581848720349036
aF0.37632116390939524
aF0.3458198812985057
abag0
(g43
g2
Ntp582
Rp583
(lp584
F-0.6558731655374604
aF0.2796442810897982
aF-0.2831432228500472
aF0.6414509974547778
abababaF0.2072
aF-1.0
abag0
(g153
g2
Ntp585
Rp586
(lp587
g0
(g22
g2
Ntp588
Rp589
(lp590
g0
(g26
g2
Ntp591
Rp592
(lp593
I0
ag0
(g30
g2
Ntp594
Rp595
(lp596
I0
aI0
abag94
abag0
(g35
g2
Ntp597
Rp598
(lp599
g0
(g39
g2
Ntp600
Rp601
(lp602
F0.581848720349036
aF0.37632116390939524
aF0.3458198812985057
abag0
(g43
g2
Ntp603
Rp604
(lp605
F-0.6558731655374604
aF0.2796442810897982
aF-0.2831432228500472
aF0.6414509974547778
abababaF0.2276
aF-1.0
abag0
(g153
g2
Ntp606
Rp607
(lp608
g0
(g22
g2
Ntp609
Rp610
(lp611
g0
(g26
g2
Ntp612
Rp613
(lp614
I0
ag0
(g30
g2
Ntp615
Rp616
(lp617
I0
aI0
abag94
abag0
(g35
g2
Ntp618
Rp619
(lp620
g0
(g39
g2
Ntp621
Rp622
(lp623
F0.581848720349036
aF0.37632116390939524
aF0.3458198812985057
abag0
(g43
g2
Ntp624
Rp625
(lp626
F-0.6558731655374604
aF0.2796442810897982
aF-0.2831432228500472
aF0.6414509974547778
abababaF0.25479999999999997
aF-1.0
abag0
(g153
g2
Ntp627
Rp628
(lp629
g0
(g22
g2
Ntp630
Rp631
(lp632
g0
(g26
g2
Ntp633
Rp634
(lp635
I0
ag0
(g30
g2
Ntp636
Rp637
(lp638
I0
aI0
abag94
abag0
(g35
g2
Ntp639
Rp640
(lp641
g0
(g39
g2
Ntp642
Rp643
(lp644
F0.581848720349036
aF0.37632116390939524
aF0.3458198812985057
abag0
(g43
g2
Ntp645
Rp646
(lp647
F-0.6558731655374604
aF0.2796442810897982
aF-0.2831432228500472
aF0.6414509974547778
abababaF0.3024
aF-1.0
abag0
(g153
g2
Ntp648
Rp649
(lp650
g0
(g22
g2
Ntp651
Rp652
(lp653
g0
(g26
g2
Ntp654
Rp655
(lp656
I0
ag0
(g30
g2
Ntp657
Rp658
(lp659
I0
aI0
abag94
abag0
(g35
g2
Ntp660
Rp661
(lp662
g0
(g39
g2
Ntp663
Rp664
(lp665
F0.581848720349036
aF0.37632116390939524
aF0.3458198812985057
abag0
(g43
g2
Ntp666
Rp667
(lp668
F-0.6558731655374604
aF0.2796442810897982
aF-0.2831432228500472
aF0.6414509974547778
abababaF0.2752
aF-1.0
abasg223
I1
sg224
(dp669
g226
F0.2752
sg227
(lp670
F-1.0
asg151
(lp671
g0
(g22
g2
Ntp672
Rp673
(lp674
g0
(g26
g2
Ntp675
Rp676
(lp677
I0
ag0
(g30
g2
Ntp678
Rp679
(lp680
I0
aI0
abag94
abag0
(g35
g2
Ntp681
Rp682
(lp683
g0
(g39
g2
Ntp684
Rp685
(lp686
F0.581848720349036
aF0.37632116390939524
aF0.3458198812985057
abag0
(g43
g2
Ntp687
Rp688
(lp689
F-0.6558731655374604
aF0.2796442810897982
aF-0.2831432228500472
aF0.6414509974547778
abababassg248
g0
(g153
g2
Ntp690
Rp691
(lp692
g86
aF0.2752
aF-1.0
absbag0
(g8
g2
Ntp693
Rp694
(dp695
g142
g145
sg146
I01
sg18
g255
sg148
I3
sg149
(lp696
sg152
g257
sg154
g258
sg158
(lp697
g0
(g257
g2
Ntp698
Rp699
(lp700
F10.0
abag0
(g257
g2
Ntp701
Rp702
(lp703
F7.38459319303059
abag0
(g257
g2
Ntp704
Rp705
(lp706
F5.0
abasg223
I1
sg224
(dp707
g272
F5.0
ssg248
g0
(g257
g2
Ntp708
Rp709
(lp710
F5.0
absbag0
(g14
g2
Ntp711
Rp712
(dp713
g142
g145
sg146
I01
sg18
S'A Move Fingers primitive'
p714
sg148
I3
sg149
(lp715
S'width'
p716
asg152
cpanda_pbd.srv._MoveFingers
MoveFingersRequest
p717
sg154
(dp718
g716
(lp719
F0.04410567507147789
aF0.08
assg158
(lp720
g0
(g717
g2
Ntp721
Rp722
(lp723
F0.04410567507147789
abag0
(g717
g2
Ntp724
Rp725
(lp726
F0.05669896918475256
abag0
(g717
g2
Ntp727
Rp728
(lp729
F0.0432
abasg223
I1
sg224
(dp730
g716
F0.0432
ssg248
g0
(g717
g2
Ntp731
Rp732
(lp733
F0.0432
absbag0
(g10
g2
Ntp734
Rp735
(dp736
g142
g145
sg146
I01
sg18
g147
sg148
I3
sg149
(lp737
g151
asg152
g153
sg154
g155
sg158
(lp738
g0
(g153
g2
Ntp739
Rp740
(lp741
g0
(g22
g2
Ntp742
Rp743
(lp744
g0
(g26
g2
Ntp745
Rp746
(lp747
I0
ag0
(g30
g2
Ntp748
Rp749
(lp750
I0
aI0
abag113
abag0
(g35
g2
Ntp751
Rp752
(lp753
g0
(g39
g2
Ntp754
Rp755
(lp756
F0.44612082019446336
aF-0.04256435300120127
aF0.408240721202241
abag0
(g43
g2
Ntp757
Rp758
(lp759
F0.9998713088044058
aF-0.010703239032880212
aF-0.0070168970835132564
aF-0.009673141128363653
abababaF0.07
aF-1.0
abag0
(g153
g2
Ntp760
Rp761
(lp762
g0
(g22
g2
Ntp763
Rp764
(lp765
g0
(g26
g2
Ntp766
Rp767
(lp768
I0
ag0
(g30
g2
Ntp769
Rp770
(lp771
I0
aI0
abag113
abag0
(g35
g2
Ntp772
Rp773
(lp774
g0
(g39
g2
Ntp775
Rp776
(lp777
F0.44612082019446336
aF-0.04256435300120127
aF0.408240721202241
abag0
(g43
g2
Ntp778
Rp779
(lp780
F0.9998713088044058
aF-0.010703239032880212
aF-0.0070168970835132564
aF-0.009673141128363653
abababaF0.21725499742965415
aF-1.0
abag0
(g153
g2
Ntp781
Rp782
(lp783
g0
(g22
g2
Ntp784
Rp785
(lp786
g0
(g26
g2
Ntp787
Rp788
(lp789
I0
ag0
(g30
g2
Ntp790
Rp791
(lp792
I0
aI0
abag113
abag0
(g35
g2
Ntp793
Rp794
(lp795
g0
(g39
g2
Ntp796
Rp797
(lp798
F0.44612082019446336
aF-0.04256435300120127
aF0.408240721202241
abag0
(g43
g2
Ntp799
Rp800
(lp801
F0.9998713088044058
aF-0.010703239032880212
aF-0.0070168970835132564
aF-0.009673141128363653
abababaF0.2956
aF-1.0
abasg223
I2
sg224
(dp802
g226
F0.2956
sg227
(lp803
F-1.0
asg151
(lp804
g0
(g22
g2
Ntp805
Rp806
(lp807
g0
(g26
g2
Ntp808
Rp809
(lp810
I0
ag0
(g30
g2
Ntp811
Rp812
(lp813
I0
aI0
abag113
abag0
(g35
g2
Ntp814
Rp815
(lp816
g0
(g39
g2
Ntp817
Rp818
(lp819
F0.44612082019446336
aF-0.04256435300120127
aF0.408240721202241
abag0
(g43
g2
Ntp820
Rp821
(lp822
F0.9998713088044058
aF-0.010703239032880212
aF-0.0070168970835132564
aF-0.009673141128363653
abababassg248
g0
(g153
g2
Ntp823
Rp824
(lp825
g105
aF0.2956
aF-1.0
absbasS'name'
p826
S'A Panda Program'
p827
sb.