ccopy_reg
_reconstructor
p0
(cpanda_eup.panda_primitive
PandaProgram
p1
c__builtin__
object
p2
Ntp3
Rp4
(dp5
S'effect_of_primitive'
p6
(dp7
cpanda_eup.panda_primitive
UserSync
p8
(lp9
I00
aI00
ascpanda_eup.panda_primitive
MoveToEE
p10
(lp11
I01
aI00
ascpanda_eup.panda_primitive
MoveToContact
p12
(lp13
I01
aI00
ascpanda_eup.panda_primitive
ApplyForceFingers
p14
(lp15
I00
aI01
ascpanda_eup.panda_primitive
MoveFingers
p16
(lp17
I00
aI01
assS'description'
p18
S'Empty Description'
p19
sS'arm_state_list'
p20
(lp21
g0
(cgeometry_msgs.msg._PoseStamped
PoseStamped
p22
g2
Ntp23
Rp24
(lp25
g0
(cstd_msgs.msg._Header
Header
p26
g2
Ntp27
Rp28
(lp29
I0
ag0
(cgenpy.rostime
Time
p30
g2
Ntp31
Rp32
(lp33
I0
aI0
abaS'panda_link0'
p34
abag0
(cgeometry_msgs.msg._Pose
Pose
p35
g2
Ntp36
Rp37
(lp38
g0
(cgeometry_msgs.msg._Point
Point
p39
g2
Ntp40
Rp41
(lp42
F0.5045138365062377
aF-0.265431521081101
aF0.4086585275481172
abag0
(cgeometry_msgs.msg._Quaternion
Quaternion
p43
g2
Ntp44
Rp45
(lp46
F0.9995540503376575
aF-0.02962858766662235
aF0.00040849401323953287
aF-0.003698699650716961
abababag0
(g22
g2
Ntp47
Rp48
(lp49
g0
(g26
g2
Ntp50
Rp51
(lp52
I0
ag0
(g30
g2
Ntp53
Rp54
(lp55
I0
aI0
abaS'panda_link0'
p56
abag0
(g35
g2
Ntp57
Rp58
(lp59
g0
(g39
g2
Ntp60
Rp61
(lp62
F0.5294752097753854
aF-0.23891993409430162
aF0.02570893459679896
abag0
(g43
g2
Ntp63
Rp64
(lp65
F-0.704688659619377
aF0.7085322142558269
aF-0.0335033762754408
aF-0.016538383951495636
abababag0
(g22
g2
Ntp66
Rp67
(lp68
g0
(g26
g2
Ntp69
Rp70
(lp71
I0
ag0
(g30
g2
Ntp72
Rp73
(lp74
I0
aI0
abaS'panda_link0'
p75
abag0
(g35
g2
Ntp76
Rp77
(lp78
g0
(g39
g2
Ntp79
Rp80
(lp81
F0.512283028132677
aF0.1492318253473133
aF0.035534203431970335
abag0
(g43
g2
Ntp82
Rp83
(lp84
F-0.7054319914467646
aF0.7087651220338805
aF0.0038737904474442854
aF-0.0016434656430182005
abababag0
(g22
g2
Ntp85
Rp86
(lp87
g0
(g26
g2
Ntp88
Rp89
(lp90
I0
ag0
(g30
g2
Ntp91
Rp92
(lp93
I0
aI0
abaS'panda_link0'
p94
abag0
(g35
g2
Ntp95
Rp96
(lp97
g0
(g39
g2
Ntp98
Rp99
(lp100
F0.4340239876172547
aF-0.018694378705386674
aF0.36310452212031397
abag0
(g43
g2
Ntp101
Rp102
(lp103
F0.9996651157292086
aF-0.021109210280240997
aF-0.014510167637759988
aF-0.003675958456885042
abababasS'gripper_state_list'
p104
(lp105
g0
(cpanda_eup.panda_primitive
GripperState
p106
g2
Ntp107
Rp108
(dp109
S'width'
p110
F0.08
sS'force'
p111
F0.0
sbasS'primitives'
p112
(lp113
g0
(g10
g2
Ntp114
Rp115
(dp116
S'status'
p117
cpanda_eup.panda_primitive
PandaPrimitiveStatus
p118
(I1
tp119
Rp120
sS'revertible'
p121
I01
sg18
S'A Move to End-Effector primitive'
p122
sS'starting_arm_state_index'
p123
I0
sS'parameters_with_effects_on_robot_state'
p124
(lp125
S'pose'
p126
asS'expected_container'
p127
cpanda_pbd.msg._MoveToEEGoal
MoveToEEGoal
p128
sS'gui_tunable_parameter_strict_ranges'
p129
(dp130
S'position_speed'
p131
(lp132
F0.01
aF0.35
assS'container_update_history'
p133
(lp134
g0
(g128
g2
Ntp135
Rp136
(lp137
g0
(g22
g2
Ntp138
Rp139
(lp140
g0
(g26
g2
Ntp141
Rp142
(lp143
I0
ag0
(g30
g2
Ntp144
Rp145
(lp146
I0
aI0
abag56
abag0
(g35
g2
Ntp147
Rp148
(lp149
g0
(g39
g2
Ntp150
Rp151
(lp152
F0.5294752097753854
aF-0.23891993409430162
aF0.02570893459679896
abag0
(g43
g2
Ntp153
Rp154
(lp155
F-0.704688659619377
aF0.7085322142558269
aF-0.0335033762754408
aF-0.016538383951495636
abababaF0.07
aF-1.0
abag0
(g128
g2
Ntp156
Rp157
(lp158
g0
(g22
g2
Ntp159
Rp160
(lp161
g0
(g26
g2
Ntp162
Rp163
(lp164
I0
ag0
(g30
g2
Ntp165
Rp166
(lp167
I0
aI0
abag56
abag0
(g35
g2
Ntp168
Rp169
(lp170
g0
(g39
g2
Ntp171
Rp172
(lp173
F0.5294752097753854
aF-0.23891993409430162
aF0.02570893459679896
abag0
(g43
g2
Ntp174
Rp175
(lp176
F-0.704688659619377
aF0.7085322142558269
aF-0.0335033762754408
aF-0.016538383951495636
abababaF0.16433504015297618
aF-1.0
abag0
(g128
g2
Ntp177
Rp178
(lp179
g0
(g22
g2
Ntp180
Rp181
(lp182
g0
(g26
g2
Ntp183
Rp184
(lp185
I0
ag0
(g30
g2
Ntp186
Rp187
(lp188
I0
aI0
abag56
abag0
(g35
g2
Ntp189
Rp190
(lp191
g0
(g39
g2
Ntp192
Rp193
(lp194
F0.5294752097753854
aF-0.23891993409430162
aF0.02570893459679896
abag0
(g43
g2
Ntp195
Rp196
(lp197
F-0.704688659619377
aF0.7085322142558269
aF-0.0335033762754408
aF-0.016538383951495636
abababaF0.09159999999999999
aF-1.0
abasS'starting_gripper_state_index'
p198
I0
sS'parameters_update_history'
p199
(dp200
S'position_speed'
p201
F0.09159999999999999
sS'rotation_speed'
p202
(lp203
F-1.0
asg126
(lp204
g0
(g22
g2
Ntp205
Rp206
(lp207
g0
(g26
g2
Ntp208
Rp209
(lp210
I0
ag0
(g30
g2
Ntp211
Rp212
(lp213
I0
aI0
abag56
abag0
(g35
g2
Ntp214
Rp215
(lp216
g0
(g39
g2
Ntp217
Rp218
(lp219
F0.5294752097753854
aF-0.23891993409430162
aF0.02570893459679896
abag0
(g43
g2
Ntp220
Rp221
(lp222
F-0.704688659619377
aF0.7085322142558269
aF-0.0335033762754408
aF-0.016538383951495636
abababassS'parameter_container'
p223
g0
(g128
g2
Ntp224
Rp225
(lp226
g48
aF0.09159999999999999
aF-1.0
absbag0
(g12
g2
Ntp227
Rp228
(dp229
g117
g120
sg121
I01
sg18
S'A Move to Contact primitive'
p230
sg123
I1
sg124
(lp231
g126
aS'force_threshold'
p232
aS'torque_threshold'
p233
asg127
cpanda_pbd.msg._MoveToContactGoal
MoveToContactGoal
p234
sg129
(dp235
S'force_threshold'
p236
(lp237
F5.0
aF20.0
asg131
(lp238
F0.01
aF0.25
assg133
(lp239
g0
(g234
g2
Ntp240
Rp241
(lp242
g0
(g22
g2
Ntp243
Rp244
(lp245
g0
(g26
g2
Ntp246
Rp247
(lp248
I0
ag0
(g30
g2
Ntp249
Rp250
(lp251
I0
aI0
abag75
abag0
(g35
g2
Ntp252
Rp253
(lp254
g0
(g39
g2
Ntp255
Rp256
(lp257
F0.512283028132677
aF0.1492318253473133
aF0.035534203431970335
abag0
(g43
g2
Ntp258
Rp259
(lp260
F-0.7054319914467646
aF0.7087651220338805
aF0.0038737904474442854
aF-0.0016434656430182005
abababaF0.07
aF-1.0
aF10.0
aF10.0
abag0
(g234
g2
Ntp261
Rp262
(lp263
g0
(g22
g2
Ntp264
Rp265
(lp266
g0
(g26
g2
Ntp267
Rp268
(lp269
I0
ag0
(g30
g2
Ntp270
Rp271
(lp272
I0
aI0
abag75
abag0
(g35
g2
Ntp273
Rp274
(lp275
g0
(g39
g2
Ntp276
Rp277
(lp278
F0.512283028132677
aF0.1492318253473133
aF0.035534203431970335
abag0
(g43
g2
Ntp279
Rp280
(lp281
F-0.7054319914467646
aF0.7087651220338805
aF0.0038737904474442854
aF-0.0016434656430182005
abababaF0.17008373236044974
aF-1.0
aF10.0
aF10.0
abag0
(g234
g2
Ntp282
Rp283
(lp284
g0
(g22
g2
Ntp285
Rp286
(lp287
g0
(g26
g2
Ntp288
Rp289
(lp290
I0
ag0
(g30
g2
Ntp291
Rp292
(lp293
I0
aI0
abag75
abag0
(g35
g2
Ntp294
Rp295
(lp296
g0
(g39
g2
Ntp297
Rp298
(lp299
F0.512283028132677
aF0.1492318253473133
aF0.035534203431970335
abag0
(g43
g2
Ntp300
Rp301
(lp302
F-0.7054319914467646
aF0.7087651220338805
aF0.0038737904474442854
aF-0.0016434656430182005
abababaF0.17008373236044974
aF-1.0
aF16.361226996074926
aF10.0
abag0
(g234
g2
Ntp303
Rp304
(lp305
g0
(g22
g2
Ntp306
Rp307
(lp308
g0
(g26
g2
Ntp309
Rp310
(lp311
I0
ag0
(g30
g2
Ntp312
Rp313
(lp314
I0
aI0
abag75
abag0
(g35
g2
Ntp315
Rp316
(lp317
g0
(g39
g2
Ntp318
Rp319
(lp320
F0.512283028132677
aF0.1492318253473133
aF0.035534203431970335
abag0
(g43
g2
Ntp321
Rp322
(lp323
F-0.7054319914467646
aF0.7087651220338805
aF0.0038737904474442854
aF-0.0016434656430182005
abababaF0.07239999999999999
aF-1.0
aF16.361226996074926
aF10.0
abasg198
I0
sg199
(dp324
g232
F16.361226996074926
sg201
F0.07239999999999999
sg202
(lp325
F-1.0
asg233
(lp326
F10.0
asg126
(lp327
g0
(g22
g2
Ntp328
Rp329
(lp330
g0
(g26
g2
Ntp331
Rp332
(lp333
I0
ag0
(g30
g2
Ntp334
Rp335
(lp336
I0
aI0
abag75
abag0
(g35
g2
Ntp337
Rp338
(lp339
g0
(g39
g2
Ntp340
Rp341
(lp342
F0.512283028132677
aF0.1492318253473133
aF0.035534203431970335
abag0
(g43
g2
Ntp343
Rp344
(lp345
F-0.7054319914467646
aF0.7087651220338805
aF0.0038737904474442854
aF-0.0016434656430182005
abababassg223
g0
(g234
g2
Ntp346
Rp347
(lp348
g67
aF0.07239999999999999
aF-1.0
aF16.361226996074926
aF10.0
absbag0
(g10
g2
Ntp349
Rp350
(dp351
g117
g120
sg121
I01
sg18
g122
sg123
I2
sg124
(lp352
g126
asg127
g128
sg129
g130
sg133
(lp353
g0
(g128
g2
Ntp354
Rp355
(lp356
g0
(g22
g2
Ntp357
Rp358
(lp359
g0
(g26
g2
Ntp360
Rp361
(lp362
I0
ag0
(g30
g2
Ntp363
Rp364
(lp365
I0
aI0
abag94
abag0
(g35
g2
Ntp366
Rp367
(lp368
g0
(g39
g2
Ntp369
Rp370
(lp371
F0.4340239876172547
aF-0.018694378705386674
aF0.36310452212031397
abag0
(g43
g2
Ntp372
Rp373
(lp374
F0.9996651157292086
aF-0.021109210280240997
aF-0.014510167637759988
aF-0.003675958456885042
abababaF0.07
aF-1.0
abag0
(g128
g2
Ntp375
Rp376
(lp377
g0
(g22
g2
Ntp378
Rp379
(lp380
g0
(g26
g2
Ntp381
Rp382
(lp383
I0
ag0
(g30
g2
Ntp384
Rp385
(lp386
I0
aI0
abag94
abag0
(g35
g2
Ntp387
Rp388
(lp389
g0
(g39
g2
Ntp390
Rp391
(lp392
F0.4340239876172547
aF-0.018694378705386674
aF0.36310452212031397
abag0
(g43
g2
Ntp393
Rp394
(lp395
F0.9996651157292086
aF-0.021109210280240997
aF-0.014510167637759988
aF-0.003675958456885042
abababaF0.2527177490992559
aF-1.0
abag0
(g128
g2
Ntp396
Rp397
(lp398
g0
(g22
g2
Ntp399
Rp400
(lp401
g0
(g26
g2
Ntp402
Rp403
(lp404
I0
ag0
(g30
g2
Ntp405
Rp406
(lp407
I0
aI0
abag94
abag0
(g35
g2
Ntp408
Rp409
(lp410
g0
(g39
g2
Ntp411
Rp412
(lp413
F0.4340239876172547
aF-0.018694378705386674
aF0.36310452212031397
abag0
(g43
g2
Ntp414
Rp415
(lp416
F0.9996651157292086
aF-0.021109210280240997
aF-0.014510167637759988
aF-0.003675958456885042
abababaF0.18
aF-1.0
abag0
(g128
g2
Ntp417
Rp418
(lp419
g0
(g22
g2
Ntp420
Rp421
(lp422
g0
(g26
g2
Ntp423
Rp424
(lp425
I0
ag0
(g30
g2
Ntp426
Rp427
(lp428
I0
aI0
abag94
abag0
(g35
g2
Ntp429
Rp430
(lp431
g0
(g39
g2
Ntp432
Rp433
(lp434
F0.4340239876172547
aF-0.018694378705386674
aF0.36310452212031397
abag0
(g43
g2
Ntp435
Rp436
(lp437
F0.9996651157292086
aF-0.021109210280240997
aF-0.014510167637759988
aF-0.003675958456885042
abababaF0.11199999999999999
aF-1.0
abag0
(g128
g2
Ntp438
Rp439
(lp440
g0
(g22
g2
Ntp441
Rp442
(lp443
g0
(g26
g2
Ntp444
Rp445
(lp446
I0
ag0
(g30
g2
Ntp447
Rp448
(lp449
I0
aI0
abag94
abag0
(g35
g2
Ntp450
Rp451
(lp452
g0
(g39
g2
Ntp453
Rp454
(lp455
F0.4340239876172547
aF-0.018694378705386674
aF0.36310452212031397
abag0
(g43
g2
Ntp456
Rp457
(lp458
F0.9996651157292086
aF-0.021109210280240997
aF-0.014510167637759988
aF-0.003675958456885042
abababaF0.1392
aF-1.0
abasg198
I0
sg199
(dp459
g201
F0.1392
sg202
(lp460
F-1.0
asg126
(lp461
g0
(g22
g2
Ntp462
Rp463
(lp464
g0
(g26
g2
Ntp465
Rp466
(lp467
I0
ag0
(g30
g2
Ntp468
Rp469
(lp470
I0
aI0
abag94
abag0
(g35
g2
Ntp471
Rp472
(lp473
g0
(g39
g2
Ntp474
Rp475
(lp476
F0.4340239876172547
aF-0.018694378705386674
aF0.36310452212031397
abag0
(g43
g2
Ntp477
Rp478
(lp479
F0.9996651157292086
aF-0.021109210280240997
aF-0.014510167637759988
aF-0.003675958456885042
abababassg223
g0
(g128
g2
Ntp480
Rp481
(lp482
g86
aF0.1392
aF-1.0
absbasS'name'
p483
S'A Panda Program'
p484
sb.