ccopy_reg
_reconstructor
p0
(cpanda_eup.panda_primitive
PandaProgram
p1
c__builtin__
object
p2
Ntp3
Rp4
(dp5
S'effect_of_primitive'
p6
(dp7
cpanda_eup.panda_primitive
ApplyForceFingers
p8
(lp9
I00
aI01
ascpanda_eup.panda_primitive
UserSync
p10
(lp11
I00
aI00
ascpanda_eup.panda_primitive
MoveToEE
p12
(lp13
I01
aI00
ascpanda_eup.panda_primitive
MoveToContact
p14
(lp15
I01
aI00
ascpanda_eup.panda_primitive
MoveFingers
p16
(lp17
I00
aI01
assS'description'
p18
S'Empty Description'
p19
sS'arm_state_list'
p20
(lp21
g0
(cgeometry_msgs.msg._PoseStamped
PoseStamped
p22
g2
Ntp23
Rp24
(lp25
g0
(cstd_msgs.msg._Header
Header
p26
g2
Ntp27
Rp28
(lp29
I0
ag0
(cgenpy.rostime
Time
p30
g2
Ntp31
Rp32
(lp33
I0
aI0
abaS'panda_link0'
p34
abag0
(cgeometry_msgs.msg._Pose
Pose
p35
g2
Ntp36
Rp37
(lp38
g0
(cgeometry_msgs.msg._Point
Point
p39
g2
Ntp40
Rp41
(lp42
F0.4833974233623748
aF0.007318751177980708
aF0.3904495689279949
abag0
(cgeometry_msgs.msg._Quaternion
Quaternion
p43
g2
Ntp44
Rp45
(lp46
F0.9993500431690824
aF-0.014042189921340717
aF-0.02007113406023331
aF-0.026447262574839425
abababag0
(g22
g2
Ntp47
Rp48
(lp49
g0
(g26
g2
Ntp50
Rp51
(lp52
I0
ag0
(g30
g2
Ntp53
Rp54
(lp55
I0
aI0
abaS'panda_link0'
p56
abag0
(g35
g2
Ntp57
Rp58
(lp59
g0
(g39
g2
Ntp60
Rp61
(lp62
F0.5019632780863351
aF0.002353187012322972
aF0.025049601166879043
abag0
(g43
g2
Ntp63
Rp64
(lp65
F0.9992292864866686
aF-0.03126304424322045
aF0.00979733545846411
aF-0.02162099234318075
abababag0
(g22
g2
Ntp66
Rp67
(lp68
g0
(g26
g2
Ntp69
Rp70
(lp71
I0
ag0
(g30
g2
Ntp72
Rp73
(lp74
I0
aI0
abaS'panda_link0'
p75
abag0
(g35
g2
Ntp76
Rp77
(lp78
g0
(g39
g2
Ntp79
Rp80
(lp81
F0.6404225030201885
aF-0.21899515188976365
aF0.31947401035356376
abag0
(g43
g2
Ntp82
Rp83
(lp84
F0.8476936441278499
aF-0.15503337362532482
aF0.5028616917286283
aF0.06715845262823286
abababag0
(g22
g2
Ntp85
Rp86
(lp87
g0
(g26
g2
Ntp88
Rp89
(lp90
I0
ag0
(g30
g2
Ntp91
Rp92
(lp93
I0
aI0
abaS'panda_link0'
p94
abag0
(g35
g2
Ntp95
Rp96
(lp97
g0
(g39
g2
Ntp98
Rp99
(lp100
F0.48697273191184176
aF-0.0003249795766055996
aF0.3672047165651558
abag0
(g43
g2
Ntp101
Rp102
(lp103
F0.9986485219265587
aF-0.028677903984510297
aF0.042164274523526495
aF-0.010043974853580964
abababasS'gripper_state_list'
p104
(lp105
g0
(cpanda_eup.panda_primitive
GripperState
p106
g2
Ntp107
Rp108
(dp109
S'width'
p110
F0.08
sS'force'
p111
F0.0
sbag0
(g106
g2
Ntp112
Rp113
(dp114
g110
F0.03174983337521553
sg111
F37.6
sbag0
(g106
g2
Ntp115
Rp116
(dp117
g110
F0.04758337885141373
sg111
F0.0
sbasS'primitives'
p118
(lp119
g0
(g14
g2
Ntp120
Rp121
(dp122
S'status'
p123
cpanda_eup.panda_primitive
PandaPrimitiveStatus
p124
(I5
tp125
Rp126
sS'revertible'
p127
I01
sg18
S'A Move to Contact primitive'
p128
sS'starting_arm_state_index'
p129
I0
sS'parameters_with_effects_on_robot_state'
p130
(lp131
S'pose'
p132
aS'force_threshold'
p133
aS'torque_threshold'
p134
asS'expected_container'
p135
cpanda_pbd.msg._MoveToContactGoal
MoveToContactGoal
p136
sS'gui_tunable_parameter_strict_ranges'
p137
(dp138
S'force_threshold'
p139
(lp140
F5.0
aF20.0
asS'position_speed'
p141
(lp142
F0.01
aF0.25
assS'container_update_history'
p143
(lp144
g0
(g136
g2
Ntp145
Rp146
(lp147
g0
(g22
g2
Ntp148
Rp149
(lp150
g0
(g26
g2
Ntp151
Rp152
(lp153
I0
ag0
(g30
g2
Ntp154
Rp155
(lp156
I0
aI0
abaS'panda_link0'
p157
abag0
(g35
g2
Ntp158
Rp159
(lp160
g0
(g39
g2
Ntp161
Rp162
(lp163
F0.5069132714754178
aF0.004873624607929537
aF0.027077189596690976
abag0
(g43
g2
Ntp164
Rp165
(lp166
F0.9995143312059889
aF-0.02583181235790082
aF0.016166211683465017
aF-0.006517114695673689
abababaF0.07
aF-1.0
aF10.0
aF10.0
abag0
(g136
g2
Ntp167
Rp168
(lp169
g0
(g22
g2
Ntp170
Rp171
(lp172
g0
(g26
g2
Ntp173
Rp174
(lp175
I0
ag0
(g30
g2
Ntp176
Rp177
(lp178
I0
aI0
abag157
abag0
(g35
g2
Ntp179
Rp180
(lp181
g0
(g39
g2
Ntp182
Rp183
(lp184
F0.5069132714754178
aF0.004873624607929537
aF0.027077189596690976
abag0
(g43
g2
Ntp185
Rp186
(lp187
F0.9995143312059889
aF-0.02583181235790082
aF0.016166211683465017
aF-0.006517114695673689
abababaF0.2259700996956939
aF-1.0
aF10.0
aF10.0
abag0
(g136
g2
Ntp188
Rp189
(lp190
g0
(g22
g2
Ntp191
Rp192
(lp193
g0
(g26
g2
Ntp194
Rp195
(lp196
I0
ag0
(g30
g2
Ntp197
Rp198
(lp199
I0
aI0
abag157
abag0
(g35
g2
Ntp200
Rp201
(lp202
g0
(g39
g2
Ntp203
Rp204
(lp205
F0.5069132714754178
aF0.004873624607929537
aF0.027077189596690976
abag0
(g43
g2
Ntp206
Rp207
(lp208
F0.9995143312059889
aF-0.02583181235790082
aF0.016166211683465017
aF-0.006517114695673689
abababaF0.2259700996956939
aF-1.0
aF18.13080474996748
aF10.0
abag0
(g136
g2
Ntp209
Rp210
(lp211
g0
(g22
g2
Ntp212
Rp213
(lp214
g0
(g26
g2
Ntp215
Rp216
(lp217
I0
ag0
(g30
g2
Ntp218
Rp219
(lp220
I0
aI0
abag157
abag0
(g35
g2
Ntp221
Rp222
(lp223
g0
(g39
g2
Ntp224
Rp225
(lp226
F0.5069132714754178
aF0.004873624607929537
aF0.027077189596690976
abag0
(g43
g2
Ntp227
Rp228
(lp229
F0.9995143312059889
aF-0.02583181235790082
aF0.016166211683465017
aF-0.006517114695673689
abababaF0.2259700996956939
aF-1.0
aF5.9
aF10.0
abag0
(g136
g2
Ntp230
Rp231
(lp232
g0
(g22
g2
Ntp233
Rp234
(lp235
g0
(g26
g2
Ntp236
Rp237
(lp238
I0
ag0
(g30
g2
Ntp239
Rp240
(lp241
I0
aI0
abag157
abag0
(g35
g2
Ntp242
Rp243
(lp244
g0
(g39
g2
Ntp245
Rp246
(lp247
F0.5069132714754178
aF0.004873624607929537
aF0.027077189596690976
abag0
(g43
g2
Ntp248
Rp249
(lp250
F0.9995143312059889
aF-0.02583181235790082
aF0.016166211683465017
aF-0.006517114695673689
abababaF0.029199999999999997
aF-1.0
aF5.9
aF10.0
abasS'starting_gripper_state_index'
p251
I0
sS'parameters_update_history'
p252
(dp253
g133
(lp254
F10.0
aF18.13080474996748
aF5.9
asS'position_speed'
p255
(lp256
F0.07
aF0.2259700996956939
aF0.029199999999999997
asS'rotation_speed'
p257
(lp258
F-1.0
asg134
(lp259
F10.0
asg132
(lp260
g0
(g22
g2
Ntp261
Rp262
(lp263
g0
(g26
g2
Ntp264
Rp265
(lp266
I0
ag0
(g30
g2
Ntp267
Rp268
(lp269
I0
aI0
abag157
abag0
(g35
g2
Ntp270
Rp271
(lp272
g0
(g39
g2
Ntp273
Rp274
(lp275
F0.5069132714754178
aF0.004873624607929537
aF0.027077189596690976
abag0
(g43
g2
Ntp276
Rp277
(lp278
F0.9995143312059889
aF-0.02583181235790082
aF0.016166211683465017
aF-0.006517114695673689
abababassS'parameter_container'
p279
g0
(g136
g2
Ntp280
Rp281
(lp282
g0
(g22
g2
Ntp283
Rp284
(lp285
g0
(g26
g2
Ntp286
Rp287
(lp288
I0
ag0
(g30
g2
Ntp289
Rp290
(lp291
I0
aI0
abag157
abag0
(g35
g2
Ntp292
Rp293
(lp294
g0
(g39
g2
Ntp295
Rp296
(lp297
F0.5069132714754178
aF0.004873624607929537
aF0.027077189596690976
abag0
(g43
g2
Ntp298
Rp299
(lp300
F0.9995143312059889
aF-0.02583181235790082
aF0.016166211683465017
aF-0.006517114695673689
abababaF0.029199999999999997
aF-1.0
aF5.9
aF10.0
absbag0
(g8
g2
Ntp301
Rp302
(dp303
g123
g124
(I0
tp304
Rp305
sg127
I01
sg18
S'A Apply Force (with) Fingers primitive'
p306
sg129
I1
sg130
(lp307
S'force'
p308
asg135
cpanda_pbd.srv._ApplyForceFingers
ApplyForceFingersRequest
p309
sg137
(dp310
g111
(lp311
F20.0
aF60.0
assg143
(lp312
g0
(g309
g2
Ntp313
Rp314
(lp315
F20.0
abag0
(g309
g2
Ntp316
Rp317
(lp318
F28.024673405093598
abag0
(g309
g2
Ntp319
Rp320
(lp321
F41.6
abag0
(g309
g2
Ntp322
Rp323
(lp324
F38.400000000000006
abag0
(g309
g2
Ntp325
Rp326
(lp327
F37.6
abasg251
I0
sg252
(dp328
g308
(lp329
F20.0
aF28.024673405093598
aF41.6
aF38.400000000000006
aF37.6
assg279
g0
(g309
g2
Ntp330
Rp331
(lp332
F37.6
absbag0
(g12
g2
Ntp333
Rp334
(dp335
g123
g305
sg127
I01
sg18
S'A Move to End-Effector primitive'
p336
sg129
I1
sg130
(lp337
g132
asg135
cpanda_pbd.msg._MoveToEEGoal
MoveToEEGoal
p338
sg137
(dp339
g141
(lp340
F0.01
aF0.35
assg143
(lp341
g0
(g338
g2
Ntp342
Rp343
(lp344
g0
(g22
g2
Ntp345
Rp346
(lp347
g0
(g26
g2
Ntp348
Rp349
(lp350
I0
ag0
(g30
g2
Ntp351
Rp352
(lp353
I0
aI0
abag75
abag0
(g35
g2
Ntp354
Rp355
(lp356
g0
(g39
g2
Ntp357
Rp358
(lp359
F0.6404225030201885
aF-0.21899515188976365
aF0.31947401035356376
abag0
(g43
g2
Ntp360
Rp361
(lp362
F0.8476936441278499
aF-0.15503337362532482
aF0.5028616917286283
aF0.06715845262823286
abababaF0.07
aF-1.0
abag0
(g338
g2
Ntp363
Rp364
(lp365
g0
(g22
g2
Ntp366
Rp367
(lp368
g0
(g26
g2
Ntp369
Rp370
(lp371
I0
ag0
(g30
g2
Ntp372
Rp373
(lp374
I0
aI0
abag75
abag0
(g35
g2
Ntp375
Rp376
(lp377
g0
(g39
g2
Ntp378
Rp379
(lp380
F0.6404225030201885
aF-0.21899515188976365
aF0.31947401035356376
abag0
(g43
g2
Ntp381
Rp382
(lp383
F0.8476936441278499
aF-0.15503337362532482
aF0.5028616917286283
aF0.06715845262823286
abababaF0.24002774810699135
aF-1.0
abag0
(g338
g2
Ntp384
Rp385
(lp386
g0
(g22
g2
Ntp387
Rp388
(lp389
g0
(g26
g2
Ntp390
Rp391
(lp392
I0
ag0
(g30
g2
Ntp393
Rp394
(lp395
I0
aI0
abag75
abag0
(g35
g2
Ntp396
Rp397
(lp398
g0
(g39
g2
Ntp399
Rp400
(lp401
F0.6404225030201885
aF-0.21899515188976365
aF0.31947401035356376
abag0
(g43
g2
Ntp402
Rp403
(lp404
F0.8476936441278499
aF-0.15503337362532482
aF0.5028616917286283
aF0.06715845262823286
abababaF0.2344
aF-1.0
abag0
(g338
g2
Ntp405
Rp406
(lp407
g0
(g22
g2
Ntp408
Rp409
(lp410
g0
(g26
g2
Ntp411
Rp412
(lp413
I0
ag0
(g30
g2
Ntp414
Rp415
(lp416
I0
aI0
abag75
abag0
(g35
g2
Ntp417
Rp418
(lp419
g0
(g39
g2
Ntp420
Rp421
(lp422
F0.6404225030201885
aF-0.21899515188976365
aF0.31947401035356376
abag0
(g43
g2
Ntp423
Rp424
(lp425
F0.8476936441278499
aF-0.15503337362532482
aF0.5028616917286283
aF0.06715845262823286
abababaF0.1936
aF-1.0
abasg251
I1
sg252
(dp426
g255
(lp427
F0.07
aF0.24002774810699135
aF0.2344
aF0.1936
asg257
(lp428
F-1.0
asg132
(lp429
g0
(g22
g2
Ntp430
Rp431
(lp432
g0
(g26
g2
Ntp433
Rp434
(lp435
I0
ag0
(g30
g2
Ntp436
Rp437
(lp438
I0
aI0
abag75
abag0
(g35
g2
Ntp439
Rp440
(lp441
g0
(g39
g2
Ntp442
Rp443
(lp444
F0.6404225030201885
aF-0.21899515188976365
aF0.31947401035356376
abag0
(g43
g2
Ntp445
Rp446
(lp447
F0.8476936441278499
aF-0.15503337362532482
aF0.5028616917286283
aF0.06715845262823286
abababassg279
g0
(g338
g2
Ntp448
Rp449
(lp450
g67
aF0.1936
aF-1.0
absbag0
(g10
g2
Ntp451
Rp452
(dp453
g123
g305
sg127
I01
sg18
S'A User Synchronization primitive'
p454
sg129
I2
sg130
(lp455
sg135
cpanda_pbd.msg._UserSyncGoal
UserSyncGoal
p456
sg137
(dp457
g139
(lp458
F5.0
aF30.0
assg143
(lp459
g0
(g456
g2
Ntp460
Rp461
(lp462
F10.0
abag0
(g456
g2
Ntp463
Rp464
(lp465
F8.028950320596879
abag0
(g456
g2
Ntp466
Rp467
(lp468
F9.5
abasg251
I1
sg252
(dp469
g133
(lp470
F10.0
aF8.028950320596879
aF9.5
assg279
g0
(g456
g2
Ntp471
Rp472
(lp473
F9.5
absbag0
(g16
g2
Ntp474
Rp475
(dp476
g123
g305
sg127
I01
sg18
S'A Move Fingers primitive'
p477
sg129
I2
sg130
(lp478
S'width'
p479
asg135
cpanda_pbd.srv._MoveFingers
MoveFingersRequest
p480
sg137
(dp481
g479
(lp482
F0.04758337885141373
aF0.08
assg143
(lp483
g0
(g480
g2
Ntp484
Rp485
(lp486
F0.04758337885141373
abag0
(g480
g2
Ntp487
Rp488
(lp489
F0.06996045772012682
abasg251
I1
sg252
(dp490
g479
(lp491
F0.04758337885141373
aF0.06996045772012682
assg279
g0
(g480
g2
Ntp492
Rp493
(lp494
F0.06996045772012682
absbag0
(g12
g2
Ntp495
Rp496
(dp497
g123
g305
sg127
I01
sg18
g336
sg129
I2
sg130
(lp498
g132
asg135
g338
sg137
g339
sg143
(lp499
g0
(g338
g2
Ntp500
Rp501
(lp502
g0
(g22
g2
Ntp503
Rp504
(lp505
g0
(g26
g2
Ntp506
Rp507
(lp508
I0
ag0
(g30
g2
Ntp509
Rp510
(lp511
I0
aI0
abag94
abag0
(g35
g2
Ntp512
Rp513
(lp514
g0
(g39
g2
Ntp515
Rp516
(lp517
F0.48697273191184176
aF-0.0003249795766055996
aF0.3672047165651558
abag0
(g43
g2
Ntp518
Rp519
(lp520
F0.9986485219265587
aF-0.028677903984510297
aF0.042164274523526495
aF-0.010043974853580964
abababaF0.07
aF-1.0
abag0
(g338
g2
Ntp521
Rp522
(lp523
g0
(g22
g2
Ntp524
Rp525
(lp526
g0
(g26
g2
Ntp527
Rp528
(lp529
I0
ag0
(g30
g2
Ntp530
Rp531
(lp532
I0
aI0
abag94
abag0
(g35
g2
Ntp533
Rp534
(lp535
g0
(g39
g2
Ntp536
Rp537
(lp538
F0.48697273191184176
aF-0.0003249795766055996
aF0.3672047165651558
abag0
(g43
g2
Ntp539
Rp540
(lp541
F0.9986485219265587
aF-0.028677903984510297
aF0.042164274523526495
aF-0.010043974853580964
abababaF0.18625002666921447
aF-1.0
abag0
(g338
g2
Ntp542
Rp543
(lp544
g0
(g22
g2
Ntp545
Rp546
(lp547
g0
(g26
g2
Ntp548
Rp549
(lp550
I0
ag0
(g30
g2
Ntp551
Rp552
(lp553
I0
aI0
abag94
abag0
(g35
g2
Ntp554
Rp555
(lp556
g0
(g39
g2
Ntp557
Rp558
(lp559
F0.48697273191184176
aF-0.0003249795766055996
aF0.3672047165651558
abag0
(g43
g2
Ntp560
Rp561
(lp562
F0.9986485219265587
aF-0.028677903984510297
aF0.042164274523526495
aF-0.010043974853580964
abababaF0.1256
aF-1.0
abasg251
I2
sg252
(dp563
g255
(lp564
F0.07
aF0.18625002666921447
aF0.1256
asg257
(lp565
F-1.0
asg132
(lp566
g0
(g22
g2
Ntp567
Rp568
(lp569
g0
(g26
g2
Ntp570
Rp571
(lp572
I0
ag0
(g30
g2
Ntp573
Rp574
(lp575
I0
aI0
abag94
abag0
(g35
g2
Ntp576
Rp577
(lp578
g0
(g39
g2
Ntp579
Rp580
(lp581
F0.48697273191184176
aF-0.0003249795766055996
aF0.3672047165651558
abag0
(g43
g2
Ntp582
Rp583
(lp584
F0.9986485219265587
aF-0.028677903984510297
aF0.042164274523526495
aF-0.010043974853580964
abababassg279
g0
(g338
g2
Ntp585
Rp586
(lp587
g86
aF0.1256
aF-1.0
absbasS'name'
p588
S'A Panda Program'
p589
sb.