(dp0
S'program'
p1
ccopy_reg
_reconstructor
p2
(cpanda_eup.panda_primitive
PandaProgram
p3
c__builtin__
object
p4
Ntp5
Rp6
(dp7
S'effect_of_primitive'
p8
(dp9
cpanda_eup.panda_primitive
ApplyForceFingers
p10
(lp11
I00
aI01
ascpanda_eup.panda_primitive
UserSync
p12
(lp13
I00
aI00
ascpanda_eup.panda_primitive
MoveToEE
p14
(lp15
I01
aI00
ascpanda_eup.panda_primitive
MoveToContact
p16
(lp17
I01
aI00
ascpanda_eup.panda_primitive
MoveFingers
p18
(lp19
I00
aI01
assS'description'
p20
S'Empty Description'
p21
sS'arm_state_list'
p22
(lp23
g2
(cgeometry_msgs.msg._PoseStamped
PoseStamped
p24
g4
Ntp25
Rp26
(lp27
g2
(cstd_msgs.msg._Header
Header
p28
g4
Ntp29
Rp30
(lp31
I0
ag2
(cgenpy.rostime
Time
p32
g4
Ntp33
Rp34
(lp35
I0
aI0
abaS'panda_link0'
p36
abag2
(cgeometry_msgs.msg._Pose
Pose
p37
g4
Ntp38
Rp39
(lp40
g2
(cgeometry_msgs.msg._Point
Point
p41
g4
Ntp42
Rp43
(lp44
F0.4833974233623748
aF0.007318751177980708
aF0.3904495689279949
abag2
(cgeometry_msgs.msg._Quaternion
Quaternion
p45
g4
Ntp46
Rp47
(lp48
F0.9993500431690824
aF-0.014042189921340717
aF-0.02007113406023331
aF-0.026447262574839425
abababag2
(g24
g4
Ntp49
Rp50
(lp51
g2
(g28
g4
Ntp52
Rp53
(lp54
I0
ag2
(g32
g4
Ntp55
Rp56
(lp57
I0
aI0
abaS'panda_link0'
p58
abag2
(g37
g4
Ntp59
Rp60
(lp61
g2
(g41
g4
Ntp62
Rp63
(lp64
F0.4988348967315191
aF0.002682643137273656
aF0.024221675744750093
abag2
(g45
g4
Ntp65
Rp66
(lp67
F0.9987485803724512
aF-0.026044239761920152
aF0.008391028619438594
aF-0.041863604932503955
abababag2
(g24
g4
Ntp68
Rp69
(lp70
g2
(g28
g4
Ntp71
Rp72
(lp73
I0
ag2
(g32
g4
Ntp74
Rp75
(lp76
I0
aI0
abaS'panda_link0'
p77
abag2
(g37
g4
Ntp78
Rp79
(lp80
g2
(g41
g4
Ntp81
Rp82
(lp83
F0.6404225030201885
aF-0.21899515188976365
aF0.31947401035356376
abag2
(g45
g4
Ntp84
Rp85
(lp86
F0.8476936441278499
aF-0.15503337362532482
aF0.5028616917286283
aF0.06715845262823286
abababag2
(g24
g4
Ntp87
Rp88
(lp89
g2
(g28
g4
Ntp90
Rp91
(lp92
I0
ag2
(g32
g4
Ntp93
Rp94
(lp95
I0
aI0
abaS'panda_link0'
p96
abag2
(g37
g4
Ntp97
Rp98
(lp99
g2
(g41
g4
Ntp100
Rp101
(lp102
F0.48697273191184176
aF-0.0003249795766055996
aF0.3672047165651558
abag2
(g45
g4
Ntp103
Rp104
(lp105
F0.9986485219265587
aF-0.028677903984510297
aF0.042164274523526495
aF-0.010043974853580964
abababasS'gripper_state_list'
p106
(lp107
g2
(cpanda_eup.panda_primitive
GripperState
p108
g4
Ntp109
Rp110
(dp111
S'width'
p112
F0.08
sS'force'
p113
F0.0
sbag2
(g108
g4
Ntp114
Rp115
(dp116
g112
F0.03112993948161602
sg113
F20.0
sbag2
(g108
g4
Ntp117
Rp118
(dp119
g112
F0.053680531680583954
sg113
F0.0
sbasS'primitives'
p120
(lp121
g2
(g16
g4
Ntp122
Rp123
(dp124
S'status'
p125
cpanda_eup.panda_primitive
PandaPrimitiveStatus
p126
(I1
tp127
Rp128
sS'revertible'
p129
I01
sg20
S'A Move to Contact primitive'
p130
sS'parameters_range_history'
p131
(dp132
S'force_threshold'
p133
(lp134
(lp135
F6.8
aF10.1
aa(lp136
F6.8
aF8.3
aa(lp137
F5.6
aF6.8
aa(lp138
F5.0
aF5.9
aasS'position_speed'
p139
(lp140
(lp141
F0.1588
aF0.21159999999999998
aa(lp142
F0.10119999999999998
aF0.1348
aa(lp143
F0.0436
aF0.1348
aa(lp144
F0.024399999999999998
aF0.10119999999999998
aassS'starting_arm_state_index'
p145
I0
sS'parameters_with_effects_on_robot_state'
p146
(lp147
S'pose'
p148
aS'force_threshold'
p149
aS'torque_threshold'
p150
asS'expected_container'
p151
cpanda_pbd.msg._MoveToContactGoal
MoveToContactGoal
p152
sS'gui_tunable_parameter_strict_ranges'
p153
(dp154
g133
(lp155
F5.0
aF20.0
asg139
(lp156
F0.01
aF0.25
assS'container_update_history'
p157
(lp158
g2
(g152
g4
Ntp159
Rp160
(lp161
g2
(g24
g4
Ntp162
Rp163
(lp164
g2
(g28
g4
Ntp165
Rp166
(lp167
I0
ag2
(g32
g4
Ntp168
Rp169
(lp170
I0
aI0
abaS'panda_link0'
p171
abag2
(g37
g4
Ntp172
Rp173
(lp174
g2
(g41
g4
Ntp175
Rp176
(lp177
F0.5069132714754178
aF0.004873624607929537
aF0.027077189596690976
abag2
(g45
g4
Ntp178
Rp179
(lp180
F0.9995143312059889
aF-0.02583181235790082
aF0.016166211683465017
aF-0.006517114695673689
abababaF0.054250320305593694
aF-1.0
aF13.388195394486063
aF10.0
abag2
(g152
g4
Ntp181
Rp182
(lp183
g2
(g24
g4
Ntp184
Rp185
(lp186
g2
(g28
g4
Ntp187
Rp188
(lp189
I0
ag2
(g32
g4
Ntp190
Rp191
(lp192
I0
aI0
abag171
abag2
(g37
g4
Ntp193
Rp194
(lp195
g2
(g41
g4
Ntp196
Rp197
(lp198
F0.5069132714754178
aF0.004873624607929537
aF0.027077189596690976
abag2
(g45
g4
Ntp199
Rp200
(lp201
F0.9995143312059889
aF-0.02583181235790082
aF0.016166211683465017
aF-0.006517114695673689
abababaF0.054250320305593694
aF-1.0
aF13.1
aF10.0
abag2
(g152
g4
Ntp202
Rp203
(lp204
g2
(g24
g4
Ntp205
Rp206
(lp207
g2
(g28
g4
Ntp208
Rp209
(lp210
I0
ag2
(g32
g4
Ntp211
Rp212
(lp213
I0
aI0
abag171
abag2
(g37
g4
Ntp214
Rp215
(lp216
g2
(g41
g4
Ntp217
Rp218
(lp219
F0.5069132714754178
aF0.004873624607929537
aF0.027077189596690976
abag2
(g45
g4
Ntp220
Rp221
(lp222
F0.9995143312059889
aF-0.02583181235790082
aF0.016166211683465017
aF-0.006517114695673689
abababaF0.0532
aF-1.0
aF13.1
aF10.0
abag2
(g152
g4
Ntp223
Rp224
(lp225
g2
(g24
g4
Ntp226
Rp227
(lp228
g2
(g28
g4
Ntp229
Rp230
(lp231
I0
ag2
(g32
g4
Ntp232
Rp233
(lp234
I0
aI0
abag171
abag2
(g37
g4
Ntp235
Rp236
(lp237
g2
(g41
g4
Ntp238
Rp239
(lp240
F0.5069132714754178
aF0.004873624607929537
aF0.027077189596690976
abag2
(g45
g4
Ntp241
Rp242
(lp243
F0.9995143312059889
aF-0.02583181235790082
aF0.016166211683465017
aF-0.006517114695673689
abababaF0.0532
aF-1.0
aF8.6
aF10.0
abag2
(g152
g4
Ntp244
Rp245
(lp246
g2
(g24
g4
Ntp247
Rp248
(lp249
g2
(g28
g4
Ntp250
Rp251
(lp252
I0
ag2
(g32
g4
Ntp253
Rp254
(lp255
I0
aI0
abag171
abag2
(g37
g4
Ntp256
Rp257
(lp258
g2
(g41
g4
Ntp259
Rp260
(lp261
F0.5069132714754178
aF0.004873624607929537
aF0.027077189596690976
abag2
(g45
g4
Ntp262
Rp263
(lp264
F0.9995143312059889
aF-0.02583181235790082
aF0.016166211683465017
aF-0.006517114695673689
abababaF0.1924
aF-1.0
aF8.6
aF10.0
abag2
(g152
g4
Ntp265
Rp266
(lp267
g2
(g24
g4
Ntp268
Rp269
(lp270
g2
(g28
g4
Ntp271
Rp272
(lp273
I0
ag2
(g32
g4
Ntp274
Rp275
(lp276
I0
aI0
abag171
abag2
(g37
g4
Ntp277
Rp278
(lp279
g2
(g41
g4
Ntp280
Rp281
(lp282
F0.5069132714754178
aF0.004873624607929537
aF0.027077189596690976
abag2
(g45
g4
Ntp283
Rp284
(lp285
F0.9995143312059889
aF-0.02583181235790082
aF0.016166211683465017
aF-0.006517114695673689
abababaF0.1924
aF-1.0
aF7.4
aF10.0
abag2
(g152
g4
Ntp286
Rp287
(lp288
g2
(g24
g4
Ntp289
Rp290
(lp291
g2
(g28
g4
Ntp292
Rp293
(lp294
I0
ag2
(g32
g4
Ntp295
Rp296
(lp297
I0
aI0
abag171
abag2
(g37
g4
Ntp298
Rp299
(lp300
g2
(g41
g4
Ntp301
Rp302
(lp303
F0.5069132714754178
aF0.004873624607929537
aF0.027077189596690976
abag2
(g45
g4
Ntp304
Rp305
(lp306
F0.9995143312059889
aF-0.02583181235790082
aF0.016166211683465017
aF-0.006517114695673689
abababaF0.12039999999999998
aF-1.0
aF7.4
aF10.0
abag2
(g152
g4
Ntp307
Rp308
(lp309
g2
(g24
g4
Ntp310
Rp311
(lp312
g2
(g28
g4
Ntp313
Rp314
(lp315
I0
ag2
(g32
g4
Ntp316
Rp317
(lp318
I0
aI0
abag171
abag2
(g37
g4
Ntp319
Rp320
(lp321
g2
(g41
g4
Ntp322
Rp323
(lp324
F0.5069132714754178
aF0.004873624607929537
aF0.027077189596690976
abag2
(g45
g4
Ntp325
Rp326
(lp327
F0.9995143312059889
aF-0.02583181235790082
aF0.016166211683465017
aF-0.006517114695673689
abababaF0.12039999999999998
aF-1.0
aF6.2
aF10.0
abag2
(g152
g4
Ntp328
Rp329
(lp330
g2
(g24
g4
Ntp331
Rp332
(lp333
g2
(g28
g4
Ntp334
Rp335
(lp336
I0
ag2
(g32
g4
Ntp337
Rp338
(lp339
I0
aI0
abag171
abag2
(g37
g4
Ntp340
Rp341
(lp342
g2
(g41
g4
Ntp343
Rp344
(lp345
F0.5069132714754178
aF0.004873624607929537
aF0.027077189596690976
abag2
(g45
g4
Ntp346
Rp347
(lp348
F0.9995143312059889
aF-0.02583181235790082
aF0.016166211683465017
aF-0.006517114695673689
abababaF0.12039999999999998
aF-1.0
aF5.3
aF10.0
abag2
(g152
g4
Ntp349
Rp350
(lp351
g2
(g24
g4
Ntp352
Rp353
(lp354
g2
(g28
g4
Ntp355
Rp356
(lp357
I0
ag2
(g32
g4
Ntp358
Rp359
(lp360
I0
aI0
abag171
abag2
(g37
g4
Ntp361
Rp362
(lp363
g2
(g41
g4
Ntp364
Rp365
(lp366
F0.5069132714754178
aF0.004873624607929537
aF0.027077189596690976
abag2
(g45
g4
Ntp367
Rp368
(lp369
F0.9995143312059889
aF-0.02583181235790082
aF0.016166211683465017
aF-0.006517114695673689
abababaF0.12039999999999998
aF-1.0
aF5.0
aF10.0
abag2
(g152
g4
Ntp370
Rp371
(lp372
g2
(g24
g4
Ntp373
Rp374
(lp375
g2
(g28
g4
Ntp376
Rp377
(lp378
I0
ag2
(g32
g4
Ntp379
Rp380
(lp381
I0
aI0
abag171
abag2
(g37
g4
Ntp382
Rp383
(lp384
g2
(g41
g4
Ntp385
Rp386
(lp387
F0.5069132714754178
aF0.004873624607929537
aF0.027077189596690976
abag2
(g45
g4
Ntp388
Rp389
(lp390
F0.9995143312059889
aF-0.02583181235790082
aF0.016166211683465017
aF-0.006517114695673689
abababaF0.057999999999999996
aF-1.0
aF5.0
aF10.0
abasS'starting_gripper_state_index'
p391
I0
sS'parameters_update_history'
p392
(dp393
g139
(lp394
F0.054250320305593694
aF0.0532
aF0.1924
aF0.12039999999999998
aF0.057999999999999996
asg133
(lp395
F13.388195394486063
aF13.1
aF8.6
aF7.4
aF6.2
aF5.3
aF5.0
asS'pose'
p396
(lp397
g2
(g24
g4
Ntp398
Rp399
(lp400
g2
(g28
g4
Ntp401
Rp402
(lp403
I0
ag2
(g32
g4
Ntp404
Rp405
(lp406
I0
aI0
abag171
abag2
(g37
g4
Ntp407
Rp408
(lp409
g2
(g41
g4
Ntp410
Rp411
(lp412
F0.5069132714754178
aF0.004873624607929537
aF0.027077189596690976
abag2
(g45
g4
Ntp413
Rp414
(lp415
F0.9995143312059889
aF-0.02583181235790082
aF0.016166211683465017
aF-0.006517114695673689
abababasS'rotation_speed'
p416
(lp417
F-1.0
asS'torque_threshold'
p418
(lp419
F10.0
assS'parameter_container'
p420
g2
(g152
g4
Ntp421
Rp422
(lp423
g2
(g24
g4
Ntp424
Rp425
(lp426
g2
(g28
g4
Ntp427
Rp428
(lp429
I0
ag2
(g32
g4
Ntp430
Rp431
(lp432
I0
aI0
abag171
abag2
(g37
g4
Ntp433
Rp434
(lp435
g2
(g41
g4
Ntp436
Rp437
(lp438
F0.5069132714754178
aF0.004873624607929537
aF0.027077189596690976
abag2
(g45
g4
Ntp439
Rp440
(lp441
F0.9995143312059889
aF-0.02583181235790082
aF0.016166211683465017
aF-0.006517114695673689
abababaF0.057999999999999996
aF-1.0
aF5.0
aF10.0
absbag2
(g10
g4
Ntp442
Rp443
(dp444
g125
g128
sg129
I01
sg20
S'A Apply Force (with) Fingers primitive'
p445
sg131
(dp446
g113
(lp447
(lp448
F20.0
aF60.0
aa(lp449
F20.0
aF24.8
aa(lp450
F20.0
aF20.8
aassg145
I1
sg146
(lp451
S'force'
p452
asg151
cpanda_pbd.srv._ApplyForceFingers
ApplyForceFingersRequest
p453
sg153
(dp454
g113
(lp455
F20.0
aF60.0
assg157
(lp456
g2
(g453
g4
Ntp457
Rp458
(lp459
F57.75071148326976
abag2
(g453
g4
Ntp460
Rp461
(lp462
F57.6
abag2
(g453
g4
Ntp463
Rp464
(lp465
F22.4
abag2
(g453
g4
Ntp466
Rp467
(lp468
F20.0
abag2
(g453
g4
Ntp469
Rp470
(lp471
F20.0
abasg391
I0
sg392
(dp472
g113
(lp473
F57.75071148326976
aF57.6
aF22.4
aF20.0
aF20.0
assg420
g2
(g453
g4
Ntp474
Rp475
(lp476
F20.0
absbag2
(g14
g4
Ntp477
Rp478
(dp479
g125
g128
sg129
I01
sg20
S'A Move to End-Effector primitive'
p480
sg131
(dp481
g139
(lp482
(lp483
F0.01
aF0.35
aa(lp484
F0.248
aF0.282
aa(lp485
F0.248
aF0.282
aa(lp486
F0.248
aF0.282
aassg145
I1
sg146
(lp487
g148
asg151
cpanda_pbd.msg._MoveToEEGoal
MoveToEEGoal
p488
sg153
(dp489
g139
(lp490
F0.01
aF0.35
assg157
(lp491
g2
(g488
g4
Ntp492
Rp493
(lp494
g2
(g24
g4
Ntp495
Rp496
(lp497
g2
(g28
g4
Ntp498
Rp499
(lp500
I0
ag2
(g32
g4
Ntp501
Rp502
(lp503
I0
aI0
abag77
abag2
(g37
g4
Ntp504
Rp505
(lp506
g2
(g41
g4
Ntp507
Rp508
(lp509
F0.6404225030201885
aF-0.21899515188976365
aF0.31947401035356376
abag2
(g45
g4
Ntp510
Rp511
(lp512
F0.8476936441278499
aF-0.15503337362532482
aF0.5028616917286283
aF0.06715845262823286
abababaF0.024078488678578112
aF-1.0
abag2
(g488
g4
Ntp513
Rp514
(lp515
g2
(g24
g4
Ntp516
Rp517
(lp518
g2
(g28
g4
Ntp519
Rp520
(lp521
I0
ag2
(g32
g4
Ntp522
Rp523
(lp524
I0
aI0
abag77
abag2
(g37
g4
Ntp525
Rp526
(lp527
g2
(g41
g4
Ntp528
Rp529
(lp530
F0.6404225030201885
aF-0.21899515188976365
aF0.31947401035356376
abag2
(g45
g4
Ntp531
Rp532
(lp533
F0.8476936441278499
aF-0.15503337362532482
aF0.5028616917286283
aF0.06715845262823286
abababaF0.0236
aF-1.0
abag2
(g488
g4
Ntp534
Rp535
(lp536
g2
(g24
g4
Ntp537
Rp538
(lp539
g2
(g28
g4
Ntp540
Rp541
(lp542
I0
ag2
(g32
g4
Ntp543
Rp544
(lp545
I0
aI0
abag77
abag2
(g37
g4
Ntp546
Rp547
(lp548
g2
(g41
g4
Ntp549
Rp550
(lp551
F0.6404225030201885
aF-0.21899515188976365
aF0.31947401035356376
abag2
(g45
g4
Ntp552
Rp553
(lp554
F0.8476936441278499
aF-0.15503337362532482
aF0.5028616917286283
aF0.06715845262823286
abababaF0.26839999999999997
aF-1.0
abag2
(g488
g4
Ntp555
Rp556
(lp557
g2
(g24
g4
Ntp558
Rp559
(lp560
g2
(g28
g4
Ntp561
Rp562
(lp563
I0
ag2
(g32
g4
Ntp564
Rp565
(lp566
I0
aI0
abag77
abag2
(g37
g4
Ntp567
Rp568
(lp569
g2
(g41
g4
Ntp570
Rp571
(lp572
F0.6404225030201885
aF-0.21899515188976365
aF0.31947401035356376
abag2
(g45
g4
Ntp573
Rp574
(lp575
F0.8476936441278499
aF-0.15503337362532482
aF0.5028616917286283
aF0.06715845262823286
abababaF0.26839999999999997
aF-1.0
abag2
(g488
g4
Ntp576
Rp577
(lp578
g2
(g24
g4
Ntp579
Rp580
(lp581
g2
(g28
g4
Ntp582
Rp583
(lp584
I0
ag2
(g32
g4
Ntp585
Rp586
(lp587
I0
aI0
abag77
abag2
(g37
g4
Ntp588
Rp589
(lp590
g2
(g41
g4
Ntp591
Rp592
(lp593
F0.6404225030201885
aF-0.21899515188976365
aF0.31947401035356376
abag2
(g45
g4
Ntp594
Rp595
(lp596
F0.8476936441278499
aF-0.15503337362532482
aF0.5028616917286283
aF0.06715845262823286
abababaF0.26839999999999997
aF-1.0
abasg391
I1
sg392
(dp597
g139
(lp598
F0.024078488678578112
aF0.0236
aF0.26839999999999997
aF0.26839999999999997
aF0.26839999999999997
asg396
(lp599
g2
(g24
g4
Ntp600
Rp601
(lp602
g2
(g28
g4
Ntp603
Rp604
(lp605
I0
ag2
(g32
g4
Ntp606
Rp607
(lp608
I0
aI0
abag77
abag2
(g37
g4
Ntp609
Rp610
(lp611
g2
(g41
g4
Ntp612
Rp613
(lp614
F0.6404225030201885
aF-0.21899515188976365
aF0.31947401035356376
abag2
(g45
g4
Ntp615
Rp616
(lp617
F0.8476936441278499
aF-0.15503337362532482
aF0.5028616917286283
aF0.06715845262823286
abababasg416
(lp618
F-1.0
assg420
g2
(g488
g4
Ntp619
Rp620
(lp621
g69
aF0.26839999999999997
aF-1.0
absbag2
(g12
g4
Ntp622
Rp623
(dp624
g125
g128
sg129
I01
sg20
S'A User Synchronization primitive'
p625
sg131
(dp626
g133
(lp627
(lp628
F5.0
aF30.0
aa(lp629
F5.0
aF5.5
aa(lp630
F11.0
aF15.5
aa(lp631
F5.0
aF7.0
aassg145
I2
sg146
(lp632
sg151
cpanda_pbd.msg._UserSyncGoal
UserSyncGoal
p633
sg153
(dp634
g133
(lp635
F5.0
aF30.0
assg157
(lp636
g2
(g633
g4
Ntp637
Rp638
(lp639
F27.828878500376035
abag2
(g633
g4
Ntp640
Rp641
(lp642
F27.5
abag2
(g633
g4
Ntp643
Rp644
(lp645
F5.0
abag2
(g633
g4
Ntp646
Rp647
(lp648
F12.5
abag2
(g633
g4
Ntp649
Rp650
(lp651
F6.0
abasg391
I1
sg392
(dp652
g133
(lp653
F27.828878500376035
aF27.5
aF5.0
aF12.5
aF6.0
assg420
g2
(g633
g4
Ntp654
Rp655
(lp656
F6.0
absbag2
(g18
g4
Ntp657
Rp658
(dp659
g125
g128
sg129
I01
sg20
S'A Move Fingers primitive'
p660
sg131
(dp661
g112
(lp662
(lp663
F0.04758337885141373
aF0.08
aa(lp664
F0.04758337885141373
aF0.0608
aassg145
I2
sg146
(lp665
S'width'
p666
asg151
cpanda_pbd.srv._MoveFingers
MoveFingersRequest
p667
sg153
(dp668
g666
(lp669
F0.04758337885141373
aF0.08
assg157
(lp670
g2
(g667
g4
Ntp671
Rp672
(lp673
F0.07744750292069491
abag2
(g667
g4
Ntp674
Rp675
(lp676
F0.07680000000000001
abag2
(g667
g4
Ntp677
Rp678
(lp679
F0.054400000000000004
abasg391
I1
sg392
(dp680
g112
(lp681
F0.07744750292069491
aF0.07680000000000001
aF0.054400000000000004
assg420
g2
(g667
g4
Ntp682
Rp683
(lp684
F0.054400000000000004
absbag2
(g14
g4
Ntp685
Rp686
(dp687
g125
g128
sg129
I01
sg20
g480
sg131
(dp688
g139
(lp689
(lp690
F0.01
aF0.35
aa(lp691
F0.3364
aF0.35
aa(lp692
F0.3364
aF0.35
aa(lp693
F0.3364
aF0.35
aassg145
I2
sg146
(lp694
g148
asg151
g488
sg153
g489
sg157
(lp695
g2
(g488
g4
Ntp696
Rp697
(lp698
g2
(g24
g4
Ntp699
Rp700
(lp701
g2
(g28
g4
Ntp702
Rp703
(lp704
I0
ag2
(g32
g4
Ntp705
Rp706
(lp707
I0
aI0
abag96
abag2
(g37
g4
Ntp708
Rp709
(lp710
g2
(g41
g4
Ntp711
Rp712
(lp713
F0.48697273191184176
aF-0.0003249795766055996
aF0.3672047165651558
abag2
(g45
g4
Ntp714
Rp715
(lp716
F0.9986485219265587
aF-0.028677903984510297
aF0.042164274523526495
aF-0.010043974853580964
abababaF0.0695518234969287
aF-1.0
abag2
(g488
g4
Ntp717
Rp718
(lp719
g2
(g24
g4
Ntp720
Rp721
(lp722
g2
(g28
g4
Ntp723
Rp724
(lp725
I0
ag2
(g32
g4
Ntp726
Rp727
(lp728
I0
aI0
abag96
abag2
(g37
g4
Ntp729
Rp730
(lp731
g2
(g41
g4
Ntp732
Rp733
(lp734
F0.48697273191184176
aF-0.0003249795766055996
aF0.3672047165651558
abag2
(g45
g4
Ntp735
Rp736
(lp737
F0.9986485219265587
aF-0.028677903984510297
aF0.042164274523526495
aF-0.010043974853580964
abababaF0.0644
aF-1.0
abag2
(g488
g4
Ntp738
Rp739
(lp740
g2
(g24
g4
Ntp741
Rp742
(lp743
g2
(g28
g4
Ntp744
Rp745
(lp746
I0
ag2
(g32
g4
Ntp747
Rp748
(lp749
I0
aI0
abag96
abag2
(g37
g4
Ntp750
Rp751
(lp752
g2
(g41
g4
Ntp753
Rp754
(lp755
F0.48697273191184176
aF-0.0003249795766055996
aF0.3672047165651558
abag2
(g45
g4
Ntp756
Rp757
(lp758
F0.9986485219265587
aF-0.028677903984510297
aF0.042164274523526495
aF-0.010043974853580964
abababaF0.35
aF-1.0
abag2
(g488
g4
Ntp759
Rp760
(lp761
g2
(g24
g4
Ntp762
Rp763
(lp764
g2
(g28
g4
Ntp765
Rp766
(lp767
I0
ag2
(g32
g4
Ntp768
Rp769
(lp770
I0
aI0
abag96
abag2
(g37
g4
Ntp771
Rp772
(lp773
g2
(g41
g4
Ntp774
Rp775
(lp776
F0.48697273191184176
aF-0.0003249795766055996
aF0.3672047165651558
abag2
(g45
g4
Ntp777
Rp778
(lp779
F0.9986485219265587
aF-0.028677903984510297
aF0.042164274523526495
aF-0.010043974853580964
abababaF0.35
aF-1.0
abag2
(g488
g4
Ntp780
Rp781
(lp782
g2
(g24
g4
Ntp783
Rp784
(lp785
g2
(g28
g4
Ntp786
Rp787
(lp788
I0
ag2
(g32
g4
Ntp789
Rp790
(lp791
I0
aI0
abag96
abag2
(g37
g4
Ntp792
Rp793
(lp794
g2
(g41
g4
Ntp795
Rp796
(lp797
F0.48697273191184176
aF-0.0003249795766055996
aF0.3672047165651558
abag2
(g45
g4
Ntp798
Rp799
(lp800
F0.9986485219265587
aF-0.028677903984510297
aF0.042164274523526495
aF-0.010043974853580964
abababaF0.35
aF-1.0
abasg391
I2
sg392
(dp801
g139
(lp802
F0.0695518234969287
aF0.0644
aF0.35
aF0.35
aF0.35
asg396
(lp803
g2
(g24
g4
Ntp804
Rp805
(lp806
g2
(g28
g4
Ntp807
Rp808
(lp809
I0
ag2
(g32
g4
Ntp810
Rp811
(lp812
I0
aI0
abag96
abag2
(g37
g4
Ntp813
Rp814
(lp815
g2
(g41
g4
Ntp816
Rp817
(lp818
F0.48697273191184176
aF-0.0003249795766055996
aF0.3672047165651558
abag2
(g45
g4
Ntp819
Rp820
(lp821
F0.9986485219265587
aF-0.028677903984510297
aF0.042164274523526495
aF-0.010043974853580964
abababasg416
(lp822
F-1.0
assg420
g2
(g488
g4
Ntp823
Rp824
(lp825
g88
aF0.35
aF-1.0
absbasS'name'
p826
S'A Panda Program'
p827
sbsS'wallclock_time'
p828
F1172.3557670116425
sS'execution_timeseries'
p829
(lp830
F1567667869.15555
aF1567667965.637127
aF1567668000.891952
aF1567668035.904261
aF1567668064.281045
aF1567668093.226935
aF1567668120.575309
aF1567668156.220982
aF1567668192.572371
aF1567668225.345372
aF1567668247.381491
aF1567668325.000611
aF1567668335.352206
aF1567668404.169686
aF1567668421.871453
aF1567668479.728742
aF1567668523.001547
aF1567668533.48556
aF1567668573.806018
aF1567668613.991689
aF1567668638.494679
aF1567668654.872968
aF1567668687.77668
aF1567668724.417166
aF1567668734.206126
aF1567668738.956114
aF1567668745.062574
aF1567668751.470264
aF1567668755.249694
aF1567668825.434213
aF1567668850.205449
aF1567668860.822086
aF1567668867.671448
aF1567668898.16213
aF1567668981.429982
asS'tuning_timeseries'
p831
(lp832
F1567667869.155545
aF1567667965.621799
aF1567668000.879244
aF1567668035.878183
aF1567668064.269232
aF1567668093.21173
aF1567668120.562447
aF1567668156.202992
aF1567668192.560381
aF1567668225.326807
aF1567668247.362429
aF1567668325.000606
aF1567668335.34006
aF1567668404.150282
aF1567668421.853653
aF1567668479.711225
aF1567668522.987472
aF1567668533.465464
aF1567668613.977726
aF1567668654.853073
aF1567668687.759119
aF1567668738.945091
aF1567668755.237406
aF1567668825.410451
aF1567668867.656477
aF1567668898.139098
as.