ccopy_reg
_reconstructor
p0
(cpanda_eup.panda_primitive
PandaProgram
p1
c__builtin__
object
p2
Ntp3
Rp4
(dp5
S'effect_of_primitive'
p6
(dp7
cpanda_eup.panda_primitive
ApplyForceFingers
p8
(lp9
I00
aI01
ascpanda_eup.panda_primitive
MoveToEE
p10
(lp11
I01
aI00
ascpanda_eup.panda_primitive
UserSync
p12
(lp13
I00
aI00
ascpanda_eup.panda_primitive
MoveToContact
p14
(lp15
I01
aI00
ascpanda_eup.panda_primitive
MoveFingers
p16
(lp17
I00
aI01
assS'description'
p18
S'Empty Description'
p19
sS'arm_state_list'
p20
(lp21
g0
(cgeometry_msgs.msg._PoseStamped
PoseStamped
p22
g2
Ntp23
Rp24
(lp25
g0
(cstd_msgs.msg._Header
Header
p26
g2
Ntp27
Rp28
(lp29
I0
ag0
(cgenpy.rostime
Time
p30
g2
Ntp31
Rp32
(lp33
I0
aI0
abaS'panda_link0'
p34
abag0
(cgeometry_msgs.msg._Pose
Pose
p35
g2
Ntp36
Rp37
(lp38
g0
(cgeometry_msgs.msg._Point
Point
p39
g2
Ntp40
Rp41
(lp42
F0.4833974233623748
aF0.007318751177980708
aF0.3904495689279949
abag0
(cgeometry_msgs.msg._Quaternion
Quaternion
p43
g2
Ntp44
Rp45
(lp46
F0.9993500431690824
aF-0.014042189921340717
aF-0.02007113406023331
aF-0.026447262574839425
abababag0
(g22
g2
Ntp47
Rp48
(lp49
g0
(g26
g2
Ntp50
Rp51
(lp52
I0
ag0
(g30
g2
Ntp53
Rp54
(lp55
I0
aI0
abaS'panda_link0'
p56
abag0
(g35
g2
Ntp57
Rp58
(lp59
g0
(g39
g2
Ntp60
Rp61
(lp62
F0.4989642687072333
aF0.004025768476922362
aF0.02292734246391548
abag0
(g43
g2
Ntp63
Rp64
(lp65
F0.9990447072054562
aF-0.027562001109972235
aF0.010782419907816013
aF-0.03215195982377522
abababag0
(g22
g2
Ntp66
Rp67
(lp68
g0
(g26
g2
Ntp69
Rp70
(lp71
I0
ag0
(g30
g2
Ntp72
Rp73
(lp74
I0
aI0
abaS'panda_link0'
p75
abag0
(g35
g2
Ntp76
Rp77
(lp78
g0
(g39
g2
Ntp79
Rp80
(lp81
F0.6404225030201885
aF-0.21899515188976365
aF0.31947401035356376
abag0
(g43
g2
Ntp82
Rp83
(lp84
F0.8476936441278499
aF-0.15503337362532482
aF0.5028616917286283
aF0.06715845262823286
abababag0
(g22
g2
Ntp85
Rp86
(lp87
g0
(g26
g2
Ntp88
Rp89
(lp90
I0
ag0
(g30
g2
Ntp91
Rp92
(lp93
I0
aI0
abaS'panda_link0'
p94
abag0
(g35
g2
Ntp95
Rp96
(lp97
g0
(g39
g2
Ntp98
Rp99
(lp100
F0.48697273191184176
aF-0.0003249795766055996
aF0.3672047165651558
abag0
(g43
g2
Ntp101
Rp102
(lp103
F0.9986485219265587
aF-0.028677903984510297
aF0.042164274523526495
aF-0.010043974853580964
abababasS'gripper_state_list'
p104
(lp105
g0
(cpanda_eup.panda_primitive
GripperState
p106
g2
Ntp107
Rp108
(dp109
S'width'
p110
F0.08
sS'force'
p111
F0.0
sbag0
(g106
g2
Ntp112
Rp113
(dp114
g110
F0.031915970146656036
sg111
F43.2
sbag0
(g106
g2
Ntp115
Rp116
(dp117
g110
F0.05183004215359688
sg111
F0.0
sbasS'primitives'
p118
(lp119
g0
(g14
g2
Ntp120
Rp121
(dp122
S'status'
p123
cpanda_eup.panda_primitive
PandaPrimitiveStatus
p124
(I1
tp125
Rp126
sS'revertible'
p127
I01
sg18
S'A Move to Contact primitive'
p128
sS'starting_arm_state_index'
p129
I0
sS'parameters_with_effects_on_robot_state'
p130
(lp131
S'pose'
p132
aS'force_threshold'
p133
aS'torque_threshold'
p134
asS'expected_container'
p135
cpanda_pbd.msg._MoveToContactGoal
MoveToContactGoal
p136
sS'gui_tunable_parameter_strict_ranges'
p137
(dp138
S'force_threshold'
p139
(lp140
F5.0
aF20.0
asS'position_speed'
p141
(lp142
F0.01
aF0.25
assS'container_update_history'
p143
(lp144
g0
(g136
g2
Ntp145
Rp146
(lp147
g0
(g22
g2
Ntp148
Rp149
(lp150
g0
(g26
g2
Ntp151
Rp152
(lp153
I0
ag0
(g30
g2
Ntp154
Rp155
(lp156
I0
aI0
abaS'panda_link0'
p157
abag0
(g35
g2
Ntp158
Rp159
(lp160
g0
(g39
g2
Ntp161
Rp162
(lp163
F0.5069132714754178
aF0.004873624607929537
aF0.027077189596690976
abag0
(g43
g2
Ntp164
Rp165
(lp166
F0.9995143312059889
aF-0.02583181235790082
aF0.016166211683465017
aF-0.006517114695673689
abababaF0.07
aF-1.0
aF10.0
aF10.0
abag0
(g136
g2
Ntp167
Rp168
(lp169
g0
(g22
g2
Ntp170
Rp171
(lp172
g0
(g26
g2
Ntp173
Rp174
(lp175
I0
ag0
(g30
g2
Ntp176
Rp177
(lp178
I0
aI0
abag157
abag0
(g35
g2
Ntp179
Rp180
(lp181
g0
(g39
g2
Ntp182
Rp183
(lp184
F0.5069132714754178
aF0.004873624607929537
aF0.027077189596690976
abag0
(g43
g2
Ntp185
Rp186
(lp187
F0.9995143312059889
aF-0.02583181235790082
aF0.016166211683465017
aF-0.006517114695673689
abababaF0.20138927100621057
aF-1.0
aF10.0
aF10.0
abag0
(g136
g2
Ntp188
Rp189
(lp190
g0
(g22
g2
Ntp191
Rp192
(lp193
g0
(g26
g2
Ntp194
Rp195
(lp196
I0
ag0
(g30
g2
Ntp197
Rp198
(lp199
I0
aI0
abag157
abag0
(g35
g2
Ntp200
Rp201
(lp202
g0
(g39
g2
Ntp203
Rp204
(lp205
F0.5069132714754178
aF0.004873624607929537
aF0.027077189596690976
abag0
(g43
g2
Ntp206
Rp207
(lp208
F0.9995143312059889
aF-0.02583181235790082
aF0.016166211683465017
aF-0.006517114695673689
abababaF0.20138927100621057
aF-1.0
aF5.7225612094452
aF10.0
abag0
(g136
g2
Ntp209
Rp210
(lp211
g0
(g22
g2
Ntp212
Rp213
(lp214
g0
(g26
g2
Ntp215
Rp216
(lp217
I0
ag0
(g30
g2
Ntp218
Rp219
(lp220
I0
aI0
abag157
abag0
(g35
g2
Ntp221
Rp222
(lp223
g0
(g39
g2
Ntp224
Rp225
(lp226
F0.5069132714754178
aF0.004873624607929537
aF0.027077189596690976
abag0
(g43
g2
Ntp227
Rp228
(lp229
F0.9995143312059889
aF-0.02583181235790082
aF0.016166211683465017
aF-0.006517114695673689
abababaF0.20138927100621057
aF-1.0
aF7.1
aF10.0
abag0
(g136
g2
Ntp230
Rp231
(lp232
g0
(g22
g2
Ntp233
Rp234
(lp235
g0
(g26
g2
Ntp236
Rp237
(lp238
I0
ag0
(g30
g2
Ntp239
Rp240
(lp241
I0
aI0
abag157
abag0
(g35
g2
Ntp242
Rp243
(lp244
g0
(g39
g2
Ntp245
Rp246
(lp247
F0.5069132714754178
aF0.004873624607929537
aF0.027077189596690976
abag0
(g43
g2
Ntp248
Rp249
(lp250
F0.9995143312059889
aF-0.02583181235790082
aF0.016166211683465017
aF-0.006517114695673689
abababaF0.1972
aF-1.0
aF7.1
aF10.0
abag0
(g136
g2
Ntp251
Rp252
(lp253
g0
(g22
g2
Ntp254
Rp255
(lp256
g0
(g26
g2
Ntp257
Rp258
(lp259
I0
ag0
(g30
g2
Ntp260
Rp261
(lp262
I0
aI0
abag157
abag0
(g35
g2
Ntp263
Rp264
(lp265
g0
(g39
g2
Ntp266
Rp267
(lp268
F0.5069132714754178
aF0.004873624607929537
aF0.027077189596690976
abag0
(g43
g2
Ntp269
Rp270
(lp271
F0.9995143312059889
aF-0.02583181235790082
aF0.016166211683465017
aF-0.006517114695673689
abababaF0.1972
aF-1.0
aF5.0
aF10.0
abag0
(g136
g2
Ntp272
Rp273
(lp274
g0
(g22
g2
Ntp275
Rp276
(lp277
g0
(g26
g2
Ntp278
Rp279
(lp280
I0
ag0
(g30
g2
Ntp281
Rp282
(lp283
I0
aI0
abag157
abag0
(g35
g2
Ntp284
Rp285
(lp286
g0
(g39
g2
Ntp287
Rp288
(lp289
F0.5069132714754178
aF0.004873624607929537
aF0.027077189596690976
abag0
(g43
g2
Ntp290
Rp291
(lp292
F0.9995143312059889
aF-0.02583181235790082
aF0.016166211683465017
aF-0.006517114695673689
abababaF0.1828
aF-1.0
aF5.0
aF10.0
abag0
(g136
g2
Ntp293
Rp294
(lp295
g0
(g22
g2
Ntp296
Rp297
(lp298
g0
(g26
g2
Ntp299
Rp300
(lp301
I0
ag0
(g30
g2
Ntp302
Rp303
(lp304
I0
aI0
abag157
abag0
(g35
g2
Ntp305
Rp306
(lp307
g0
(g39
g2
Ntp308
Rp309
(lp310
F0.5069132714754178
aF0.004873624607929537
aF0.027077189596690976
abag0
(g43
g2
Ntp311
Rp312
(lp313
F0.9995143312059889
aF-0.02583181235790082
aF0.016166211683465017
aF-0.006517114695673689
abababaF0.1636
aF-1.0
aF5.0
aF10.0
abasS'starting_gripper_state_index'
p314
I0
sS'parameters_update_history'
p315
(dp316
g133
(lp317
F10.0
aF5.7225612094452
aF7.1
aF5.0
asS'position_speed'
p318
(lp319
F0.07
aF0.20138927100621057
aF0.1972
aF0.1828
aF0.1636
asS'rotation_speed'
p320
(lp321
F-1.0
asg134
(lp322
F10.0
asg132
(lp323
g0
(g22
g2
Ntp324
Rp325
(lp326
g0
(g26
g2
Ntp327
Rp328
(lp329
I0
ag0
(g30
g2
Ntp330
Rp331
(lp332
I0
aI0
abag157
abag0
(g35
g2
Ntp333
Rp334
(lp335
g0
(g39
g2
Ntp336
Rp337
(lp338
F0.5069132714754178
aF0.004873624607929537
aF0.027077189596690976
abag0
(g43
g2
Ntp339
Rp340
(lp341
F0.9995143312059889
aF-0.02583181235790082
aF0.016166211683465017
aF-0.006517114695673689
abababassS'parameter_container'
p342
g0
(g136
g2
Ntp343
Rp344
(lp345
g0
(g22
g2
Ntp346
Rp347
(lp348
g0
(g26
g2
Ntp349
Rp350
(lp351
I0
ag0
(g30
g2
Ntp352
Rp353
(lp354
I0
aI0
abag157
abag0
(g35
g2
Ntp355
Rp356
(lp357
g0
(g39
g2
Ntp358
Rp359
(lp360
F0.5069132714754178
aF0.004873624607929537
aF0.027077189596690976
abag0
(g43
g2
Ntp361
Rp362
(lp363
F0.9995143312059889
aF-0.02583181235790082
aF0.016166211683465017
aF-0.006517114695673689
abababaF0.1636
aF-1.0
aF5.0
aF10.0
absbag0
(g8
g2
Ntp364
Rp365
(dp366
g123
g126
sg127
I01
sg18
S'A Apply Force (with) Fingers primitive'
p367
sg129
I1
sg130
(lp368
S'force'
p369
asg135
cpanda_pbd.srv._ApplyForceFingers
ApplyForceFingersRequest
p370
sg137
(dp371
g111
(lp372
F20.0
aF60.0
assg143
(lp373
g0
(g370
g2
Ntp374
Rp375
(lp376
F20.0
abag0
(g370
g2
Ntp377
Rp378
(lp379
F54.095141373218006
abag0
(g370
g2
Ntp380
Rp381
(lp382
F43.2
abasg314
I0
sg315
(dp383
g369
(lp384
F20.0
aF54.095141373218006
aF43.2
assg342
g0
(g370
g2
Ntp385
Rp386
(lp387
F43.2
absbag0
(g10
g2
Ntp388
Rp389
(dp390
g123
g126
sg127
I01
sg18
S'A Move to End-Effector primitive'
p391
sg129
I1
sg130
(lp392
g132
asg135
cpanda_pbd.msg._MoveToEEGoal
MoveToEEGoal
p393
sg137
(dp394
g141
(lp395
F0.01
aF0.35
assg143
(lp396
g0
(g393
g2
Ntp397
Rp398
(lp399
g0
(g22
g2
Ntp400
Rp401
(lp402
g0
(g26
g2
Ntp403
Rp404
(lp405
I0
ag0
(g30
g2
Ntp406
Rp407
(lp408
I0
aI0
abag75
abag0
(g35
g2
Ntp409
Rp410
(lp411
g0
(g39
g2
Ntp412
Rp413
(lp414
F0.6404225030201885
aF-0.21899515188976365
aF0.31947401035356376
abag0
(g43
g2
Ntp415
Rp416
(lp417
F0.8476936441278499
aF-0.15503337362532482
aF0.5028616917286283
aF0.06715845262823286
abababaF0.07
aF-1.0
abag0
(g393
g2
Ntp418
Rp419
(lp420
g0
(g22
g2
Ntp421
Rp422
(lp423
g0
(g26
g2
Ntp424
Rp425
(lp426
I0
ag0
(g30
g2
Ntp427
Rp428
(lp429
I0
aI0
abag75
abag0
(g35
g2
Ntp430
Rp431
(lp432
g0
(g39
g2
Ntp433
Rp434
(lp435
F0.6404225030201885
aF-0.21899515188976365
aF0.31947401035356376
abag0
(g43
g2
Ntp436
Rp437
(lp438
F0.8476936441278499
aF-0.15503337362532482
aF0.5028616917286283
aF0.06715845262823286
abababaF0.15863511155944904
aF-1.0
abag0
(g393
g2
Ntp439
Rp440
(lp441
g0
(g22
g2
Ntp442
Rp443
(lp444
g0
(g26
g2
Ntp445
Rp446
(lp447
I0
ag0
(g30
g2
Ntp448
Rp449
(lp450
I0
aI0
abag75
abag0
(g35
g2
Ntp451
Rp452
(lp453
g0
(g39
g2
Ntp454
Rp455
(lp456
F0.6404225030201885
aF-0.21899515188976365
aF0.31947401035356376
abag0
(g43
g2
Ntp457
Rp458
(lp459
F0.8476936441278499
aF-0.15503337362532482
aF0.5028616917286283
aF0.06715845262823286
abababaF0.2344
aF-1.0
abasg314
I1
sg315
(dp460
g318
(lp461
F0.07
aF0.15863511155944904
aF0.2344
asg320
(lp462
F-1.0
asg132
(lp463
g0
(g22
g2
Ntp464
Rp465
(lp466
g0
(g26
g2
Ntp467
Rp468
(lp469
I0
ag0
(g30
g2
Ntp470
Rp471
(lp472
I0
aI0
abag75
abag0
(g35
g2
Ntp473
Rp474
(lp475
g0
(g39
g2
Ntp476
Rp477
(lp478
F0.6404225030201885
aF-0.21899515188976365
aF0.31947401035356376
abag0
(g43
g2
Ntp479
Rp480
(lp481
F0.8476936441278499
aF-0.15503337362532482
aF0.5028616917286283
aF0.06715845262823286
abababassg342
g0
(g393
g2
Ntp482
Rp483
(lp484
g67
aF0.2344
aF-1.0
absbag0
(g12
g2
Ntp485
Rp486
(dp487
g123
g126
sg127
I01
sg18
S'A User Synchronization primitive'
p488
sg129
I2
sg130
(lp489
sg135
cpanda_pbd.msg._UserSyncGoal
UserSyncGoal
p490
sg137
(dp491
g139
(lp492
F5.0
aF30.0
assg143
(lp493
g0
(g490
g2
Ntp494
Rp495
(lp496
F10.0
abag0
(g490
g2
Ntp497
Rp498
(lp499
F8.03120360861203
abag0
(g490
g2
Ntp500
Rp501
(lp502
F5.0
abasg314
I1
sg315
(dp503
g133
(lp504
F10.0
aF8.03120360861203
aF5.0
assg342
g0
(g490
g2
Ntp505
Rp506
(lp507
F5.0
absbag0
(g16
g2
Ntp508
Rp509
(dp510
g123
g126
sg127
I01
sg18
S'A Move Fingers primitive'
p511
sg129
I2
sg130
(lp512
S'width'
p513
asg135
cpanda_pbd.srv._MoveFingers
MoveFingersRequest
p514
sg137
(dp515
g513
(lp516
F0.04758337885141373
aF0.08
assg143
(lp517
g0
(g514
g2
Ntp518
Rp519
(lp520
F0.04758337885141373
abag0
(g514
g2
Ntp521
Rp522
(lp523
F0.050055059204074534
abag0
(g514
g2
Ntp524
Rp525
(lp526
F0.046400000000000004
abag0
(g514
g2
Ntp527
Rp528
(lp529
F0.0528
abasg314
I1
sg315
(dp530
g513
(lp531
F0.04758337885141373
aF0.050055059204074534
aF0.046400000000000004
aF0.0528
assg342
g0
(g514
g2
Ntp532
Rp533
(lp534
F0.0528
absbag0
(g10
g2
Ntp535
Rp536
(dp537
g123
g126
sg127
I01
sg18
g391
sg129
I2
sg130
(lp538
g132
asg135
g393
sg137
g394
sg143
(lp539
g0
(g393
g2
Ntp540
Rp541
(lp542
g0
(g22
g2
Ntp543
Rp544
(lp545
g0
(g26
g2
Ntp546
Rp547
(lp548
I0
ag0
(g30
g2
Ntp549
Rp550
(lp551
I0
aI0
abag94
abag0
(g35
g2
Ntp552
Rp553
(lp554
g0
(g39
g2
Ntp555
Rp556
(lp557
F0.48697273191184176
aF-0.0003249795766055996
aF0.3672047165651558
abag0
(g43
g2
Ntp558
Rp559
(lp560
F0.9986485219265587
aF-0.028677903984510297
aF0.042164274523526495
aF-0.010043974853580964
abababaF0.07
aF-1.0
abag0
(g393
g2
Ntp561
Rp562
(lp563
g0
(g22
g2
Ntp564
Rp565
(lp566
g0
(g26
g2
Ntp567
Rp568
(lp569
I0
ag0
(g30
g2
Ntp570
Rp571
(lp572
I0
aI0
abag94
abag0
(g35
g2
Ntp573
Rp574
(lp575
g0
(g39
g2
Ntp576
Rp577
(lp578
F0.48697273191184176
aF-0.0003249795766055996
aF0.3672047165651558
abag0
(g43
g2
Ntp579
Rp580
(lp581
F0.9986485219265587
aF-0.028677903984510297
aF0.042164274523526495
aF-0.010043974853580964
abababaF0.23629835044920428
aF-1.0
abag0
(g393
g2
Ntp582
Rp583
(lp584
g0
(g22
g2
Ntp585
Rp586
(lp587
g0
(g26
g2
Ntp588
Rp589
(lp590
I0
ag0
(g30
g2
Ntp591
Rp592
(lp593
I0
aI0
abag94
abag0
(g35
g2
Ntp594
Rp595
(lp596
g0
(g39
g2
Ntp597
Rp598
(lp599
F0.48697273191184176
aF-0.0003249795766055996
aF0.3672047165651558
abag0
(g43
g2
Ntp600
Rp601
(lp602
F0.9986485219265587
aF-0.028677903984510297
aF0.042164274523526495
aF-0.010043974853580964
abababaF0.2752
aF-1.0
abasg314
I2
sg315
(dp603
g318
(lp604
F0.07
aF0.23629835044920428
aF0.2752
asg320
(lp605
F-1.0
asg132
(lp606
g0
(g22
g2
Ntp607
Rp608
(lp609
g0
(g26
g2
Ntp610
Rp611
(lp612
I0
ag0
(g30
g2
Ntp613
Rp614
(lp615
I0
aI0
abag94
abag0
(g35
g2
Ntp616
Rp617
(lp618
g0
(g39
g2
Ntp619
Rp620
(lp621
F0.48697273191184176
aF-0.0003249795766055996
aF0.3672047165651558
abag0
(g43
g2
Ntp622
Rp623
(lp624
F0.9986485219265587
aF-0.028677903984510297
aF0.042164274523526495
aF-0.010043974853580964
abababassg342
g0
(g393
g2
Ntp625
Rp626
(lp627
g86
aF0.2752
aF-1.0
absbasS'name'
p628
S'A Panda Program'
p629
sb.