ccopy_reg
_reconstructor
p0
(cpanda_eup.panda_primitive
PandaProgram
p1
c__builtin__
object
p2
Ntp3
Rp4
(dp5
S'effect_of_primitive'
p6
(dp7
cpanda_eup.panda_primitive
UserSync
p8
(lp9
I00
aI00
ascpanda_eup.panda_primitive
MoveFingers
p10
(lp11
I00
aI01
ascpanda_eup.panda_primitive
MoveToEE
p12
(lp13
I01
aI00
ascpanda_eup.panda_primitive
MoveToContact
p14
(lp15
I01
aI00
ascpanda_eup.panda_primitive
ApplyForceFingers
p16
(lp17
I00
aI01
assS'description'
p18
S'Empty Description'
p19
sS'arm_state_list'
p20
(lp21
g0
(cgeometry_msgs.msg._PoseStamped
PoseStamped
p22
g2
Ntp23
Rp24
(lp25
g0
(cstd_msgs.msg._Header
Header
p26
g2
Ntp27
Rp28
(lp29
I0
ag0
(cgenpy.rostime
Time
p30
g2
Ntp31
Rp32
(lp33
I0
aI0
abaS'panda_link0'
p34
abag0
(cgeometry_msgs.msg._Pose
Pose
p35
g2
Ntp36
Rp37
(lp38
g0
(cgeometry_msgs.msg._Point
Point
p39
g2
Ntp40
Rp41
(lp42
F0.4510165764388451
aF-0.25451251814105036
aF0.3556417119176069
abag0
(cgeometry_msgs.msg._Quaternion
Quaternion
p43
g2
Ntp44
Rp45
(lp46
F0.7211211619272221
aF-0.6927664377328487
aF-0.0034873344989196893
aF0.0068389377658327165
abababag0
(g22
g2
Ntp47
Rp48
(lp49
g0
(g26
g2
Ntp50
Rp51
(lp52
I0
ag0
(g30
g2
Ntp53
Rp54
(lp55
I0
aI0
abaS'panda_link0'
p56
abag0
(g35
g2
Ntp57
Rp58
(lp59
g0
(g39
g2
Ntp60
Rp61
(lp62
F0.45731330339970816
aF-0.22204124762790467
aF0.12802671441706054
abag0
(g43
g2
Ntp63
Rp64
(lp65
F0.7070758708113997
aF-0.7067034985416127
aF0.014400301817407694
aF0.020162077594167223
abababag0
(g22
g2
Ntp66
Rp67
(lp68
g0
(g26
g2
Ntp69
Rp70
(lp71
I0
ag0
(g30
g2
Ntp72
Rp73
(lp74
I0
aI0
abaS'panda_link0'
p75
abag0
(g35
g2
Ntp76
Rp77
(lp78
g0
(g39
g2
Ntp79
Rp80
(lp81
F0.5313906534561575
aF-0.2283100021383075
aF0.09632848108884426
abag0
(g43
g2
Ntp82
Rp83
(lp84
F0.6791688475698168
aF-0.6490679687518547
aF-0.2476786971801487
aF-0.23684533221951534
abababag0
(g22
g2
Ntp85
Rp86
(lp87
g0
(g26
g2
Ntp88
Rp89
(lp90
I0
ag0
(g30
g2
Ntp91
Rp92
(lp93
I0
aI0
abaS'panda_link0'
p94
abag0
(g35
g2
Ntp95
Rp96
(lp97
g0
(g39
g2
Ntp98
Rp99
(lp100
F0.48522597525926614
aF0.2760220039769015
aF0.06658220792782904
abag0
(g43
g2
Ntp101
Rp102
(lp103
F-0.6684704132562753
aF0.6785119972421104
aF0.22596807729879947
aF0.20422341746575107
abababag0
(g22
g2
Ntp104
Rp105
(lp106
g0
(g26
g2
Ntp107
Rp108
(lp109
I0
ag0
(g30
g2
Ntp110
Rp111
(lp112
I0
aI0
abaS'panda_link0'
p113
abag0
(g35
g2
Ntp114
Rp115
(lp116
g0
(g39
g2
Ntp117
Rp118
(lp119
F0.45994461169103945
aF-0.053965652564801334
aF0.3414368641542338
abag0
(g43
g2
Ntp120
Rp121
(lp122
F0.9989220383304196
aF-0.03026478824798525
aF0.02526619563073721
aF-0.02450353624384985
abababasS'gripper_state_list'
p123
(lp124
g0
(cpanda_eup.panda_primitive
GripperState
p125
g2
Ntp126
Rp127
(dp128
S'width'
p129
F0.08
sS'force'
p130
F0.0
sbasS'primitives'
p131
(lp132
g0
(g12
g2
Ntp133
Rp134
(dp135
S'status'
p136
cpanda_eup.panda_primitive
PandaPrimitiveStatus
p137
(I1
tp138
Rp139
sS'revertible'
p140
I01
sg18
S'A Move to End-Effector primitive'
p141
sS'starting_arm_state_index'
p142
I0
sS'parameters_with_effects_on_robot_state'
p143
(lp144
S'pose'
p145
asS'expected_container'
p146
cpanda_pbd.msg._MoveToEEGoal
MoveToEEGoal
p147
sS'gui_tunable_parameter_strict_ranges'
p148
(dp149
S'position_speed'
p150
(lp151
F0.01
aF0.35
assS'container_update_history'
p152
(lp153
g0
(g147
g2
Ntp154
Rp155
(lp156
g0
(g22
g2
Ntp157
Rp158
(lp159
g0
(g26
g2
Ntp160
Rp161
(lp162
I0
ag0
(g30
g2
Ntp163
Rp164
(lp165
I0
aI0
abag56
abag0
(g35
g2
Ntp166
Rp167
(lp168
g0
(g39
g2
Ntp169
Rp170
(lp171
F0.45731330339970816
aF-0.22204124762790467
aF0.12802671441706054
abag0
(g43
g2
Ntp172
Rp173
(lp174
F0.7070758708113997
aF-0.7067034985416127
aF0.014400301817407694
aF0.020162077594167223
abababaF0.07
aF-1.0
abag0
(g147
g2
Ntp175
Rp176
(lp177
g0
(g22
g2
Ntp178
Rp179
(lp180
g0
(g26
g2
Ntp181
Rp182
(lp183
I0
ag0
(g30
g2
Ntp184
Rp185
(lp186
I0
aI0
abag56
abag0
(g35
g2
Ntp187
Rp188
(lp189
g0
(g39
g2
Ntp190
Rp191
(lp192
F0.45731330339970816
aF-0.22204124762790467
aF0.12802671441706054
abag0
(g43
g2
Ntp193
Rp194
(lp195
F0.7070758708113997
aF-0.7067034985416127
aF0.014400301817407694
aF0.020162077594167223
abababaF0.30909833195145225
aF-1.0
abag0
(g147
g2
Ntp196
Rp197
(lp198
g0
(g22
g2
Ntp199
Rp200
(lp201
g0
(g26
g2
Ntp202
Rp203
(lp204
I0
ag0
(g30
g2
Ntp205
Rp206
(lp207
I0
aI0
abag56
abag0
(g35
g2
Ntp208
Rp209
(lp210
g0
(g39
g2
Ntp211
Rp212
(lp213
F0.45731330339970816
aF-0.22204124762790467
aF0.12802671441706054
abag0
(g43
g2
Ntp214
Rp215
(lp216
F0.7070758708113997
aF-0.7067034985416127
aF0.014400301817407694
aF0.020162077594167223
abababaF0.3364
aF-1.0
abag0
(g147
g2
Ntp217
Rp218
(lp219
g0
(g22
g2
Ntp220
Rp221
(lp222
g0
(g26
g2
Ntp223
Rp224
(lp225
I0
ag0
(g30
g2
Ntp226
Rp227
(lp228
I0
aI0
abag56
abag0
(g35
g2
Ntp229
Rp230
(lp231
g0
(g39
g2
Ntp232
Rp233
(lp234
F0.45731330339970816
aF-0.22204124762790467
aF0.12802671441706054
abag0
(g43
g2
Ntp235
Rp236
(lp237
F0.7070758708113997
aF-0.7067034985416127
aF0.014400301817407694
aF0.020162077594167223
abababaF0.35
aF-1.0
abasS'starting_gripper_state_index'
p238
I0
sS'parameters_update_history'
p239
(dp240
S'position_speed'
p241
F0.35
sS'rotation_speed'
p242
(lp243
F-1.0
asg145
(lp244
g0
(g22
g2
Ntp245
Rp246
(lp247
g0
(g26
g2
Ntp248
Rp249
(lp250
I0
ag0
(g30
g2
Ntp251
Rp252
(lp253
I0
aI0
abag56
abag0
(g35
g2
Ntp254
Rp255
(lp256
g0
(g39
g2
Ntp257
Rp258
(lp259
F0.45731330339970816
aF-0.22204124762790467
aF0.12802671441706054
abag0
(g43
g2
Ntp260
Rp261
(lp262
F0.7070758708113997
aF-0.7067034985416127
aF0.014400301817407694
aF0.020162077594167223
abababassS'parameter_container'
p263
g0
(g147
g2
Ntp264
Rp265
(lp266
g48
aF0.35
aF-1.0
absbag0
(g12
g2
Ntp267
Rp268
(dp269
g136
g139
sg140
I01
sg18
g141
sg142
I1
sg143
(lp270
g145
asg146
g147
sg148
g149
sg152
(lp271
g0
(g147
g2
Ntp272
Rp273
(lp274
g0
(g22
g2
Ntp275
Rp276
(lp277
g0
(g26
g2
Ntp278
Rp279
(lp280
I0
ag0
(g30
g2
Ntp281
Rp282
(lp283
I0
aI0
abag75
abag0
(g35
g2
Ntp284
Rp285
(lp286
g0
(g39
g2
Ntp287
Rp288
(lp289
F0.5313906534561575
aF-0.2283100021383075
aF0.09632848108884426
abag0
(g43
g2
Ntp290
Rp291
(lp292
F0.6791688475698168
aF-0.6490679687518547
aF-0.2476786971801487
aF-0.23684533221951534
abababaF0.07
aF-1.0
abag0
(g147
g2
Ntp293
Rp294
(lp295
g0
(g22
g2
Ntp296
Rp297
(lp298
g0
(g26
g2
Ntp299
Rp300
(lp301
I0
ag0
(g30
g2
Ntp302
Rp303
(lp304
I0
aI0
abag75
abag0
(g35
g2
Ntp305
Rp306
(lp307
g0
(g39
g2
Ntp308
Rp309
(lp310
F0.5313906534561575
aF-0.2283100021383075
aF0.09632848108884426
abag0
(g43
g2
Ntp311
Rp312
(lp313
F0.6791688475698168
aF-0.6490679687518547
aF-0.2476786971801487
aF-0.23684533221951534
abababaF0.14050947729423724
aF-1.0
abag0
(g147
g2
Ntp314
Rp315
(lp316
g0
(g22
g2
Ntp317
Rp318
(lp319
g0
(g26
g2
Ntp320
Rp321
(lp322
I0
ag0
(g30
g2
Ntp323
Rp324
(lp325
I0
aI0
abag75
abag0
(g35
g2
Ntp326
Rp327
(lp328
g0
(g39
g2
Ntp329
Rp330
(lp331
F0.5313906534561575
aF-0.2283100021383075
aF0.09632848108884426
abag0
(g43
g2
Ntp332
Rp333
(lp334
F0.6791688475698168
aF-0.6490679687518547
aF-0.2476786971801487
aF-0.23684533221951534
abababaF0.2276
aF-1.0
abag0
(g147
g2
Ntp335
Rp336
(lp337
g0
(g22
g2
Ntp338
Rp339
(lp340
g0
(g26
g2
Ntp341
Rp342
(lp343
I0
ag0
(g30
g2
Ntp344
Rp345
(lp346
I0
aI0
abag75
abag0
(g35
g2
Ntp347
Rp348
(lp349
g0
(g39
g2
Ntp350
Rp351
(lp352
F0.5313906534561575
aF-0.2283100021383075
aF0.09632848108884426
abag0
(g43
g2
Ntp353
Rp354
(lp355
F0.6791688475698168
aF-0.6490679687518547
aF-0.2476786971801487
aF-0.23684533221951534
abababaF0.3092
aF-1.0
abasg238
I0
sg239
(dp356
g241
F0.3092
sg242
(lp357
F-1.0
asg145
(lp358
g0
(g22
g2
Ntp359
Rp360
(lp361
g0
(g26
g2
Ntp362
Rp363
(lp364
I0
ag0
(g30
g2
Ntp365
Rp366
(lp367
I0
aI0
abag75
abag0
(g35
g2
Ntp368
Rp369
(lp370
g0
(g39
g2
Ntp371
Rp372
(lp373
F0.5313906534561575
aF-0.2283100021383075
aF0.09632848108884426
abag0
(g43
g2
Ntp374
Rp375
(lp376
F0.6791688475698168
aF-0.6490679687518547
aF-0.2476786971801487
aF-0.23684533221951534
abababassg263
g0
(g147
g2
Ntp377
Rp378
(lp379
g67
aF0.3092
aF-1.0
absbag0
(g14
g2
Ntp380
Rp381
(dp382
g136
g139
sg140
I01
sg18
S'A Move to Contact primitive'
p383
sg142
I2
sg143
(lp384
g145
aS'force_threshold'
p385
aS'torque_threshold'
p386
asg146
cpanda_pbd.msg._MoveToContactGoal
MoveToContactGoal
p387
sg148
(dp388
S'force_threshold'
p389
(lp390
F5.0
aF20.0
asg150
(lp391
F0.01
aF0.25
assg152
(lp392
g0
(g387
g2
Ntp393
Rp394
(lp395
g0
(g22
g2
Ntp396
Rp397
(lp398
g0
(g26
g2
Ntp399
Rp400
(lp401
I0
ag0
(g30
g2
Ntp402
Rp403
(lp404
I0
aI0
abag94
abag0
(g35
g2
Ntp405
Rp406
(lp407
g0
(g39
g2
Ntp408
Rp409
(lp410
F0.48522597525926614
aF0.2760220039769015
aF0.06658220792782904
abag0
(g43
g2
Ntp411
Rp412
(lp413
F-0.6684704132562753
aF0.6785119972421104
aF0.22596807729879947
aF0.20422341746575107
abababaF0.07
aF-1.0
aF10.0
aF10.0
abag0
(g387
g2
Ntp414
Rp415
(lp416
g0
(g22
g2
Ntp417
Rp418
(lp419
g0
(g26
g2
Ntp420
Rp421
(lp422
I0
ag0
(g30
g2
Ntp423
Rp424
(lp425
I0
aI0
abag94
abag0
(g35
g2
Ntp426
Rp427
(lp428
g0
(g39
g2
Ntp429
Rp430
(lp431
F0.48522597525926614
aF0.2760220039769015
aF0.06658220792782904
abag0
(g43
g2
Ntp432
Rp433
(lp434
F-0.6684704132562753
aF0.6785119972421104
aF0.22596807729879947
aF0.20422341746575107
abababaF0.06072051707295425
aF-1.0
aF10.0
aF10.0
abag0
(g387
g2
Ntp435
Rp436
(lp437
g0
(g22
g2
Ntp438
Rp439
(lp440
g0
(g26
g2
Ntp441
Rp442
(lp443
I0
ag0
(g30
g2
Ntp444
Rp445
(lp446
I0
aI0
abag94
abag0
(g35
g2
Ntp447
Rp448
(lp449
g0
(g39
g2
Ntp450
Rp451
(lp452
F0.48522597525926614
aF0.2760220039769015
aF0.06658220792782904
abag0
(g43
g2
Ntp453
Rp454
(lp455
F-0.6684704132562753
aF0.6785119972421104
aF0.22596807729879947
aF0.20422341746575107
abababaF0.06072051707295425
aF-1.0
aF8.415029192014899
aF10.0
abag0
(g387
g2
Ntp456
Rp457
(lp458
g0
(g22
g2
Ntp459
Rp460
(lp461
g0
(g26
g2
Ntp462
Rp463
(lp464
I0
ag0
(g30
g2
Ntp465
Rp466
(lp467
I0
aI0
abag94
abag0
(g35
g2
Ntp468
Rp469
(lp470
g0
(g39
g2
Ntp471
Rp472
(lp473
F0.48522597525926614
aF0.2760220039769015
aF0.06658220792782904
abag0
(g43
g2
Ntp474
Rp475
(lp476
F-0.6684704132562753
aF0.6785119972421104
aF0.22596807729879947
aF0.20422341746575107
abababaF0.09159999999999999
aF-1.0
aF8.415029192014899
aF10.0
abag0
(g387
g2
Ntp477
Rp478
(lp479
g0
(g22
g2
Ntp480
Rp481
(lp482
g0
(g26
g2
Ntp483
Rp484
(lp485
I0
ag0
(g30
g2
Ntp486
Rp487
(lp488
I0
aI0
abag94
abag0
(g35
g2
Ntp489
Rp490
(lp491
g0
(g39
g2
Ntp492
Rp493
(lp494
F0.48522597525926614
aF0.2760220039769015
aF0.06658220792782904
abag0
(g43
g2
Ntp495
Rp496
(lp497
F-0.6684704132562753
aF0.6785119972421104
aF0.22596807729879947
aF0.20422341746575107
abababaF0.1252
aF-1.0
aF8.415029192014899
aF10.0
abag0
(g387
g2
Ntp498
Rp499
(lp500
g0
(g22
g2
Ntp501
Rp502
(lp503
g0
(g26
g2
Ntp504
Rp505
(lp506
I0
ag0
(g30
g2
Ntp507
Rp508
(lp509
I0
aI0
abag94
abag0
(g35
g2
Ntp510
Rp511
(lp512
g0
(g39
g2
Ntp513
Rp514
(lp515
F0.48522597525926614
aF0.2760220039769015
aF0.06658220792782904
abag0
(g43
g2
Ntp516
Rp517
(lp518
F-0.6684704132562753
aF0.6785119972421104
aF0.22596807729879947
aF0.20422341746575107
abababaF0.1636
aF-1.0
aF8.415029192014899
aF10.0
abag0
(g387
g2
Ntp519
Rp520
(lp521
g0
(g22
g2
Ntp522
Rp523
(lp524
g0
(g26
g2
Ntp525
Rp526
(lp527
I0
ag0
(g30
g2
Ntp528
Rp529
(lp530
I0
aI0
abag94
abag0
(g35
g2
Ntp531
Rp532
(lp533
g0
(g39
g2
Ntp534
Rp535
(lp536
F0.48522597525926614
aF0.2760220039769015
aF0.06658220792782904
abag0
(g43
g2
Ntp537
Rp538
(lp539
F-0.6684704132562753
aF0.6785119972421104
aF0.22596807729879947
aF0.20422341746575107
abababaF0.25
aF-1.0
aF8.415029192014899
aF10.0
abasg238
I0
sg239
(dp540
g385
F8.415029192014899
sg241
F0.25
sg242
(lp541
F-1.0
asg386
(lp542
F10.0
asg145
(lp543
g0
(g22
g2
Ntp544
Rp545
(lp546
g0
(g26
g2
Ntp547
Rp548
(lp549
I0
ag0
(g30
g2
Ntp550
Rp551
(lp552
I0
aI0
abag94
abag0
(g35
g2
Ntp553
Rp554
(lp555
g0
(g39
g2
Ntp556
Rp557
(lp558
F0.48522597525926614
aF0.2760220039769015
aF0.06658220792782904
abag0
(g43
g2
Ntp559
Rp560
(lp561
F-0.6684704132562753
aF0.6785119972421104
aF0.22596807729879947
aF0.20422341746575107
abababassg263
g0
(g387
g2
Ntp562
Rp563
(lp564
g86
aF0.25
aF-1.0
aF8.415029192014899
aF10.0
absbag0
(g12
g2
Ntp565
Rp566
(dp567
g136
g139
sg140
I01
sg18
g141
sg142
I3
sg143
(lp568
g145
asg146
g147
sg148
g149
sg152
(lp569
g0
(g147
g2
Ntp570
Rp571
(lp572
g0
(g22
g2
Ntp573
Rp574
(lp575
g0
(g26
g2
Ntp576
Rp577
(lp578
I0
ag0
(g30
g2
Ntp579
Rp580
(lp581
I0
aI0
abag113
abag0
(g35
g2
Ntp582
Rp583
(lp584
g0
(g39
g2
Ntp585
Rp586
(lp587
F0.45994461169103945
aF-0.053965652564801334
aF0.3414368641542338
abag0
(g43
g2
Ntp588
Rp589
(lp590
F0.9989220383304196
aF-0.03026478824798525
aF0.02526619563073721
aF-0.02450353624384985
abababaF0.07
aF-1.0
abag0
(g147
g2
Ntp591
Rp592
(lp593
g0
(g22
g2
Ntp594
Rp595
(lp596
g0
(g26
g2
Ntp597
Rp598
(lp599
I0
ag0
(g30
g2
Ntp600
Rp601
(lp602
I0
aI0
abag113
abag0
(g35
g2
Ntp603
Rp604
(lp605
g0
(g39
g2
Ntp606
Rp607
(lp608
F0.45994461169103945
aF-0.053965652564801334
aF0.3414368641542338
abag0
(g43
g2
Ntp609
Rp610
(lp611
F0.9989220383304196
aF-0.03026478824798525
aF0.02526619563073721
aF-0.02450353624384985
abababaF0.17350344751300886
aF-1.0
abag0
(g147
g2
Ntp612
Rp613
(lp614
g0
(g22
g2
Ntp615
Rp616
(lp617
g0
(g26
g2
Ntp618
Rp619
(lp620
I0
ag0
(g30
g2
Ntp621
Rp622
(lp623
I0
aI0
abag113
abag0
(g35
g2
Ntp624
Rp625
(lp626
g0
(g39
g2
Ntp627
Rp628
(lp629
F0.45994461169103945
aF-0.053965652564801334
aF0.3414368641542338
abag0
(g43
g2
Ntp630
Rp631
(lp632
F0.9989220383304196
aF-0.03026478824798525
aF0.02526619563073721
aF-0.02450353624384985
abababaF0.35
aF-1.0
abasg238
I0
sg239
(dp633
g241
F0.35
sg242
(lp634
F-1.0
asg145
(lp635
g0
(g22
g2
Ntp636
Rp637
(lp638
g0
(g26
g2
Ntp639
Rp640
(lp641
I0
ag0
(g30
g2
Ntp642
Rp643
(lp644
I0
aI0
abag113
abag0
(g35
g2
Ntp645
Rp646
(lp647
g0
(g39
g2
Ntp648
Rp649
(lp650
F0.45994461169103945
aF-0.053965652564801334
aF0.3414368641542338
abag0
(g43
g2
Ntp651
Rp652
(lp653
F0.9989220383304196
aF-0.03026478824798525
aF0.02526619563073721
aF-0.02450353624384985
abababassg263
g0
(g147
g2
Ntp654
Rp655
(lp656
g105
aF0.35
aF-1.0
absbasS'name'
p657
S'A Panda Program'
p658
sb.