ccopy_reg
_reconstructor
p0
(cpanda_eup.panda_primitive
PandaProgram
p1
c__builtin__
object
p2
Ntp3
Rp4
(dp5
S'effect_of_primitive'
p6
(dp7
cpanda_eup.panda_primitive
MoveFingers
p8
(lp9
I00
aI01
ascpanda_eup.panda_primitive
MoveToContact
p10
(lp11
I01
aI00
ascpanda_eup.panda_primitive
MoveToEE
p12
(lp13
I01
aI00
ascpanda_eup.panda_primitive
ApplyForceFingers
p14
(lp15
I00
aI01
ascpanda_eup.panda_primitive
UserSync
p16
(lp17
I00
aI00
assS'description'
p18
S'Empty Description'
p19
sS'arm_state_list'
p20
(lp21
g0
(cgeometry_msgs.msg._PoseStamped
PoseStamped
p22
g2
Ntp23
Rp24
(lp25
g0
(cstd_msgs.msg._Header
Header
p26
g2
Ntp27
Rp28
(lp29
I0
ag0
(cgenpy.rostime
Time
p30
g2
Ntp31
Rp32
(lp33
I0
aI0
abaS'panda_link0'
p34
abag0
(cgeometry_msgs.msg._Pose
Pose
p35
g2
Ntp36
Rp37
(lp38
g0
(cgeometry_msgs.msg._Point
Point
p39
g2
Ntp40
Rp41
(lp42
F0.4833974233623748
aF0.007318751177980708
aF0.3904495689279949
abag0
(cgeometry_msgs.msg._Quaternion
Quaternion
p43
g2
Ntp44
Rp45
(lp46
F0.9993500431690824
aF-0.014042189921340717
aF-0.02007113406023331
aF-0.026447262574839425
abababag0
(g22
g2
Ntp47
Rp48
(lp49
g0
(g26
g2
Ntp50
Rp51
(lp52
I0
ag0
(g30
g2
Ntp53
Rp54
(lp55
I0
aI0
abaS'panda_link0'
p56
abag0
(g35
g2
Ntp57
Rp58
(lp59
g0
(g39
g2
Ntp60
Rp61
(lp62
F0.5011902045727183
aF0.005192335901375154
aF0.024742303475676075
abag0
(g43
g2
Ntp63
Rp64
(lp65
F0.9990153578820158
aF-0.030142310225015317
aF0.009187563209229612
aF-0.031230506439113022
abababag0
(g22
g2
Ntp66
Rp67
(lp68
g0
(g26
g2
Ntp69
Rp70
(lp71
I0
ag0
(g30
g2
Ntp72
Rp73
(lp74
I0
aI0
abaS'panda_link0'
p75
abag0
(g35
g2
Ntp76
Rp77
(lp78
g0
(g39
g2
Ntp79
Rp80
(lp81
F0.6404225030201885
aF-0.21899515188976365
aF0.31947401035356376
abag0
(g43
g2
Ntp82
Rp83
(lp84
F0.8476936441278499
aF-0.15503337362532482
aF0.5028616917286283
aF0.06715845262823286
abababag0
(g22
g2
Ntp85
Rp86
(lp87
g0
(g26
g2
Ntp88
Rp89
(lp90
I0
ag0
(g30
g2
Ntp91
Rp92
(lp93
I0
aI0
abaS'panda_link0'
p94
abag0
(g35
g2
Ntp95
Rp96
(lp97
g0
(g39
g2
Ntp98
Rp99
(lp100
F0.48697273191184176
aF-0.0003249795766055996
aF0.3672047165651558
abag0
(g43
g2
Ntp101
Rp102
(lp103
F0.9986485219265587
aF-0.028677903984510297
aF0.042164274523526495
aF-0.010043974853580964
abababasS'gripper_state_list'
p104
(lp105
g0
(cpanda_eup.panda_primitive
GripperState
p106
g2
Ntp107
Rp108
(dp109
S'width'
p110
F0.08
sS'force'
p111
F0.0
sbag0
(g106
g2
Ntp112
Rp113
(dp114
g110
F0.033291686326265335
sg111
F20.0
sbag0
(g106
g2
Ntp115
Rp116
(dp117
g110
F0.04758337885141373
sg111
F0.0
sbasS'primitives'
p118
(lp119
g0
(g10
g2
Ntp120
Rp121
(dp122
S'status'
p123
cpanda_eup.panda_primitive
PandaPrimitiveStatus
p124
(I5
tp125
Rp126
sS'revertible'
p127
I01
sg18
S'A Move to Contact primitive'
p128
sS'starting_arm_state_index'
p129
I0
sS'parameters_with_effects_on_robot_state'
p130
(lp131
S'pose'
p132
aS'force_threshold'
p133
aS'torque_threshold'
p134
asS'expected_container'
p135
cpanda_pbd.msg._MoveToContactGoal
MoveToContactGoal
p136
sS'gui_tunable_parameter_strict_ranges'
p137
(dp138
S'force_threshold'
p139
(lp140
F5.0
aF20.0
asS'position_speed'
p141
(lp142
F0.01
aF0.25
assS'container_update_history'
p143
(lp144
g0
(g136
g2
Ntp145
Rp146
(lp147
g0
(g22
g2
Ntp148
Rp149
(lp150
g0
(g26
g2
Ntp151
Rp152
(lp153
I0
ag0
(g30
g2
Ntp154
Rp155
(lp156
I0
aI0
abaS'panda_link0'
p157
abag0
(g35
g2
Ntp158
Rp159
(lp160
g0
(g39
g2
Ntp161
Rp162
(lp163
F0.5069132714754178
aF0.004873624607929537
aF0.027077189596690976
abag0
(g43
g2
Ntp164
Rp165
(lp166
F0.9995143312059889
aF-0.02583181235790082
aF0.016166211683465017
aF-0.006517114695673689
abababaF0.07
aF-1.0
aF10.0
aF10.0
abag0
(g136
g2
Ntp167
Rp168
(lp169
g0
(g22
g2
Ntp170
Rp171
(lp172
g0
(g26
g2
Ntp173
Rp174
(lp175
I0
ag0
(g30
g2
Ntp176
Rp177
(lp178
I0
aI0
abag157
abag0
(g35
g2
Ntp179
Rp180
(lp181
g0
(g39
g2
Ntp182
Rp183
(lp184
F0.5069132714754178
aF0.004873624607929537
aF0.027077189596690976
abag0
(g43
g2
Ntp185
Rp186
(lp187
F0.9995143312059889
aF-0.02583181235790082
aF0.016166211683465017
aF-0.006517114695673689
abababaF0.202813642017898
aF-1.0
aF10.0
aF10.0
abag0
(g136
g2
Ntp188
Rp189
(lp190
g0
(g22
g2
Ntp191
Rp192
(lp193
g0
(g26
g2
Ntp194
Rp195
(lp196
I0
ag0
(g30
g2
Ntp197
Rp198
(lp199
I0
aI0
abag157
abag0
(g35
g2
Ntp200
Rp201
(lp202
g0
(g39
g2
Ntp203
Rp204
(lp205
F0.5069132714754178
aF0.004873624607929537
aF0.027077189596690976
abag0
(g43
g2
Ntp206
Rp207
(lp208
F0.9995143312059889
aF-0.02583181235790082
aF0.016166211683465017
aF-0.006517114695673689
abababaF0.202813642017898
aF-1.0
aF9.792404565707358
aF10.0
abag0
(g136
g2
Ntp209
Rp210
(lp211
g0
(g22
g2
Ntp212
Rp213
(lp214
g0
(g26
g2
Ntp215
Rp216
(lp217
I0
ag0
(g30
g2
Ntp218
Rp219
(lp220
I0
aI0
abag157
abag0
(g35
g2
Ntp221
Rp222
(lp223
g0
(g39
g2
Ntp224
Rp225
(lp226
F0.5069132714754178
aF0.004873624607929537
aF0.027077189596690976
abag0
(g43
g2
Ntp227
Rp228
(lp229
F0.9995143312059889
aF-0.02583181235790082
aF0.016166211683465017
aF-0.006517114695673689
abababaF0.12039999999999998
aF-1.0
aF9.792404565707358
aF10.0
abag0
(g136
g2
Ntp230
Rp231
(lp232
g0
(g22
g2
Ntp233
Rp234
(lp235
g0
(g26
g2
Ntp236
Rp237
(lp238
I0
ag0
(g30
g2
Ntp239
Rp240
(lp241
I0
aI0
abag157
abag0
(g35
g2
Ntp242
Rp243
(lp244
g0
(g39
g2
Ntp245
Rp246
(lp247
F0.5069132714754178
aF0.004873624607929537
aF0.027077189596690976
abag0
(g43
g2
Ntp248
Rp249
(lp250
F0.9995143312059889
aF-0.02583181235790082
aF0.016166211683465017
aF-0.006517114695673689
abababaF0.12039999999999998
aF-1.0
aF8.9
aF10.0
abag0
(g136
g2
Ntp251
Rp252
(lp253
g0
(g22
g2
Ntp254
Rp255
(lp256
g0
(g26
g2
Ntp257
Rp258
(lp259
I0
ag0
(g30
g2
Ntp260
Rp261
(lp262
I0
aI0
abag157
abag0
(g35
g2
Ntp263
Rp264
(lp265
g0
(g39
g2
Ntp266
Rp267
(lp268
F0.5069132714754178
aF0.004873624607929537
aF0.027077189596690976
abag0
(g43
g2
Ntp269
Rp270
(lp271
F0.9995143312059889
aF-0.02583181235790082
aF0.016166211683465017
aF-0.006517114695673689
abababaF0.10119999999999998
aF-1.0
aF8.9
aF10.0
abag0
(g136
g2
Ntp272
Rp273
(lp274
g0
(g22
g2
Ntp275
Rp276
(lp277
g0
(g26
g2
Ntp278
Rp279
(lp280
I0
ag0
(g30
g2
Ntp281
Rp282
(lp283
I0
aI0
abag157
abag0
(g35
g2
Ntp284
Rp285
(lp286
g0
(g39
g2
Ntp287
Rp288
(lp289
F0.5069132714754178
aF0.004873624607929537
aF0.027077189596690976
abag0
(g43
g2
Ntp290
Rp291
(lp292
F0.9995143312059889
aF-0.02583181235790082
aF0.016166211683465017
aF-0.006517114695673689
abababaF0.10119999999999998
aF-1.0
aF6.5
aF10.0
abag0
(g136
g2
Ntp293
Rp294
(lp295
g0
(g22
g2
Ntp296
Rp297
(lp298
g0
(g26
g2
Ntp299
Rp300
(lp301
I0
ag0
(g30
g2
Ntp302
Rp303
(lp304
I0
aI0
abag157
abag0
(g35
g2
Ntp305
Rp306
(lp307
g0
(g39
g2
Ntp308
Rp309
(lp310
F0.5069132714754178
aF0.004873624607929537
aF0.027077189596690976
abag0
(g43
g2
Ntp311
Rp312
(lp313
F0.9995143312059889
aF-0.02583181235790082
aF0.016166211683465017
aF-0.006517114695673689
abababaF0.10119999999999998
aF-1.0
aF5.0
aF10.0
abasS'starting_gripper_state_index'
p314
I0
sS'parameters_update_history'
p315
(dp316
g133
(lp317
F10.0
aF9.792404565707358
aF8.9
aF6.5
aF5.0
asS'position_speed'
p318
(lp319
F0.07
aF0.202813642017898
aF0.12039999999999998
aF0.10119999999999998
asS'rotation_speed'
p320
(lp321
F-1.0
asg134
(lp322
F10.0
asg132
(lp323
g0
(g22
g2
Ntp324
Rp325
(lp326
g0
(g26
g2
Ntp327
Rp328
(lp329
I0
ag0
(g30
g2
Ntp330
Rp331
(lp332
I0
aI0
abag157
abag0
(g35
g2
Ntp333
Rp334
(lp335
g0
(g39
g2
Ntp336
Rp337
(lp338
F0.5069132714754178
aF0.004873624607929537
aF0.027077189596690976
abag0
(g43
g2
Ntp339
Rp340
(lp341
F0.9995143312059889
aF-0.02583181235790082
aF0.016166211683465017
aF-0.006517114695673689
abababassS'parameter_container'
p342
g0
(g136
g2
Ntp343
Rp344
(lp345
g0
(g22
g2
Ntp346
Rp347
(lp348
g0
(g26
g2
Ntp349
Rp350
(lp351
I0
ag0
(g30
g2
Ntp352
Rp353
(lp354
I0
aI0
abag157
abag0
(g35
g2
Ntp355
Rp356
(lp357
g0
(g39
g2
Ntp358
Rp359
(lp360
F0.5069132714754178
aF0.004873624607929537
aF0.027077189596690976
abag0
(g43
g2
Ntp361
Rp362
(lp363
F0.9995143312059889
aF-0.02583181235790082
aF0.016166211683465017
aF-0.006517114695673689
abababaF0.10119999999999998
aF-1.0
aF5.0
aF10.0
absbag0
(g14
g2
Ntp364
Rp365
(dp366
g123
g124
(I0
tp367
Rp368
sg127
I01
sg18
S'A Apply Force (with) Fingers primitive'
p369
sg129
I1
sg130
(lp370
S'force'
p371
asg135
cpanda_pbd.srv._ApplyForceFingers
ApplyForceFingersRequest
p372
sg137
(dp373
g111
(lp374
F20.0
aF60.0
assg143
(lp375
g0
(g372
g2
Ntp376
Rp377
(lp378
F20.0
abag0
(g372
g2
Ntp379
Rp380
(lp381
F31.68001346236522
abasg314
I0
sg315
(dp382
g371
(lp383
F20.0
aF31.68001346236522
assg342
g0
(g372
g2
Ntp384
Rp385
(lp386
F31.68001346236522
absbag0
(g12
g2
Ntp387
Rp388
(dp389
g123
g368
sg127
I01
sg18
S'A Move to End-Effector primitive'
p390
sg129
I1
sg130
(lp391
g132
asg135
cpanda_pbd.msg._MoveToEEGoal
MoveToEEGoal
p392
sg137
(dp393
g141
(lp394
F0.01
aF0.35
assg143
(lp395
g0
(g392
g2
Ntp396
Rp397
(lp398
g0
(g22
g2
Ntp399
Rp400
(lp401
g0
(g26
g2
Ntp402
Rp403
(lp404
I0
ag0
(g30
g2
Ntp405
Rp406
(lp407
I0
aI0
abag75
abag0
(g35
g2
Ntp408
Rp409
(lp410
g0
(g39
g2
Ntp411
Rp412
(lp413
F0.6404225030201885
aF-0.21899515188976365
aF0.31947401035356376
abag0
(g43
g2
Ntp414
Rp415
(lp416
F0.8476936441278499
aF-0.15503337362532482
aF0.5028616917286283
aF0.06715845262823286
abababaF0.07
aF-1.0
abag0
(g392
g2
Ntp417
Rp418
(lp419
g0
(g22
g2
Ntp420
Rp421
(lp422
g0
(g26
g2
Ntp423
Rp424
(lp425
I0
ag0
(g30
g2
Ntp426
Rp427
(lp428
I0
aI0
abag75
abag0
(g35
g2
Ntp429
Rp430
(lp431
g0
(g39
g2
Ntp432
Rp433
(lp434
F0.6404225030201885
aF-0.21899515188976365
aF0.31947401035356376
abag0
(g43
g2
Ntp435
Rp436
(lp437
F0.8476936441278499
aF-0.15503337362532482
aF0.5028616917286283
aF0.06715845262823286
abababaF0.06919048538764924
aF-1.0
abag0
(g392
g2
Ntp438
Rp439
(lp440
g0
(g22
g2
Ntp441
Rp442
(lp443
g0
(g26
g2
Ntp444
Rp445
(lp446
I0
ag0
(g30
g2
Ntp447
Rp448
(lp449
I0
aI0
abag75
abag0
(g35
g2
Ntp450
Rp451
(lp452
g0
(g39
g2
Ntp453
Rp454
(lp455
F0.6404225030201885
aF-0.21899515188976365
aF0.31947401035356376
abag0
(g43
g2
Ntp456
Rp457
(lp458
F0.8476936441278499
aF-0.15503337362532482
aF0.5028616917286283
aF0.06715845262823286
abababaF0.10519999999999999
aF-1.0
abasg314
I1
sg315
(dp459
g318
(lp460
F0.07
aF0.06919048538764924
aF0.10519999999999999
asg320
(lp461
F-1.0
asg132
(lp462
g0
(g22
g2
Ntp463
Rp464
(lp465
g0
(g26
g2
Ntp466
Rp467
(lp468
I0
ag0
(g30
g2
Ntp469
Rp470
(lp471
I0
aI0
abag75
abag0
(g35
g2
Ntp472
Rp473
(lp474
g0
(g39
g2
Ntp475
Rp476
(lp477
F0.6404225030201885
aF-0.21899515188976365
aF0.31947401035356376
abag0
(g43
g2
Ntp478
Rp479
(lp480
F0.8476936441278499
aF-0.15503337362532482
aF0.5028616917286283
aF0.06715845262823286
abababassg342
g0
(g392
g2
Ntp481
Rp482
(lp483
g67
aF0.10519999999999999
aF-1.0
absbag0
(g16
g2
Ntp484
Rp485
(dp486
g123
g368
sg127
I01
sg18
S'A User Synchronization primitive'
p487
sg129
I2
sg130
(lp488
sg135
cpanda_pbd.msg._UserSyncGoal
UserSyncGoal
p489
sg137
(dp490
g139
(lp491
F5.0
aF30.0
assg143
(lp492
g0
(g489
g2
Ntp493
Rp494
(lp495
F10.0
abag0
(g489
g2
Ntp496
Rp497
(lp498
F22.93788797540521
abag0
(g489
g2
Ntp499
Rp500
(lp501
F11.0
abag0
(g489
g2
Ntp502
Rp503
(lp504
F14.0
abag0
(g489
g2
Ntp505
Rp506
(lp507
F17.0
abag0
(g489
g2
Ntp508
Rp509
(lp510
F19.0
abag0
(g489
g2
Ntp511
Rp512
(lp513
F20.0
abag0
(g489
g2
Ntp514
Rp515
(lp516
F23.0
abag0
(g489
g2
Ntp517
Rp518
(lp519
F19.0
abasg314
I1
sg315
(dp520
g133
(lp521
F10.0
aF22.93788797540521
aF11.0
aF14.0
aF17.0
aF19.0
aF20.0
aF23.0
aF19.0
assg342
g0
(g489
g2
Ntp522
Rp523
(lp524
F19.0
absbag0
(g8
g2
Ntp525
Rp526
(dp527
g123
g368
sg127
I01
sg18
S'A Move Fingers primitive'
p528
sg129
I2
sg130
(lp529
S'width'
p530
asg135
cpanda_pbd.srv._MoveFingers
MoveFingersRequest
p531
sg137
(dp532
g530
(lp533
F0.04758337885141373
aF0.08
assg143
(lp534
g0
(g531
g2
Ntp535
Rp536
(lp537
F0.04758337885141373
abag0
(g531
g2
Ntp538
Rp539
(lp540
F0.07549678635112007
abasg314
I1
sg315
(dp541
g530
(lp542
F0.04758337885141373
aF0.07549678635112007
assg342
g0
(g531
g2
Ntp543
Rp544
(lp545
F0.07549678635112007
absbag0
(g12
g2
Ntp546
Rp547
(dp548
g123
g368
sg127
I01
sg18
g390
sg129
I2
sg130
(lp549
g132
asg135
g392
sg137
g393
sg143
(lp550
g0
(g392
g2
Ntp551
Rp552
(lp553
g0
(g22
g2
Ntp554
Rp555
(lp556
g0
(g26
g2
Ntp557
Rp558
(lp559
I0
ag0
(g30
g2
Ntp560
Rp561
(lp562
I0
aI0
abag94
abag0
(g35
g2
Ntp563
Rp564
(lp565
g0
(g39
g2
Ntp566
Rp567
(lp568
F0.48697273191184176
aF-0.0003249795766055996
aF0.3672047165651558
abag0
(g43
g2
Ntp569
Rp570
(lp571
F0.9986485219265587
aF-0.028677903984510297
aF0.042164274523526495
aF-0.010043974853580964
abababaF0.07
aF-1.0
abag0
(g392
g2
Ntp572
Rp573
(lp574
g0
(g22
g2
Ntp575
Rp576
(lp577
g0
(g26
g2
Ntp578
Rp579
(lp580
I0
ag0
(g30
g2
Ntp581
Rp582
(lp583
I0
aI0
abag94
abag0
(g35
g2
Ntp584
Rp585
(lp586
g0
(g39
g2
Ntp587
Rp588
(lp589
F0.48697273191184176
aF-0.0003249795766055996
aF0.3672047165651558
abag0
(g43
g2
Ntp590
Rp591
(lp592
F0.9986485219265587
aF-0.028677903984510297
aF0.042164274523526495
aF-0.010043974853580964
abababaF0.11400086810415655
aF-1.0
abag0
(g392
g2
Ntp593
Rp594
(lp595
g0
(g22
g2
Ntp596
Rp597
(lp598
g0
(g26
g2
Ntp599
Rp600
(lp601
I0
ag0
(g30
g2
Ntp602
Rp603
(lp604
I0
aI0
abag94
abag0
(g35
g2
Ntp605
Rp606
(lp607
g0
(g39
g2
Ntp608
Rp609
(lp610
F0.48697273191184176
aF-0.0003249795766055996
aF0.3672047165651558
abag0
(g43
g2
Ntp611
Rp612
(lp613
F0.9986485219265587
aF-0.028677903984510297
aF0.042164274523526495
aF-0.010043974853580964
abababaF0.2004
aF-1.0
abasg314
I2
sg315
(dp614
g318
(lp615
F0.07
aF0.11400086810415655
aF0.2004
asg320
(lp616
F-1.0
asg132
(lp617
g0
(g22
g2
Ntp618
Rp619
(lp620
g0
(g26
g2
Ntp621
Rp622
(lp623
I0
ag0
(g30
g2
Ntp624
Rp625
(lp626
I0
aI0
abag94
abag0
(g35
g2
Ntp627
Rp628
(lp629
g0
(g39
g2
Ntp630
Rp631
(lp632
F0.48697273191184176
aF-0.0003249795766055996
aF0.3672047165651558
abag0
(g43
g2
Ntp633
Rp634
(lp635
F0.9986485219265587
aF-0.028677903984510297
aF0.042164274523526495
aF-0.010043974853580964
abababassg342
g0
(g392
g2
Ntp636
Rp637
(lp638
g86
aF0.2004
aF-1.0
absbasS'name'
p639
S'A Panda Program'
p640
sb.