ccopy_reg
_reconstructor
p0
(cpanda_eup.panda_primitive
PandaProgram
p1
c__builtin__
object
p2
Ntp3
Rp4
(dp5
S'effect_of_primitive'
p6
(dp7
cpanda_eup.panda_primitive
MoveToEE
p8
(lp9
I01
aI00
ascpanda_eup.panda_primitive
MoveToContact
p10
(lp11
I01
aI00
ascpanda_eup.panda_primitive
MoveFingers
p12
(lp13
I00
aI01
ascpanda_eup.panda_primitive
UserSync
p14
(lp15
I00
aI00
ascpanda_eup.panda_primitive
ApplyForceFingers
p16
(lp17
I00
aI01
assS'description'
p18
S'Empty Description'
p19
sS'arm_state_list'
p20
(lp21
g0
(cgeometry_msgs.msg._PoseStamped
PoseStamped
p22
g2
Ntp23
Rp24
(lp25
g0
(cstd_msgs.msg._Header
Header
p26
g2
Ntp27
Rp28
(lp29
I0
ag0
(cgenpy.rostime
Time
p30
g2
Ntp31
Rp32
(lp33
I0
aI0
abaS'panda_link0'
p34
abag0
(cgeometry_msgs.msg._Pose
Pose
p35
g2
Ntp36
Rp37
(lp38
g0
(cgeometry_msgs.msg._Point
Point
p39
g2
Ntp40
Rp41
(lp42
F0.4085007637617008
aF-0.04743834298515986
aF0.41592672837953215
abag0
(cgeometry_msgs.msg._Quaternion
Quaternion
p43
g2
Ntp44
Rp45
(lp46
F0.999969677491424
aF0.006662980259596884
aF0.001583209543998861
aF0.0037070526429503078
abababag0
(g22
g2
Ntp47
Rp48
(lp49
g0
(g26
g2
Ntp50
Rp51
(lp52
I0
ag0
(g30
g2
Ntp53
Rp54
(lp55
I0
aI0
abaS'panda_link0'
p56
abag0
(g35
g2
Ntp57
Rp58
(lp59
g0
(g39
g2
Ntp60
Rp61
(lp62
F0.5555374971188675
aF-0.3665594011198935
aF0.2768798697008012
abag0
(g43
g2
Ntp63
Rp64
(lp65
F-0.5202366923331977
aF0.488836282074162
aF-0.4848922246640578
aF0.5052448948168257
abababag0
(g22
g2
Ntp66
Rp67
(lp68
g0
(g26
g2
Ntp69
Rp70
(lp71
I0
ag0
(g30
g2
Ntp72
Rp73
(lp74
I0
aI0
abaS'panda_link0'
p75
abag0
(g35
g2
Ntp76
Rp77
(lp78
g0
(g39
g2
Ntp79
Rp80
(lp81
F0.6925634165505562
aF-0.03161010303150283
aF0.1515468745803516
abag0
(g43
g2
Ntp82
Rp83
(lp84
F-0.5472531305577372
aF0.48193816034954157
aF-0.4457876407294544
aF0.5191560459693428
abababag0
(g22
g2
Ntp85
Rp86
(lp87
g0
(g26
g2
Ntp88
Rp89
(lp90
I0
ag0
(g30
g2
Ntp91
Rp92
(lp93
I0
aI0
abaS'panda_link0'
p94
abag0
(g35
g2
Ntp95
Rp96
(lp97
g0
(g39
g2
Ntp98
Rp99
(lp100
F0.581848720349036
aF0.37632116390939524
aF0.3458198812985057
abag0
(g43
g2
Ntp101
Rp102
(lp103
F-0.6558731655374604
aF0.2796442810897982
aF-0.2831432228500472
aF0.6414509974547778
abababag0
(g22
g2
Ntp104
Rp105
(lp106
g0
(g26
g2
Ntp107
Rp108
(lp109
I0
ag0
(g30
g2
Ntp110
Rp111
(lp112
I0
aI0
abaS'panda_link0'
p113
abag0
(g35
g2
Ntp114
Rp115
(lp116
g0
(g39
g2
Ntp117
Rp118
(lp119
F0.44612082019446336
aF-0.04256435300120127
aF0.408240721202241
abag0
(g43
g2
Ntp120
Rp121
(lp122
F0.9998713088044058
aF-0.010703239032880212
aF-0.0070168970835132564
aF-0.009673141128363653
abababasS'gripper_state_list'
p123
(lp124
g0
(cpanda_eup.panda_primitive
GripperState
p125
g2
Ntp126
Rp127
(dp128
S'width'
p129
F0.08
sS'force'
p130
F0.0
sbag0
(g125
g2
Ntp131
Rp132
(dp133
g129
F0.002187356585636735
sg130
F20.0
sbag0
(g125
g2
Ntp134
Rp135
(dp136
g129
F0.04279168322682381
sg130
F0.0
sbasS'primitives'
p137
(lp138
g0
(g8
g2
Ntp139
Rp140
(dp141
S'status'
p142
cpanda_eup.panda_primitive
PandaPrimitiveStatus
p143
(I1
tp144
Rp145
sS'revertible'
p146
I01
sg18
S'A Move to End-Effector primitive'
p147
sS'starting_arm_state_index'
p148
I0
sS'parameters_with_effects_on_robot_state'
p149
(lp150
S'pose'
p151
asS'expected_container'
p152
cpanda_pbd.msg._MoveToEEGoal
MoveToEEGoal
p153
sS'gui_tunable_parameter_strict_ranges'
p154
(dp155
S'position_speed'
p156
(lp157
F0.01
aF0.35
assS'container_update_history'
p158
(lp159
g0
(g153
g2
Ntp160
Rp161
(lp162
g0
(g22
g2
Ntp163
Rp164
(lp165
g0
(g26
g2
Ntp166
Rp167
(lp168
I0
ag0
(g30
g2
Ntp169
Rp170
(lp171
I0
aI0
abag56
abag0
(g35
g2
Ntp172
Rp173
(lp174
g0
(g39
g2
Ntp175
Rp176
(lp177
F0.5555374971188675
aF-0.3665594011198935
aF0.2768798697008012
abag0
(g43
g2
Ntp178
Rp179
(lp180
F-0.5202366923331977
aF0.488836282074162
aF-0.4848922246640578
aF0.5052448948168257
abababaF0.07
aF-1.0
abag0
(g153
g2
Ntp181
Rp182
(lp183
g0
(g22
g2
Ntp184
Rp185
(lp186
g0
(g26
g2
Ntp187
Rp188
(lp189
I0
ag0
(g30
g2
Ntp190
Rp191
(lp192
I0
aI0
abag56
abag0
(g35
g2
Ntp193
Rp194
(lp195
g0
(g39
g2
Ntp196
Rp197
(lp198
F0.5555374971188675
aF-0.3665594011198935
aF0.2768798697008012
abag0
(g43
g2
Ntp199
Rp200
(lp201
F-0.5202366923331977
aF0.488836282074162
aF-0.4848922246640578
aF0.5052448948168257
abababaF0.09537537582303142
aF-1.0
abag0
(g153
g2
Ntp202
Rp203
(lp204
g0
(g22
g2
Ntp205
Rp206
(lp207
g0
(g26
g2
Ntp208
Rp209
(lp210
I0
ag0
(g30
g2
Ntp211
Rp212
(lp213
I0
aI0
abag56
abag0
(g35
g2
Ntp214
Rp215
(lp216
g0
(g39
g2
Ntp217
Rp218
(lp219
F0.5555374971188675
aF-0.3665594011198935
aF0.2768798697008012
abag0
(g43
g2
Ntp220
Rp221
(lp222
F-0.5202366923331977
aF0.488836282074162
aF-0.4848922246640578
aF0.5052448948168257
abababaF0.11879999999999999
aF-1.0
abasS'starting_gripper_state_index'
p223
I0
sS'parameters_update_history'
p224
(dp225
S'position_speed'
p226
(lp227
F0.07
aF0.09537537582303142
aF0.11879999999999999
asS'rotation_speed'
p228
(lp229
F-1.0
asg151
(lp230
g0
(g22
g2
Ntp231
Rp232
(lp233
g0
(g26
g2
Ntp234
Rp235
(lp236
I0
ag0
(g30
g2
Ntp237
Rp238
(lp239
I0
aI0
abag56
abag0
(g35
g2
Ntp240
Rp241
(lp242
g0
(g39
g2
Ntp243
Rp244
(lp245
F0.5555374971188675
aF-0.3665594011198935
aF0.2768798697008012
abag0
(g43
g2
Ntp246
Rp247
(lp248
F-0.5202366923331977
aF0.488836282074162
aF-0.4848922246640578
aF0.5052448948168257
abababassS'parameter_container'
p249
g0
(g153
g2
Ntp250
Rp251
(lp252
g48
aF0.11879999999999999
aF-1.0
absbag0
(g14
g2
Ntp253
Rp254
(dp255
g142
g145
sg146
I01
sg18
S'A User Synchronization primitive'
p256
sg148
I1
sg149
(lp257
sg152
cpanda_pbd.msg._UserSyncGoal
UserSyncGoal
p258
sg154
(dp259
S'force_threshold'
p260
(lp261
F5.0
aF30.0
assg158
(lp262
g0
(g258
g2
Ntp263
Rp264
(lp265
F10.0
abag0
(g258
g2
Ntp266
Rp267
(lp268
F15.094800012498512
abag0
(g258
g2
Ntp269
Rp270
(lp271
F9.0
abasg223
I0
sg224
(dp272
S'force_threshold'
p273
(lp274
F10.0
aF15.094800012498512
aF9.0
assg249
g0
(g258
g2
Ntp275
Rp276
(lp277
F9.0
absbag0
(g16
g2
Ntp278
Rp279
(dp280
g142
g145
sg146
I01
sg18
S'A Apply Force (with) Fingers primitive'
p281
sg148
I1
sg149
(lp282
S'force'
p283
asg152
cpanda_pbd.srv._ApplyForceFingers
ApplyForceFingersRequest
p284
sg154
(dp285
g130
(lp286
F20.0
aF60.0
assg158
(lp287
g0
(g284
g2
Ntp288
Rp289
(lp290
F20.0
abag0
(g284
g2
Ntp291
Rp292
(lp293
F25.114870633219756
abag0
(g284
g2
Ntp294
Rp295
(lp296
F20.0
abasg223
I0
sg224
(dp297
g283
(lp298
F20.0
aF25.114870633219756
aF20.0
assg249
g0
(g284
g2
Ntp299
Rp300
(lp301
F20.0
absbag0
(g8
g2
Ntp302
Rp303
(dp304
g142
g145
sg146
I01
sg18
g147
sg148
I1
sg149
(lp305
g151
asg152
g153
sg154
g155
sg158
(lp306
g0
(g153
g2
Ntp307
Rp308
(lp309
g0
(g22
g2
Ntp310
Rp311
(lp312
g0
(g26
g2
Ntp313
Rp314
(lp315
I0
ag0
(g30
g2
Ntp316
Rp317
(lp318
I0
aI0
abag75
abag0
(g35
g2
Ntp319
Rp320
(lp321
g0
(g39
g2
Ntp322
Rp323
(lp324
F0.6925634165505562
aF-0.03161010303150283
aF0.1515468745803516
abag0
(g43
g2
Ntp325
Rp326
(lp327
F-0.5472531305577372
aF0.48193816034954157
aF-0.4457876407294544
aF0.5191560459693428
abababaF0.07
aF-1.0
abag0
(g153
g2
Ntp328
Rp329
(lp330
g0
(g22
g2
Ntp331
Rp332
(lp333
g0
(g26
g2
Ntp334
Rp335
(lp336
I0
ag0
(g30
g2
Ntp337
Rp338
(lp339
I0
aI0
abag75
abag0
(g35
g2
Ntp340
Rp341
(lp342
g0
(g39
g2
Ntp343
Rp344
(lp345
F0.6925634165505562
aF-0.03161010303150283
aF0.1515468745803516
abag0
(g43
g2
Ntp346
Rp347
(lp348
F-0.5472531305577372
aF0.48193816034954157
aF-0.4457876407294544
aF0.5191560459693428
abababaF0.19716256485030487
aF-1.0
abag0
(g153
g2
Ntp349
Rp350
(lp351
g0
(g22
g2
Ntp352
Rp353
(lp354
g0
(g26
g2
Ntp355
Rp356
(lp357
I0
ag0
(g30
g2
Ntp358
Rp359
(lp360
I0
aI0
abag75
abag0
(g35
g2
Ntp361
Rp362
(lp363
g0
(g39
g2
Ntp364
Rp365
(lp366
F0.6925634165505562
aF-0.03161010303150283
aF0.1515468745803516
abag0
(g43
g2
Ntp367
Rp368
(lp369
F-0.5472531305577372
aF0.48193816034954157
aF-0.4457876407294544
aF0.5191560459693428
abababaF0.1528
aF-1.0
abag0
(g153
g2
Ntp370
Rp371
(lp372
g0
(g22
g2
Ntp373
Rp374
(lp375
g0
(g26
g2
Ntp376
Rp377
(lp378
I0
ag0
(g30
g2
Ntp379
Rp380
(lp381
I0
aI0
abag75
abag0
(g35
g2
Ntp382
Rp383
(lp384
g0
(g39
g2
Ntp385
Rp386
(lp387
F0.6925634165505562
aF-0.03161010303150283
aF0.1515468745803516
abag0
(g43
g2
Ntp388
Rp389
(lp390
F-0.5472531305577372
aF0.48193816034954157
aF-0.4457876407294544
aF0.5191560459693428
abababaF0.11879999999999999
aF-1.0
abag0
(g153
g2
Ntp391
Rp392
(lp393
g0
(g22
g2
Ntp394
Rp395
(lp396
g0
(g26
g2
Ntp397
Rp398
(lp399
I0
ag0
(g30
g2
Ntp400
Rp401
(lp402
I0
aI0
abag75
abag0
(g35
g2
Ntp403
Rp404
(lp405
g0
(g39
g2
Ntp406
Rp407
(lp408
F0.6925634165505562
aF-0.03161010303150283
aF0.1515468745803516
abag0
(g43
g2
Ntp409
Rp410
(lp411
F-0.5472531305577372
aF0.48193816034954157
aF-0.4457876407294544
aF0.5191560459693428
abababaF0.1392
aF-1.0
abag0
(g153
g2
Ntp412
Rp413
(lp414
g0
(g22
g2
Ntp415
Rp416
(lp417
g0
(g26
g2
Ntp418
Rp419
(lp420
I0
ag0
(g30
g2
Ntp421
Rp422
(lp423
I0
aI0
abag75
abag0
(g35
g2
Ntp424
Rp425
(lp426
g0
(g39
g2
Ntp427
Rp428
(lp429
F0.6925634165505562
aF-0.03161010303150283
aF0.1515468745803516
abag0
(g43
g2
Ntp430
Rp431
(lp432
F-0.5472531305577372
aF0.48193816034954157
aF-0.4457876407294544
aF0.5191560459693428
abababaF0.1324
aF-1.0
abag0
(g153
g2
Ntp433
Rp434
(lp435
g0
(g22
g2
Ntp436
Rp437
(lp438
g0
(g26
g2
Ntp439
Rp440
(lp441
I0
ag0
(g30
g2
Ntp442
Rp443
(lp444
I0
aI0
abag75
abag0
(g35
g2
Ntp445
Rp446
(lp447
g0
(g39
g2
Ntp448
Rp449
(lp450
F0.6925634165505562
aF-0.03161010303150283
aF0.1515468745803516
abag0
(g43
g2
Ntp451
Rp452
(lp453
F-0.5472531305577372
aF0.48193816034954157
aF-0.4457876407294544
aF0.5191560459693428
abababaF0.11879999999999999
aF-1.0
abag0
(g153
g2
Ntp454
Rp455
(lp456
g0
(g22
g2
Ntp457
Rp458
(lp459
g0
(g26
g2
Ntp460
Rp461
(lp462
I0
ag0
(g30
g2
Ntp463
Rp464
(lp465
I0
aI0
abag75
abag0
(g35
g2
Ntp466
Rp467
(lp468
g0
(g39
g2
Ntp469
Rp470
(lp471
F0.6925634165505562
aF-0.03161010303150283
aF0.1515468745803516
abag0
(g43
g2
Ntp472
Rp473
(lp474
F-0.5472531305577372
aF0.48193816034954157
aF-0.4457876407294544
aF0.5191560459693428
abababaF0.1256
aF-1.0
abasg223
I1
sg224
(dp475
g226
(lp476
F0.07
aF0.19716256485030487
aF0.1528
aF0.11879999999999999
aF0.1392
aF0.1324
aF0.11879999999999999
aF0.1256
asg228
(lp477
F-1.0
asg151
(lp478
g0
(g22
g2
Ntp479
Rp480
(lp481
g0
(g26
g2
Ntp482
Rp483
(lp484
I0
ag0
(g30
g2
Ntp485
Rp486
(lp487
I0
aI0
abag75
abag0
(g35
g2
Ntp488
Rp489
(lp490
g0
(g39
g2
Ntp491
Rp492
(lp493
F0.6925634165505562
aF-0.03161010303150283
aF0.1515468745803516
abag0
(g43
g2
Ntp494
Rp495
(lp496
F-0.5472531305577372
aF0.48193816034954157
aF-0.4457876407294544
aF0.5191560459693428
abababassg249
g0
(g153
g2
Ntp497
Rp498
(lp499
g67
aF0.1256
aF-1.0
absbag0
(g8
g2
Ntp500
Rp501
(dp502
g142
g145
sg146
I01
sg18
g147
sg148
I2
sg149
(lp503
g151
asg152
g153
sg154
g155
sg158
(lp504
g0
(g153
g2
Ntp505
Rp506
(lp507
g0
(g22
g2
Ntp508
Rp509
(lp510
g0
(g26
g2
Ntp511
Rp512
(lp513
I0
ag0
(g30
g2
Ntp514
Rp515
(lp516
I0
aI0
abag94
abag0
(g35
g2
Ntp517
Rp518
(lp519
g0
(g39
g2
Ntp520
Rp521
(lp522
F0.581848720349036
aF0.37632116390939524
aF0.3458198812985057
abag0
(g43
g2
Ntp523
Rp524
(lp525
F-0.6558731655374604
aF0.2796442810897982
aF-0.2831432228500472
aF0.6414509974547778
abababaF0.07
aF-1.0
abag0
(g153
g2
Ntp526
Rp527
(lp528
g0
(g22
g2
Ntp529
Rp530
(lp531
g0
(g26
g2
Ntp532
Rp533
(lp534
I0
ag0
(g30
g2
Ntp535
Rp536
(lp537
I0
aI0
abag94
abag0
(g35
g2
Ntp538
Rp539
(lp540
g0
(g39
g2
Ntp541
Rp542
(lp543
F0.581848720349036
aF0.37632116390939524
aF0.3458198812985057
abag0
(g43
g2
Ntp544
Rp545
(lp546
F-0.6558731655374604
aF0.2796442810897982
aF-0.2831432228500472
aF0.6414509974547778
abababaF0.19643788119700512
aF-1.0
abag0
(g153
g2
Ntp547
Rp548
(lp549
g0
(g22
g2
Ntp550
Rp551
(lp552
g0
(g26
g2
Ntp553
Rp554
(lp555
I0
ag0
(g30
g2
Ntp556
Rp557
(lp558
I0
aI0
abag94
abag0
(g35
g2
Ntp559
Rp560
(lp561
g0
(g39
g2
Ntp562
Rp563
(lp564
F0.581848720349036
aF0.37632116390939524
aF0.3458198812985057
abag0
(g43
g2
Ntp565
Rp566
(lp567
F-0.6558731655374604
aF0.2796442810897982
aF-0.2831432228500472
aF0.6414509974547778
abababaF0.1324
aF-1.0
abasg223
I1
sg224
(dp568
g226
(lp569
F0.07
aF0.19643788119700512
aF0.1324
asg228
(lp570
F-1.0
asg151
(lp571
g0
(g22
g2
Ntp572
Rp573
(lp574
g0
(g26
g2
Ntp575
Rp576
(lp577
I0
ag0
(g30
g2
Ntp578
Rp579
(lp580
I0
aI0
abag94
abag0
(g35
g2
Ntp581
Rp582
(lp583
g0
(g39
g2
Ntp584
Rp585
(lp586
F0.581848720349036
aF0.37632116390939524
aF0.3458198812985057
abag0
(g43
g2
Ntp587
Rp588
(lp589
F-0.6558731655374604
aF0.2796442810897982
aF-0.2831432228500472
aF0.6414509974547778
abababassg249
g0
(g153
g2
Ntp590
Rp591
(lp592
g86
aF0.1324
aF-1.0
absbag0
(g14
g2
Ntp593
Rp594
(dp595
g142
g145
sg146
I01
sg18
g256
sg148
I3
sg149
(lp596
sg152
g258
sg154
g259
sg158
(lp597
g0
(g258
g2
Ntp598
Rp599
(lp600
F10.0
abag0
(g258
g2
Ntp601
Rp602
(lp603
F11.166319547764887
abag0
(g258
g2
Ntp604
Rp605
(lp606
F9.5
abasg223
I1
sg224
(dp607
g273
(lp608
F10.0
aF11.166319547764887
aF9.5
assg249
g0
(g258
g2
Ntp609
Rp610
(lp611
F9.5
absbag0
(g12
g2
Ntp612
Rp613
(dp614
g142
g145
sg146
I01
sg18
S'A Move Fingers primitive'
p615
sg148
I3
sg149
(lp616
S'width'
p617
asg152
cpanda_pbd.srv._MoveFingers
MoveFingersRequest
p618
sg154
(dp619
g617
(lp620
F0.04410567507147789
aF0.08
assg158
(lp621
g0
(g618
g2
Ntp622
Rp623
(lp624
F0.04410567507147789
abag0
(g618
g2
Ntp625
Rp626
(lp627
F0.07660617966030239
abag0
(g618
g2
Ntp628
Rp629
(lp630
F0.0432
abasg223
I1
sg224
(dp631
g617
(lp632
F0.04410567507147789
aF0.07660617966030239
aF0.0432
assg249
g0
(g618
g2
Ntp633
Rp634
(lp635
F0.0432
absbag0
(g8
g2
Ntp636
Rp637
(dp638
g142
g145
sg146
I01
sg18
g147
sg148
I3
sg149
(lp639
g151
asg152
g153
sg154
g155
sg158
(lp640
g0
(g153
g2
Ntp641
Rp642
(lp643
g0
(g22
g2
Ntp644
Rp645
(lp646
g0
(g26
g2
Ntp647
Rp648
(lp649
I0
ag0
(g30
g2
Ntp650
Rp651
(lp652
I0
aI0
abag113
abag0
(g35
g2
Ntp653
Rp654
(lp655
g0
(g39
g2
Ntp656
Rp657
(lp658
F0.44612082019446336
aF-0.04256435300120127
aF0.408240721202241
abag0
(g43
g2
Ntp659
Rp660
(lp661
F0.9998713088044058
aF-0.010703239032880212
aF-0.0070168970835132564
aF-0.009673141128363653
abababaF0.07
aF-1.0
abag0
(g153
g2
Ntp662
Rp663
(lp664
g0
(g22
g2
Ntp665
Rp666
(lp667
g0
(g26
g2
Ntp668
Rp669
(lp670
I0
ag0
(g30
g2
Ntp671
Rp672
(lp673
I0
aI0
abag113
abag0
(g35
g2
Ntp674
Rp675
(lp676
g0
(g39
g2
Ntp677
Rp678
(lp679
F0.44612082019446336
aF-0.04256435300120127
aF0.408240721202241
abag0
(g43
g2
Ntp680
Rp681
(lp682
F0.9998713088044058
aF-0.010703239032880212
aF-0.0070168970835132564
aF-0.009673141128363653
abababaF0.27058820205616896
aF-1.0
abag0
(g153
g2
Ntp683
Rp684
(lp685
g0
(g22
g2
Ntp686
Rp687
(lp688
g0
(g26
g2
Ntp689
Rp690
(lp691
I0
ag0
(g30
g2
Ntp692
Rp693
(lp694
I0
aI0
abag113
abag0
(g35
g2
Ntp695
Rp696
(lp697
g0
(g39
g2
Ntp698
Rp699
(lp700
F0.44612082019446336
aF-0.04256435300120127
aF0.408240721202241
abag0
(g43
g2
Ntp701
Rp702
(lp703
F0.9998713088044058
aF-0.010703239032880212
aF-0.0070168970835132564
aF-0.009673141128363653
abababaF0.1324
aF-1.0
abasg223
I2
sg224
(dp704
g226
(lp705
F0.07
aF0.27058820205616896
aF0.1324
asg228
(lp706
F-1.0
asg151
(lp707
g0
(g22
g2
Ntp708
Rp709
(lp710
g0
(g26
g2
Ntp711
Rp712
(lp713
I0
ag0
(g30
g2
Ntp714
Rp715
(lp716
I0
aI0
abag113
abag0
(g35
g2
Ntp717
Rp718
(lp719
g0
(g39
g2
Ntp720
Rp721
(lp722
F0.44612082019446336
aF-0.04256435300120127
aF0.408240721202241
abag0
(g43
g2
Ntp723
Rp724
(lp725
F0.9998713088044058
aF-0.010703239032880212
aF-0.0070168970835132564
aF-0.009673141128363653
abababassg249
g0
(g153
g2
Ntp726
Rp727
(lp728
g105
aF0.1324
aF-1.0
absbasS'name'
p729
S'A Panda Program'
p730
sb.