(dp0
S'program'
p1
ccopy_reg
_reconstructor
p2
(cpanda_eup.panda_primitive
PandaProgram
p3
c__builtin__
object
p4
Ntp5
Rp6
(dp7
S'effect_of_primitive'
p8
(dp9
cpanda_eup.panda_primitive
ApplyForceFingers
p10
(lp11
I00
aI01
ascpanda_eup.panda_primitive
MoveFingers
p12
(lp13
I00
aI01
ascpanda_eup.panda_primitive
MoveToEE
p14
(lp15
I01
aI00
ascpanda_eup.panda_primitive
UserSync
p16
(lp17
I00
aI00
ascpanda_eup.panda_primitive
MoveToContact
p18
(lp19
I01
aI00
assS'description'
p20
S'Empty Description'
p21
sS'arm_state_list'
p22
(lp23
g2
(cgeometry_msgs.msg._PoseStamped
PoseStamped
p24
g4
Ntp25
Rp26
(lp27
g2
(cstd_msgs.msg._Header
Header
p28
g4
Ntp29
Rp30
(lp31
I0
ag2
(cgenpy.rostime
Time
p32
g4
Ntp33
Rp34
(lp35
I0
aI0
abaS'panda_link0'
p36
abag2
(cgeometry_msgs.msg._Pose
Pose
p37
g4
Ntp38
Rp39
(lp40
g2
(cgeometry_msgs.msg._Point
Point
p41
g4
Ntp42
Rp43
(lp44
F0.4833974233623748
aF0.007318751177980708
aF0.3904495689279949
abag2
(cgeometry_msgs.msg._Quaternion
Quaternion
p45
g4
Ntp46
Rp47
(lp48
F0.9993500431690824
aF-0.014042189921340717
aF-0.02007113406023331
aF-0.026447262574839425
abababag2
(g24
g4
Ntp49
Rp50
(lp51
g2
(g28
g4
Ntp52
Rp53
(lp54
I0
ag2
(g32
g4
Ntp55
Rp56
(lp57
I0
aI0
abaS'panda_link0'
p58
abag2
(g37
g4
Ntp59
Rp60
(lp61
g2
(g41
g4
Ntp62
Rp63
(lp64
F0.4991506121333629
aF0.004612034654164928
aF0.021165581760432373
abag2
(g45
g4
Ntp65
Rp66
(lp67
F0.9993428861551469
aF-0.034170889584084624
aF0.007721120243135218
aF-0.009302177074464686
abababag2
(g24
g4
Ntp68
Rp69
(lp70
g2
(g28
g4
Ntp71
Rp72
(lp73
I0
ag2
(g32
g4
Ntp74
Rp75
(lp76
I0
aI0
abaS'panda_link0'
p77
abag2
(g37
g4
Ntp78
Rp79
(lp80
g2
(g41
g4
Ntp81
Rp82
(lp83
F0.6404225030201885
aF-0.21899515188976365
aF0.31947401035356376
abag2
(g45
g4
Ntp84
Rp85
(lp86
F0.8476936441278499
aF-0.15503337362532482
aF0.5028616917286283
aF0.06715845262823286
abababag2
(g24
g4
Ntp87
Rp88
(lp89
g2
(g28
g4
Ntp90
Rp91
(lp92
I0
ag2
(g32
g4
Ntp93
Rp94
(lp95
I0
aI0
abaS'panda_link0'
p96
abag2
(g37
g4
Ntp97
Rp98
(lp99
g2
(g41
g4
Ntp100
Rp101
(lp102
F0.48697273191184176
aF-0.0003249795766055996
aF0.3672047165651558
abag2
(g45
g4
Ntp103
Rp104
(lp105
F0.9986485219265587
aF-0.028677903984510297
aF0.042164274523526495
aF-0.010043974853580964
abababasS'gripper_state_list'
p106
(lp107
g2
(cpanda_eup.panda_primitive
GripperState
p108
g4
Ntp109
Rp110
(dp111
S'width'
p112
F0.08
sS'force'
p113
F0.0
sbag2
(g108
g4
Ntp114
Rp115
(dp116
g112
F0.031964562833309174
sg113
F32.0
sbag2
(g108
g4
Ntp117
Rp118
(dp119
g112
F0.061999183148145676
sg113
F0.0
sbasS'primitives'
p120
(lp121
g2
(g18
g4
Ntp122
Rp123
(dp124
S'status'
p125
cpanda_eup.panda_primitive
PandaPrimitiveStatus
p126
(I1
tp127
Rp128
sS'revertible'
p129
I01
sg20
S'A Move to Contact primitive'
p130
sS'parameters_range_history'
p131
(dp132
S'force_threshold'
p133
(lp134
(lp135
F11.899999999999999
aF15.799999999999999
aa(lp136
F7.4
aF11.3
aa(lp137
F5.0
aF7.699999999999999
aa(lp138
F5.0
aF6.8
aasS'position_speed'
p139
(lp140
(lp141
F0.10599999999999998
aF0.1924
aa(lp142
F0.1924
aF0.23559999999999998
aa(lp143
F0.21639999999999998
aF0.25
aa(lp144
F0.1828
aF0.25
aa(lp145
F0.1588
aF0.20679999999999998
aa(lp146
F0.1396
aF0.1876
aassS'starting_arm_state_index'
p147
I0
sS'parameters_with_effects_on_robot_state'
p148
(lp149
S'pose'
p150
aS'force_threshold'
p151
aS'torque_threshold'
p152
asS'expected_container'
p153
cpanda_pbd.msg._MoveToContactGoal
MoveToContactGoal
p154
sS'gui_tunable_parameter_strict_ranges'
p155
(dp156
g133
(lp157
F5.0
aF20.0
asg139
(lp158
F0.01
aF0.25
assS'container_update_history'
p159
(lp160
g2
(g154
g4
Ntp161
Rp162
(lp163
g2
(g24
g4
Ntp164
Rp165
(lp166
g2
(g28
g4
Ntp167
Rp168
(lp169
I0
ag2
(g32
g4
Ntp170
Rp171
(lp172
I0
aI0
abaS'panda_link0'
p173
abag2
(g37
g4
Ntp174
Rp175
(lp176
g2
(g41
g4
Ntp177
Rp178
(lp179
F0.5069132714754178
aF0.004873624607929537
aF0.027077189596690976
abag2
(g45
g4
Ntp180
Rp181
(lp182
F0.9995143312059889
aF-0.02583181235790082
aF0.016166211683465017
aF-0.006517114695673689
abababaF0.025594193544656595
aF-1.0
aF13.220618814752655
aF10.0
abag2
(g154
g4
Ntp183
Rp184
(lp185
g2
(g24
g4
Ntp186
Rp187
(lp188
g2
(g28
g4
Ntp189
Rp190
(lp191
I0
ag2
(g32
g4
Ntp192
Rp193
(lp194
I0
aI0
abag173
abag2
(g37
g4
Ntp195
Rp196
(lp197
g2
(g41
g4
Ntp198
Rp199
(lp200
F0.5069132714754178
aF0.004873624607929537
aF0.027077189596690976
abag2
(g45
g4
Ntp201
Rp202
(lp203
F0.9995143312059889
aF-0.02583181235790082
aF0.016166211683465017
aF-0.006517114695673689
abababaF0.025594193544656595
aF-1.0
aF12.2
aF10.0
abag2
(g154
g4
Ntp204
Rp205
(lp206
g2
(g24
g4
Ntp207
Rp208
(lp209
g2
(g28
g4
Ntp210
Rp211
(lp212
I0
ag2
(g32
g4
Ntp213
Rp214
(lp215
I0
aI0
abag173
abag2
(g37
g4
Ntp216
Rp217
(lp218
g2
(g41
g4
Ntp219
Rp220
(lp221
F0.5069132714754178
aF0.004873624607929537
aF0.027077189596690976
abag2
(g45
g4
Ntp222
Rp223
(lp224
F0.9995143312059889
aF-0.02583181235790082
aF0.016166211683465017
aF-0.006517114695673689
abababaF0.12039999999999998
aF-1.0
aF12.2
aF10.0
abag2
(g154
g4
Ntp225
Rp226
(lp227
g2
(g24
g4
Ntp228
Rp229
(lp230
g2
(g28
g4
Ntp231
Rp232
(lp233
I0
ag2
(g32
g4
Ntp234
Rp235
(lp236
I0
aI0
abag173
abag2
(g37
g4
Ntp237
Rp238
(lp239
g2
(g41
g4
Ntp240
Rp241
(lp242
F0.5069132714754178
aF0.004873624607929537
aF0.027077189596690976
abag2
(g45
g4
Ntp243
Rp244
(lp245
F0.9995143312059889
aF-0.02583181235790082
aF0.016166211683465017
aF-0.006517114695673689
abababaF0.12039999999999998
aF-1.0
aF13.4
aF10.0
abag2
(g154
g4
Ntp246
Rp247
(lp248
g2
(g24
g4
Ntp249
Rp250
(lp251
g2
(g28
g4
Ntp252
Rp253
(lp254
I0
ag2
(g32
g4
Ntp255
Rp256
(lp257
I0
aI0
abag173
abag2
(g37
g4
Ntp258
Rp259
(lp260
g2
(g41
g4
Ntp261
Rp262
(lp263
F0.5069132714754178
aF0.004873624607929537
aF0.027077189596690976
abag2
(g45
g4
Ntp264
Rp265
(lp266
F0.9995143312059889
aF-0.02583181235790082
aF0.016166211683465017
aF-0.006517114695673689
abababaF0.1588
aF-1.0
aF13.4
aF10.0
abag2
(g154
g4
Ntp267
Rp268
(lp269
g2
(g24
g4
Ntp270
Rp271
(lp272
g2
(g28
g4
Ntp273
Rp274
(lp275
I0
ag2
(g32
g4
Ntp276
Rp277
(lp278
I0
aI0
abag173
abag2
(g37
g4
Ntp279
Rp280
(lp281
g2
(g41
g4
Ntp282
Rp283
(lp284
F0.5069132714754178
aF0.004873624607929537
aF0.027077189596690976
abag2
(g45
g4
Ntp285
Rp286
(lp287
F0.9995143312059889
aF-0.02583181235790082
aF0.016166211683465017
aF-0.006517114695673689
abababaF0.1588
aF-1.0
aF9.5
aF10.0
abag2
(g154
g4
Ntp288
Rp289
(lp290
g2
(g24
g4
Ntp291
Rp292
(lp293
g2
(g28
g4
Ntp294
Rp295
(lp296
I0
ag2
(g32
g4
Ntp297
Rp298
(lp299
I0
aI0
abag173
abag2
(g37
g4
Ntp300
Rp301
(lp302
g2
(g41
g4
Ntp303
Rp304
(lp305
F0.5069132714754178
aF0.004873624607929537
aF0.027077189596690976
abag2
(g45
g4
Ntp306
Rp307
(lp308
F0.9995143312059889
aF-0.02583181235790082
aF0.016166211683465017
aF-0.006517114695673689
abababaF0.21159999999999998
aF-1.0
aF9.5
aF10.0
abag2
(g154
g4
Ntp309
Rp310
(lp311
g2
(g24
g4
Ntp312
Rp313
(lp314
g2
(g28
g4
Ntp315
Rp316
(lp317
I0
ag2
(g32
g4
Ntp318
Rp319
(lp320
I0
aI0
abag173
abag2
(g37
g4
Ntp321
Rp322
(lp323
g2
(g41
g4
Ntp324
Rp325
(lp326
F0.5069132714754178
aF0.004873624607929537
aF0.027077189596690976
abag2
(g45
g4
Ntp327
Rp328
(lp329
F0.9995143312059889
aF-0.02583181235790082
aF0.016166211683465017
aF-0.006517114695673689
abababaF0.21159999999999998
aF-1.0
aF6.2
aF10.0
abag2
(g154
g4
Ntp330
Rp331
(lp332
g2
(g24
g4
Ntp333
Rp334
(lp335
g2
(g28
g4
Ntp336
Rp337
(lp338
I0
ag2
(g32
g4
Ntp339
Rp340
(lp341
I0
aI0
abag173
abag2
(g37
g4
Ntp342
Rp343
(lp344
g2
(g41
g4
Ntp345
Rp346
(lp347
F0.5069132714754178
aF0.004873624607929537
aF0.027077189596690976
abag2
(g45
g4
Ntp348
Rp349
(lp350
F0.9995143312059889
aF-0.02583181235790082
aF0.016166211683465017
aF-0.006517114695673689
abababaF0.23559999999999998
aF-1.0
aF6.2
aF10.0
abag2
(g154
g4
Ntp351
Rp352
(lp353
g2
(g24
g4
Ntp354
Rp355
(lp356
g2
(g28
g4
Ntp357
Rp358
(lp359
I0
ag2
(g32
g4
Ntp360
Rp361
(lp362
I0
aI0
abag173
abag2
(g37
g4
Ntp363
Rp364
(lp365
g2
(g41
g4
Ntp366
Rp367
(lp368
F0.5069132714754178
aF0.004873624607929537
aF0.027077189596690976
abag2
(g45
g4
Ntp369
Rp370
(lp371
F0.9995143312059889
aF-0.02583181235790082
aF0.016166211683465017
aF-0.006517114695673689
abababaF0.23559999999999998
aF-1.0
aF5.9
aF10.0
abag2
(g154
g4
Ntp372
Rp373
(lp374
g2
(g24
g4
Ntp375
Rp376
(lp377
g2
(g28
g4
Ntp378
Rp379
(lp380
I0
ag2
(g32
g4
Ntp381
Rp382
(lp383
I0
aI0
abag173
abag2
(g37
g4
Ntp384
Rp385
(lp386
g2
(g41
g4
Ntp387
Rp388
(lp389
F0.5069132714754178
aF0.004873624607929537
aF0.027077189596690976
abag2
(g45
g4
Ntp390
Rp391
(lp392
F0.9995143312059889
aF-0.02583181235790082
aF0.016166211683465017
aF-0.006517114695673689
abababaF0.21159999999999998
aF-1.0
aF5.9
aF10.0
abag2
(g154
g4
Ntp393
Rp394
(lp395
g2
(g24
g4
Ntp396
Rp397
(lp398
g2
(g28
g4
Ntp399
Rp400
(lp401
I0
ag2
(g32
g4
Ntp402
Rp403
(lp404
I0
aI0
abag173
abag2
(g37
g4
Ntp405
Rp406
(lp407
g2
(g41
g4
Ntp408
Rp409
(lp410
F0.5069132714754178
aF0.004873624607929537
aF0.027077189596690976
abag2
(g45
g4
Ntp411
Rp412
(lp413
F0.9995143312059889
aF-0.02583181235790082
aF0.016166211683465017
aF-0.006517114695673689
abababaF0.1876
aF-1.0
aF5.9
aF10.0
abag2
(g154
g4
Ntp414
Rp415
(lp416
g2
(g24
g4
Ntp417
Rp418
(lp419
g2
(g28
g4
Ntp420
Rp421
(lp422
I0
ag2
(g32
g4
Ntp423
Rp424
(lp425
I0
aI0
abag173
abag2
(g37
g4
Ntp426
Rp427
(lp428
g2
(g41
g4
Ntp429
Rp430
(lp431
F0.5069132714754178
aF0.004873624607929537
aF0.027077189596690976
abag2
(g45
g4
Ntp432
Rp433
(lp434
F0.9995143312059889
aF-0.02583181235790082
aF0.016166211683465017
aF-0.006517114695673689
abababaF0.1684
aF-1.0
aF5.9
aF10.0
abasS'starting_gripper_state_index'
p435
I0
sS'parameters_update_history'
p436
(dp437
g139
(lp438
F0.025594193544656595
aF0.12039999999999998
aF0.1588
aF0.21159999999999998
aF0.23559999999999998
aF0.21159999999999998
aF0.1876
aF0.1684
asg133
(lp439
F13.220618814752655
aF12.2
aF13.4
aF9.5
aF6.2
aF5.9
asS'pose'
p440
(lp441
g2
(g24
g4
Ntp442
Rp443
(lp444
g2
(g28
g4
Ntp445
Rp446
(lp447
I0
ag2
(g32
g4
Ntp448
Rp449
(lp450
I0
aI0
abag173
abag2
(g37
g4
Ntp451
Rp452
(lp453
g2
(g41
g4
Ntp454
Rp455
(lp456
F0.5069132714754178
aF0.004873624607929537
aF0.027077189596690976
abag2
(g45
g4
Ntp457
Rp458
(lp459
F0.9995143312059889
aF-0.02583181235790082
aF0.016166211683465017
aF-0.006517114695673689
abababasS'rotation_speed'
p460
(lp461
F-1.0
asS'torque_threshold'
p462
(lp463
F10.0
assS'parameter_container'
p464
g2
(g154
g4
Ntp465
Rp466
(lp467
g2
(g24
g4
Ntp468
Rp469
(lp470
g2
(g28
g4
Ntp471
Rp472
(lp473
I0
ag2
(g32
g4
Ntp474
Rp475
(lp476
I0
aI0
abag173
abag2
(g37
g4
Ntp477
Rp478
(lp479
g2
(g41
g4
Ntp480
Rp481
(lp482
F0.5069132714754178
aF0.004873624607929537
aF0.027077189596690976
abag2
(g45
g4
Ntp483
Rp484
(lp485
F0.9995143312059889
aF-0.02583181235790082
aF0.016166211683465017
aF-0.006517114695673689
abababaF0.1684
aF-1.0
aF5.9
aF10.0
absbag2
(g10
g4
Ntp486
Rp487
(dp488
g125
g128
sg129
I01
sg20
S'A Apply Force (with) Fingers primitive'
p489
sg131
(dp490
g113
(lp491
(lp492
F31.200000000000003
aF40.8
aa(lp493
F28.0
aF36.0
aassg147
I1
sg148
(lp494
S'force'
p495
asg153
cpanda_pbd.srv._ApplyForceFingers
ApplyForceFingersRequest
p496
sg155
(dp497
g113
(lp498
F20.0
aF60.0
assg159
(lp499
g2
(g496
g4
Ntp500
Rp501
(lp502
F32.49803040790785
abag2
(g496
g4
Ntp503
Rp504
(lp505
F32.0
abag2
(g496
g4
Ntp506
Rp507
(lp508
F35.2
abag2
(g496
g4
Ntp509
Rp510
(lp511
F32.0
abasg435
I0
sg436
(dp512
g113
(lp513
F32.49803040790785
aF32.0
aF35.2
aF32.0
assg464
g2
(g496
g4
Ntp514
Rp515
(lp516
F32.0
absbag2
(g14
g4
Ntp517
Rp518
(dp519
g125
g128
sg129
I01
sg20
S'A Move to End-Effector primitive'
p520
sg131
(dp521
g139
(lp522
(lp523
F0.2412
aF0.3024
aa(lp524
F0.2888
aF0.3364
aassg147
I1
sg148
(lp525
g150
asg153
cpanda_pbd.msg._MoveToEEGoal
MoveToEEGoal
p526
sg155
(dp527
g139
(lp528
F0.01
aF0.35
assg159
(lp529
g2
(g526
g4
Ntp530
Rp531
(lp532
g2
(g24
g4
Ntp533
Rp534
(lp535
g2
(g28
g4
Ntp536
Rp537
(lp538
I0
ag2
(g32
g4
Ntp539
Rp540
(lp541
I0
aI0
abag77
abag2
(g37
g4
Ntp542
Rp543
(lp544
g2
(g41
g4
Ntp545
Rp546
(lp547
F0.6404225030201885
aF-0.21899515188976365
aF0.31947401035356376
abag2
(g45
g4
Ntp548
Rp549
(lp550
F0.8476936441278499
aF-0.15503337362532482
aF0.5028616917286283
aF0.06715845262823286
abababaF0.234211103846487
aF-1.0
abag2
(g526
g4
Ntp551
Rp552
(lp553
g2
(g24
g4
Ntp554
Rp555
(lp556
g2
(g28
g4
Ntp557
Rp558
(lp559
I0
ag2
(g32
g4
Ntp560
Rp561
(lp562
I0
aI0
abag77
abag2
(g37
g4
Ntp563
Rp564
(lp565
g2
(g41
g4
Ntp566
Rp567
(lp568
F0.6404225030201885
aF-0.21899515188976365
aF0.31947401035356376
abag2
(g45
g4
Ntp569
Rp570
(lp571
F0.8476936441278499
aF-0.15503337362532482
aF0.5028616917286283
aF0.06715845262823286
abababaF0.2276
aF-1.0
abag2
(g526
g4
Ntp572
Rp573
(lp574
g2
(g24
g4
Ntp575
Rp576
(lp577
g2
(g28
g4
Ntp578
Rp579
(lp580
I0
ag2
(g32
g4
Ntp581
Rp582
(lp583
I0
aI0
abag77
abag2
(g37
g4
Ntp584
Rp585
(lp586
g2
(g41
g4
Ntp587
Rp588
(lp589
F0.6404225030201885
aF-0.21899515188976365
aF0.31947401035356376
abag2
(g45
g4
Ntp590
Rp591
(lp592
F0.8476936441278499
aF-0.15503337362532482
aF0.5028616917286283
aF0.06715845262823286
abababaF0.2752
aF-1.0
abag2
(g526
g4
Ntp593
Rp594
(lp595
g2
(g24
g4
Ntp596
Rp597
(lp598
g2
(g28
g4
Ntp599
Rp600
(lp601
I0
ag2
(g32
g4
Ntp602
Rp603
(lp604
I0
aI0
abag77
abag2
(g37
g4
Ntp605
Rp606
(lp607
g2
(g41
g4
Ntp608
Rp609
(lp610
F0.6404225030201885
aF-0.21899515188976365
aF0.31947401035356376
abag2
(g45
g4
Ntp611
Rp612
(lp613
F0.8476936441278499
aF-0.15503337362532482
aF0.5028616917286283
aF0.06715845262823286
abababaF0.316
aF-1.0
abasg435
I1
sg436
(dp614
g139
(lp615
F0.234211103846487
aF0.2276
aF0.2752
aF0.316
asg440
(lp616
g2
(g24
g4
Ntp617
Rp618
(lp619
g2
(g28
g4
Ntp620
Rp621
(lp622
I0
ag2
(g32
g4
Ntp623
Rp624
(lp625
I0
aI0
abag77
abag2
(g37
g4
Ntp626
Rp627
(lp628
g2
(g41
g4
Ntp629
Rp630
(lp631
F0.6404225030201885
aF-0.21899515188976365
aF0.31947401035356376
abag2
(g45
g4
Ntp632
Rp633
(lp634
F0.8476936441278499
aF-0.15503337362532482
aF0.5028616917286283
aF0.06715845262823286
abababasg460
(lp635
F-1.0
assg464
g2
(g526
g4
Ntp636
Rp637
(lp638
g69
aF0.316
aF-1.0
absbag2
(g16
g4
Ntp639
Rp640
(dp641
g125
g128
sg129
I01
sg20
S'A User Synchronization primitive'
p642
sg131
(dp643
g133
(lp644
(lp645
F5.0
aF10.0
aassg147
I2
sg148
(lp646
sg153
cpanda_pbd.msg._UserSyncGoal
UserSyncGoal
p647
sg155
(dp648
g133
(lp649
F5.0
aF30.0
assg159
(lp650
g2
(g647
g4
Ntp651
Rp652
(lp653
F16.256548626361457
abag2
(g647
g4
Ntp654
Rp655
(lp656
F7.5
abag2
(g647
g4
Ntp657
Rp658
(lp659
F6.0
abasg435
I1
sg436
(dp660
g133
(lp661
F16.256548626361457
aF7.5
aF6.0
assg464
g2
(g647
g4
Ntp662
Rp663
(lp664
F6.0
absbag2
(g12
g4
Ntp665
Rp666
(dp667
g125
g128
sg129
I01
sg20
S'A Move Fingers primitive'
p668
sg131
(dp669
g112
(lp670
(lp671
F0.04758337885141373
aF0.08
aassg147
I2
sg148
(lp672
S'width'
p673
asg153
cpanda_pbd.srv._MoveFingers
MoveFingersRequest
p674
sg155
(dp675
g673
(lp676
F0.04758337885141373
aF0.08
assg159
(lp677
g2
(g674
g4
Ntp678
Rp679
(lp680
F0.05271944131722171
abag2
(g674
g4
Ntp681
Rp682
(lp683
F0.062400000000000004
abasg435
I1
sg436
(dp684
g112
(lp685
F0.05271944131722171
aF0.062400000000000004
assg464
g2
(g674
g4
Ntp686
Rp687
(lp688
F0.062400000000000004
absbag2
(g14
g4
Ntp689
Rp690
(dp691
g125
g126
(I5
tp692
Rp693
sg129
I01
sg20
g520
sg131
(dp694
g139
(lp695
(lp696
F0.26839999999999997
aF0.35
aassg147
I2
sg148
(lp697
g150
asg153
g526
sg155
g527
sg159
(lp698
g2
(g526
g4
Ntp699
Rp700
(lp701
g2
(g24
g4
Ntp702
Rp703
(lp704
g2
(g28
g4
Ntp705
Rp706
(lp707
I0
ag2
(g32
g4
Ntp708
Rp709
(lp710
I0
aI0
abag96
abag2
(g37
g4
Ntp711
Rp712
(lp713
g2
(g41
g4
Ntp714
Rp715
(lp716
F0.48697273191184176
aF-0.0003249795766055996
aF0.3672047165651558
abag2
(g45
g4
Ntp717
Rp718
(lp719
F0.9986485219265587
aF-0.028677903984510297
aF0.042164274523526495
aF-0.010043974853580964
abababaF0.24478188162554357
aF-1.0
abag2
(g526
g4
Ntp720
Rp721
(lp722
g2
(g24
g4
Ntp723
Rp724
(lp725
g2
(g28
g4
Ntp726
Rp727
(lp728
I0
ag2
(g32
g4
Ntp729
Rp730
(lp731
I0
aI0
abag96
abag2
(g37
g4
Ntp732
Rp733
(lp734
g2
(g41
g4
Ntp735
Rp736
(lp737
F0.48697273191184176
aF-0.0003249795766055996
aF0.3672047165651558
abag2
(g45
g4
Ntp738
Rp739
(lp740
F0.9986485219265587
aF-0.028677903984510297
aF0.042164274523526495
aF-0.010043974853580964
abababaF0.3024
aF-1.0
abasg435
I2
sg436
(dp741
g139
(lp742
F0.24478188162554357
aF0.3024
asg440
(lp743
g2
(g24
g4
Ntp744
Rp745
(lp746
g2
(g28
g4
Ntp747
Rp748
(lp749
I0
ag2
(g32
g4
Ntp750
Rp751
(lp752
I0
aI0
abag96
abag2
(g37
g4
Ntp753
Rp754
(lp755
g2
(g41
g4
Ntp756
Rp757
(lp758
F0.48697273191184176
aF-0.0003249795766055996
aF0.3672047165651558
abag2
(g45
g4
Ntp759
Rp760
(lp761
F0.9986485219265587
aF-0.028677903984510297
aF0.042164274523526495
aF-0.010043974853580964
abababasg460
(lp762
F-1.0
assg464
g2
(g526
g4
Ntp763
Rp764
(lp765
g88
aF0.3024
aF-1.0
absbasS'name'
p766
S'A Panda Program'
p767
sbsS'wallclock_time'
p768
F468.4069449901581
sS'execution_timeseries'
p769
(lp770
F1568013320.556806
aF1568013358.749242
aF1568013391.823426
aF1568013417.825982
aF1568013443.263846
aF1568013464.613639
aF1568013482.450556
aF1568013503.416322
aF1568013524.829227
aF1568013541.997166
aF1568013561.808058
aF1568013590.342307
aF1568013610.22046
aF1568013633.138008
aF1568013689.278306
aF1568013726.206717
asS'tuning_timeseries'
p771
(lp772
F1568013320.556802
aF1568013358.734845
aF1568013391.803731
aF1568013417.813303
aF1568013443.249536
aF1568013464.598492
aF1568013482.42613
aF1568013503.416315
aF1568013524.815413
aF1568013541.982617
aF1568013561.808052
aF1568013590.327467
aF1568013610.20425
aF1568013633.126663
aF1568013689.278301
aF1568013726.192861
aF1568013744.663809
as.