ccopy_reg
_reconstructor
p0
(cpanda_eup.panda_primitive
PandaProgram
p1
c__builtin__
object
p2
Ntp3
Rp4
(dp5
S'effect_of_primitive'
p6
(dp7
cpanda_eup.panda_primitive
UserSync
p8
(lp9
I00
aI00
ascpanda_eup.panda_primitive
MoveFingers
p10
(lp11
I00
aI01
ascpanda_eup.panda_primitive
ApplyForceFingers
p12
(lp13
I00
aI01
ascpanda_eup.panda_primitive
MoveToEE
p14
(lp15
I01
aI00
ascpanda_eup.panda_primitive
MoveToContact
p16
(lp17
I01
aI00
assS'description'
p18
S'Empty Description'
p19
sS'arm_state_list'
p20
(lp21
g0
(cgeometry_msgs.msg._PoseStamped
PoseStamped
p22
g2
Ntp23
Rp24
(lp25
g0
(cstd_msgs.msg._Header
Header
p26
g2
Ntp27
Rp28
(lp29
I0
ag0
(cgenpy.rostime
Time
p30
g2
Ntp31
Rp32
(lp33
I0
aI0
abaS'panda_link0'
p34
abag0
(cgeometry_msgs.msg._Pose
Pose
p35
g2
Ntp36
Rp37
(lp38
g0
(cgeometry_msgs.msg._Point
Point
p39
g2
Ntp40
Rp41
(lp42
F0.4833974233623748
aF0.007318751177980708
aF0.3904495689279949
abag0
(cgeometry_msgs.msg._Quaternion
Quaternion
p43
g2
Ntp44
Rp45
(lp46
F0.9993500431690824
aF-0.014042189921340717
aF-0.02007113406023331
aF-0.026447262574839425
abababag0
(g22
g2
Ntp47
Rp48
(lp49
g0
(g26
g2
Ntp50
Rp51
(lp52
I0
ag0
(g30
g2
Ntp53
Rp54
(lp55
I0
aI0
abaS'panda_link0'
p56
abag0
(g35
g2
Ntp57
Rp58
(lp59
g0
(g39
g2
Ntp60
Rp61
(lp62
F0.5069132714754178
aF0.004873624607929537
aF0.027077189596690976
abag0
(g43
g2
Ntp63
Rp64
(lp65
F0.9995143312059889
aF-0.02583181235790082
aF0.016166211683465017
aF-0.006517114695673689
abababag0
(g22
g2
Ntp66
Rp67
(lp68
g0
(g26
g2
Ntp69
Rp70
(lp71
I0
ag0
(g30
g2
Ntp72
Rp73
(lp74
I0
aI0
abaS'panda_link0'
p75
abag0
(g35
g2
Ntp76
Rp77
(lp78
g0
(g39
g2
Ntp79
Rp80
(lp81
F0.6404225030201885
aF-0.21899515188976365
aF0.31947401035356376
abag0
(g43
g2
Ntp82
Rp83
(lp84
F0.8476936441278499
aF-0.15503337362532482
aF0.5028616917286283
aF0.06715845262823286
abababag0
(g22
g2
Ntp85
Rp86
(lp87
g0
(g26
g2
Ntp88
Rp89
(lp90
I0
ag0
(g30
g2
Ntp91
Rp92
(lp93
I0
aI0
abaS'panda_link0'
p94
abag0
(g35
g2
Ntp95
Rp96
(lp97
g0
(g39
g2
Ntp98
Rp99
(lp100
F0.48697273191184176
aF-0.0003249795766055996
aF0.3672047165651558
abag0
(g43
g2
Ntp101
Rp102
(lp103
F0.9986485219265587
aF-0.028677903984510297
aF0.042164274523526495
aF-0.010043974853580964
abababasS'gripper_state_list'
p104
(lp105
g0
(cpanda_eup.panda_primitive
GripperState
p106
g2
Ntp107
Rp108
(dp109
S'width'
p110
F0.08
sS'force'
p111
F0.0
sbag0
(g106
g2
Ntp112
Rp113
(dp114
g110
F0.031723566353321075
sg111
F20.0
sbag0
(g106
g2
Ntp115
Rp116
(dp117
g110
F0.04758337885141373
sg111
F0.0
sbasS'primitives'
p118
(lp119
g0
(g16
g2
Ntp120
Rp121
(dp122
S'status'
p123
cpanda_eup.panda_primitive
PandaPrimitiveStatus
p124
(I1
tp125
Rp126
sS'revertible'
p127
I01
sg18
S'A Move to Contact primitive'
p128
sS'starting_arm_state_index'
p129
I0
sS'parameters_with_effects_on_robot_state'
p130
(lp131
S'pose'
p132
aS'force_threshold'
p133
aS'torque_threshold'
p134
asS'expected_container'
p135
cpanda_pbd.msg._MoveToContactGoal
MoveToContactGoal
p136
sS'gui_tunable_parameter_strict_ranges'
p137
(dp138
S'force_threshold'
p139
(lp140
F5.0
aF20.0
asS'position_speed'
p141
(lp142
F0.01
aF0.25
assS'container_update_history'
p143
(lp144
g0
(g136
g2
Ntp145
Rp146
(lp147
g0
(g22
g2
Ntp148
Rp149
(lp150
g0
(g26
g2
Ntp151
Rp152
(lp153
I0
ag0
(g30
g2
Ntp154
Rp155
(lp156
I0
aI0
abag56
abag0
(g35
g2
Ntp157
Rp158
(lp159
g0
(g39
g2
Ntp160
Rp161
(lp162
F0.5069132714754178
aF0.004873624607929537
aF0.027077189596690976
abag0
(g43
g2
Ntp163
Rp164
(lp165
F0.9995143312059889
aF-0.02583181235790082
aF0.016166211683465017
aF-0.006517114695673689
abababaF0.07
aF-1.0
aF10.0
aF10.0
abag0
(g136
g2
Ntp166
Rp167
(lp168
g0
(g22
g2
Ntp169
Rp170
(lp171
g0
(g26
g2
Ntp172
Rp173
(lp174
I0
ag0
(g30
g2
Ntp175
Rp176
(lp177
I0
aI0
abag56
abag0
(g35
g2
Ntp178
Rp179
(lp180
g0
(g39
g2
Ntp181
Rp182
(lp183
F0.5069132714754178
aF0.004873624607929537
aF0.027077189596690976
abag0
(g43
g2
Ntp184
Rp185
(lp186
F0.9995143312059889
aF-0.02583181235790082
aF0.016166211683465017
aF-0.006517114695673689
abababaF0.019848487552011997
aF-1.0
aF10.0
aF10.0
abag0
(g136
g2
Ntp187
Rp188
(lp189
g0
(g22
g2
Ntp190
Rp191
(lp192
g0
(g26
g2
Ntp193
Rp194
(lp195
I0
ag0
(g30
g2
Ntp196
Rp197
(lp198
I0
aI0
abag56
abag0
(g35
g2
Ntp199
Rp200
(lp201
g0
(g39
g2
Ntp202
Rp203
(lp204
F0.5069132714754178
aF0.004873624607929537
aF0.027077189596690976
abag0
(g43
g2
Ntp205
Rp206
(lp207
F0.9995143312059889
aF-0.02583181235790082
aF0.016166211683465017
aF-0.006517114695673689
abababaF0.019848487552011997
aF-1.0
aF13.979055808948242
aF10.0
abag0
(g136
g2
Ntp208
Rp209
(lp210
g0
(g22
g2
Ntp211
Rp212
(lp213
g0
(g26
g2
Ntp214
Rp215
(lp216
I0
ag0
(g30
g2
Ntp217
Rp218
(lp219
I0
aI0
abag56
abag0
(g35
g2
Ntp220
Rp221
(lp222
g0
(g39
g2
Ntp223
Rp224
(lp225
F0.5069132714754178
aF0.004873624607929537
aF0.027077189596690976
abag0
(g43
g2
Ntp226
Rp227
(lp228
F0.9995143312059889
aF-0.02583181235790082
aF0.016166211683465017
aF-0.006517114695673689
abababaF0.10119999999999998
aF-1.0
aF13.979055808948242
aF10.0
abag0
(g136
g2
Ntp229
Rp230
(lp231
g0
(g22
g2
Ntp232
Rp233
(lp234
g0
(g26
g2
Ntp235
Rp236
(lp237
I0
ag0
(g30
g2
Ntp238
Rp239
(lp240
I0
aI0
abag56
abag0
(g35
g2
Ntp241
Rp242
(lp243
g0
(g39
g2
Ntp244
Rp245
(lp246
F0.5069132714754178
aF0.004873624607929537
aF0.027077189596690976
abag0
(g43
g2
Ntp247
Rp248
(lp249
F0.9995143312059889
aF-0.02583181235790082
aF0.016166211683465017
aF-0.006517114695673689
abababaF0.07719999999999999
aF-1.0
aF13.979055808948242
aF10.0
abasS'starting_gripper_state_index'
p250
I0
sS'parameters_update_history'
p251
(dp252
g133
F13.979055808948242
sS'position_speed'
p253
F0.07719999999999999
sS'rotation_speed'
p254
(lp255
F-1.0
asg134
(lp256
F10.0
asg132
(lp257
g0
(g22
g2
Ntp258
Rp259
(lp260
g0
(g26
g2
Ntp261
Rp262
(lp263
I0
ag0
(g30
g2
Ntp264
Rp265
(lp266
I0
aI0
abag56
abag0
(g35
g2
Ntp267
Rp268
(lp269
g0
(g39
g2
Ntp270
Rp271
(lp272
F0.5069132714754178
aF0.004873624607929537
aF0.027077189596690976
abag0
(g43
g2
Ntp273
Rp274
(lp275
F0.9995143312059889
aF-0.02583181235790082
aF0.016166211683465017
aF-0.006517114695673689
abababassS'parameter_container'
p276
g0
(g136
g2
Ntp277
Rp278
(lp279
g48
aF0.07719999999999999
aF-1.0
aF13.979055808948242
aF10.0
absbag0
(g12
g2
Ntp280
Rp281
(dp282
g123
g126
sg127
I01
sg18
S'A Apply Force (with) Fingers primitive'
p283
sg129
I1
sg130
(lp284
S'force'
p285
asg135
cpanda_pbd.srv._ApplyForceFingers
ApplyForceFingersRequest
p286
sg137
(dp287
g111
(lp288
F20.0
aF60.0
assg143
(lp289
g0
(g286
g2
Ntp290
Rp291
(lp292
F20.0
abag0
(g286
g2
Ntp293
Rp294
(lp295
F28.945245244242944
abag0
(g286
g2
Ntp296
Rp297
(lp298
F24.0
abag0
(g286
g2
Ntp299
Rp300
(lp301
F21.6
abag0
(g286
g2
Ntp302
Rp303
(lp304
F20.0
abasg250
I0
sg251
(dp305
g285
F20.0
ssg276
g0
(g286
g2
Ntp306
Rp307
(lp308
F20.0
absbag0
(g14
g2
Ntp309
Rp310
(dp311
g123
g126
sg127
I01
sg18
S'A Move to End-Effector primitive'
p312
sg129
I1
sg130
(lp313
g132
asg135
cpanda_pbd.msg._MoveToEEGoal
MoveToEEGoal
p314
sg137
(dp315
g141
(lp316
F0.01
aF0.35
assg143
(lp317
g0
(g314
g2
Ntp318
Rp319
(lp320
g0
(g22
g2
Ntp321
Rp322
(lp323
g0
(g26
g2
Ntp324
Rp325
(lp326
I0
ag0
(g30
g2
Ntp327
Rp328
(lp329
I0
aI0
abag75
abag0
(g35
g2
Ntp330
Rp331
(lp332
g0
(g39
g2
Ntp333
Rp334
(lp335
F0.6404225030201885
aF-0.21899515188976365
aF0.31947401035356376
abag0
(g43
g2
Ntp336
Rp337
(lp338
F0.8476936441278499
aF-0.15503337362532482
aF0.5028616917286283
aF0.06715845262823286
abababaF0.07
aF-1.0
abag0
(g314
g2
Ntp339
Rp340
(lp341
g0
(g22
g2
Ntp342
Rp343
(lp344
g0
(g26
g2
Ntp345
Rp346
(lp347
I0
ag0
(g30
g2
Ntp348
Rp349
(lp350
I0
aI0
abag75
abag0
(g35
g2
Ntp351
Rp352
(lp353
g0
(g39
g2
Ntp354
Rp355
(lp356
F0.6404225030201885
aF-0.21899515188976365
aF0.31947401035356376
abag0
(g43
g2
Ntp357
Rp358
(lp359
F0.8476936441278499
aF-0.15503337362532482
aF0.5028616917286283
aF0.06715845262823286
abababaF0.14733718046874034
aF-1.0
abasg250
I1
sg251
(dp360
g253
F0.14733718046874034
sg254
(lp361
F-1.0
asg132
(lp362
g0
(g22
g2
Ntp363
Rp364
(lp365
g0
(g26
g2
Ntp366
Rp367
(lp368
I0
ag0
(g30
g2
Ntp369
Rp370
(lp371
I0
aI0
abag75
abag0
(g35
g2
Ntp372
Rp373
(lp374
g0
(g39
g2
Ntp375
Rp376
(lp377
F0.6404225030201885
aF-0.21899515188976365
aF0.31947401035356376
abag0
(g43
g2
Ntp378
Rp379
(lp380
F0.8476936441278499
aF-0.15503337362532482
aF0.5028616917286283
aF0.06715845262823286
abababassg276
g0
(g314
g2
Ntp381
Rp382
(lp383
g67
aF0.14733718046874034
aF-1.0
absbag0
(g8
g2
Ntp384
Rp385
(dp386
g123
g126
sg127
I01
sg18
S'A User Synchronization primitive'
p387
sg129
I2
sg130
(lp388
sg135
cpanda_pbd.msg._UserSyncGoal
UserSyncGoal
p389
sg137
(dp390
g139
(lp391
F5.0
aF30.0
assg143
(lp392
g0
(g389
g2
Ntp393
Rp394
(lp395
F10.0
abag0
(g389
g2
Ntp396
Rp397
(lp398
F19.57328221671571
abag0
(g389
g2
Ntp399
Rp400
(lp401
F8.0
abag0
(g389
g2
Ntp402
Rp403
(lp404
F6.5
abasg250
I1
sg251
(dp405
g133
F6.5
ssg276
g0
(g389
g2
Ntp406
Rp407
(lp408
F6.5
absbag0
(g10
g2
Ntp409
Rp410
(dp411
g123
g126
sg127
I01
sg18
S'A Move Fingers primitive'
p412
sg129
I2
sg130
(lp413
S'width'
p414
asg135
cpanda_pbd.srv._MoveFingers
MoveFingersRequest
p415
sg137
(dp416
g414
(lp417
F0.04758337885141373
aF0.08
assg143
(lp418
g0
(g415
g2
Ntp419
Rp420
(lp421
F0.04758337885141373
abag0
(g415
g2
Ntp422
Rp423
(lp424
F0.050149429173784045
abasg250
I1
sg251
(dp425
g414
F0.050149429173784045
ssg276
g0
(g415
g2
Ntp426
Rp427
(lp428
F0.050149429173784045
absbag0
(g14
g2
Ntp429
Rp430
(dp431
g123
g126
sg127
I01
sg18
g312
sg129
I2
sg130
(lp432
g132
asg135
g314
sg137
g315
sg143
(lp433
g0
(g314
g2
Ntp434
Rp435
(lp436
g0
(g22
g2
Ntp437
Rp438
(lp439
g0
(g26
g2
Ntp440
Rp441
(lp442
I0
ag0
(g30
g2
Ntp443
Rp444
(lp445
I0
aI0
abag94
abag0
(g35
g2
Ntp446
Rp447
(lp448
g0
(g39
g2
Ntp449
Rp450
(lp451
F0.48697273191184176
aF-0.0003249795766055996
aF0.3672047165651558
abag0
(g43
g2
Ntp452
Rp453
(lp454
F0.9986485219265587
aF-0.028677903984510297
aF0.042164274523526495
aF-0.010043974853580964
abababaF0.07
aF-1.0
abag0
(g314
g2
Ntp455
Rp456
(lp457
g0
(g22
g2
Ntp458
Rp459
(lp460
g0
(g26
g2
Ntp461
Rp462
(lp463
I0
ag0
(g30
g2
Ntp464
Rp465
(lp466
I0
aI0
abag94
abag0
(g35
g2
Ntp467
Rp468
(lp469
g0
(g39
g2
Ntp470
Rp471
(lp472
F0.48697273191184176
aF-0.0003249795766055996
aF0.3672047165651558
abag0
(g43
g2
Ntp473
Rp474
(lp475
F0.9986485219265587
aF-0.028677903984510297
aF0.042164274523526495
aF-0.010043974853580964
abababaF0.015796896046893768
aF-1.0
abag0
(g314
g2
Ntp476
Rp477
(lp478
g0
(g22
g2
Ntp479
Rp480
(lp481
g0
(g26
g2
Ntp482
Rp483
(lp484
I0
ag0
(g30
g2
Ntp485
Rp486
(lp487
I0
aI0
abag94
abag0
(g35
g2
Ntp488
Rp489
(lp490
g0
(g39
g2
Ntp491
Rp492
(lp493
F0.48697273191184176
aF-0.0003249795766055996
aF0.3672047165651558
abag0
(g43
g2
Ntp494
Rp495
(lp496
F0.9986485219265587
aF-0.028677903984510297
aF0.042164274523526495
aF-0.010043974853580964
abababaF0.10519999999999999
aF-1.0
abag0
(g314
g2
Ntp497
Rp498
(lp499
g0
(g22
g2
Ntp500
Rp501
(lp502
g0
(g26
g2
Ntp503
Rp504
(lp505
I0
ag0
(g30
g2
Ntp506
Rp507
(lp508
I0
aI0
abag94
abag0
(g35
g2
Ntp509
Rp510
(lp511
g0
(g39
g2
Ntp512
Rp513
(lp514
F0.48697273191184176
aF-0.0003249795766055996
aF0.3672047165651558
abag0
(g43
g2
Ntp515
Rp516
(lp517
F0.9986485219265587
aF-0.028677903984510297
aF0.042164274523526495
aF-0.010043974853580964
abababaF0.0712
aF-1.0
abasg250
I2
sg251
(dp518
g253
F0.0712
sg254
(lp519
F-1.0
asg132
(lp520
g0
(g22
g2
Ntp521
Rp522
(lp523
g0
(g26
g2
Ntp524
Rp525
(lp526
I0
ag0
(g30
g2
Ntp527
Rp528
(lp529
I0
aI0
abag94
abag0
(g35
g2
Ntp530
Rp531
(lp532
g0
(g39
g2
Ntp533
Rp534
(lp535
F0.48697273191184176
aF-0.0003249795766055996
aF0.3672047165651558
abag0
(g43
g2
Ntp536
Rp537
(lp538
F0.9986485219265587
aF-0.028677903984510297
aF0.042164274523526495
aF-0.010043974853580964
abababassg276
g0
(g314
g2
Ntp539
Rp540
(lp541
g86
aF0.0712
aF-1.0
absbasS'name'
p542
S'A Panda Program'
p543
sb.