ccopy_reg
_reconstructor
p0
(cpanda_eup.panda_primitive
PandaProgram
p1
c__builtin__
object
p2
Ntp3
Rp4
(dp5
S'effect_of_primitive'
p6
(dp7
cpanda_eup.panda_primitive
MoveFingers
p8
(lp9
I00
aI01
ascpanda_eup.panda_primitive
MoveToContact
p10
(lp11
I01
aI00
ascpanda_eup.panda_primitive
UserSync
p12
(lp13
I00
aI00
ascpanda_eup.panda_primitive
MoveToEE
p14
(lp15
I01
aI00
ascpanda_eup.panda_primitive
ApplyForceFingers
p16
(lp17
I00
aI01
assS'description'
p18
S'Empty Description'
p19
sS'arm_state_list'
p20
(lp21
g0
(cgeometry_msgs.msg._PoseStamped
PoseStamped
p22
g2
Ntp23
Rp24
(lp25
g0
(cstd_msgs.msg._Header
Header
p26
g2
Ntp27
Rp28
(lp29
I0
ag0
(cgenpy.rostime
Time
p30
g2
Ntp31
Rp32
(lp33
I0
aI0
abaS'panda_link0'
p34
abag0
(cgeometry_msgs.msg._Pose
Pose
p35
g2
Ntp36
Rp37
(lp38
g0
(cgeometry_msgs.msg._Point
Point
p39
g2
Ntp40
Rp41
(lp42
F0.5045138365062377
aF-0.265431521081101
aF0.4086585275481172
abag0
(cgeometry_msgs.msg._Quaternion
Quaternion
p43
g2
Ntp44
Rp45
(lp46
F0.9995540503376575
aF-0.02962858766662235
aF0.00040849401323953287
aF-0.003698699650716961
abababag0
(g22
g2
Ntp47
Rp48
(lp49
g0
(g26
g2
Ntp50
Rp51
(lp52
I0
ag0
(g30
g2
Ntp53
Rp54
(lp55
I0
aI0
abaS'panda_link0'
p56
abag0
(g35
g2
Ntp57
Rp58
(lp59
g0
(g39
g2
Ntp60
Rp61
(lp62
F0.5294752097753854
aF-0.23891993409430162
aF0.02570893459679896
abag0
(g43
g2
Ntp63
Rp64
(lp65
F-0.704688659619377
aF0.7085322142558269
aF-0.0335033762754408
aF-0.016538383951495636
abababag0
(g22
g2
Ntp66
Rp67
(lp68
g0
(g26
g2
Ntp69
Rp70
(lp71
I0
ag0
(g30
g2
Ntp72
Rp73
(lp74
I0
aI0
abaS'panda_link0'
p75
abag0
(g35
g2
Ntp76
Rp77
(lp78
g0
(g39
g2
Ntp79
Rp80
(lp81
F0.5135330621125194
aF0.1447598035528938
aF0.029376143926346354
abag0
(g43
g2
Ntp82
Rp83
(lp84
F0.7113107726271735
aF-0.7024001142590177
aF-0.019493847903585736
aF-0.01706030853660445
abababag0
(g22
g2
Ntp85
Rp86
(lp87
g0
(g26
g2
Ntp88
Rp89
(lp90
I0
ag0
(g30
g2
Ntp91
Rp92
(lp93
I0
aI0
abaS'panda_link0'
p94
abag0
(g35
g2
Ntp95
Rp96
(lp97
g0
(g39
g2
Ntp98
Rp99
(lp100
F0.4340239876172547
aF-0.018694378705386674
aF0.36310452212031397
abag0
(g43
g2
Ntp101
Rp102
(lp103
F0.9996651157292086
aF-0.021109210280240997
aF-0.014510167637759988
aF-0.003675958456885042
abababasS'gripper_state_list'
p104
(lp105
g0
(cpanda_eup.panda_primitive
GripperState
p106
g2
Ntp107
Rp108
(dp109
S'width'
p110
F0.08
sS'force'
p111
F0.0
sbasS'primitives'
p112
(lp113
g0
(g14
g2
Ntp114
Rp115
(dp116
S'status'
p117
cpanda_eup.panda_primitive
PandaPrimitiveStatus
p118
(I1
tp119
Rp120
sS'revertible'
p121
I01
sg18
S'A Move to End-Effector primitive'
p122
sS'starting_arm_state_index'
p123
I0
sS'parameters_with_effects_on_robot_state'
p124
(lp125
S'pose'
p126
asS'expected_container'
p127
cpanda_pbd.msg._MoveToEEGoal
MoveToEEGoal
p128
sS'gui_tunable_parameter_strict_ranges'
p129
(dp130
S'position_speed'
p131
(lp132
F0.01
aF0.35
assS'container_update_history'
p133
(lp134
g0
(g128
g2
Ntp135
Rp136
(lp137
g0
(g22
g2
Ntp138
Rp139
(lp140
g0
(g26
g2
Ntp141
Rp142
(lp143
I0
ag0
(g30
g2
Ntp144
Rp145
(lp146
I0
aI0
abag56
abag0
(g35
g2
Ntp147
Rp148
(lp149
g0
(g39
g2
Ntp150
Rp151
(lp152
F0.5294752097753854
aF-0.23891993409430162
aF0.02570893459679896
abag0
(g43
g2
Ntp153
Rp154
(lp155
F-0.704688659619377
aF0.7085322142558269
aF-0.0335033762754408
aF-0.016538383951495636
abababaF0.07
aF-1.0
abag0
(g128
g2
Ntp156
Rp157
(lp158
g0
(g22
g2
Ntp159
Rp160
(lp161
g0
(g26
g2
Ntp162
Rp163
(lp164
I0
ag0
(g30
g2
Ntp165
Rp166
(lp167
I0
aI0
abag56
abag0
(g35
g2
Ntp168
Rp169
(lp170
g0
(g39
g2
Ntp171
Rp172
(lp173
F0.5294752097753854
aF-0.23891993409430162
aF0.02570893459679896
abag0
(g43
g2
Ntp174
Rp175
(lp176
F-0.704688659619377
aF0.7085322142558269
aF-0.0335033762754408
aF-0.016538383951495636
abababaF0.1420659699199145
aF-1.0
abag0
(g128
g2
Ntp177
Rp178
(lp179
g0
(g22
g2
Ntp180
Rp181
(lp182
g0
(g26
g2
Ntp183
Rp184
(lp185
I0
ag0
(g30
g2
Ntp186
Rp187
(lp188
I0
aI0
abag56
abag0
(g35
g2
Ntp189
Rp190
(lp191
g0
(g39
g2
Ntp192
Rp193
(lp194
F0.5294752097753854
aF-0.23891993409430162
aF0.02570893459679896
abag0
(g43
g2
Ntp195
Rp196
(lp197
F-0.704688659619377
aF0.7085322142558269
aF-0.0335033762754408
aF-0.016538383951495636
abababaF0.2752
aF-1.0
abasS'starting_gripper_state_index'
p198
I0
sS'parameters_update_history'
p199
(dp200
S'position_speed'
p201
(lp202
F0.07
aF0.1420659699199145
aF0.2752
asS'rotation_speed'
p203
(lp204
F-1.0
asg126
(lp205
g0
(g22
g2
Ntp206
Rp207
(lp208
g0
(g26
g2
Ntp209
Rp210
(lp211
I0
ag0
(g30
g2
Ntp212
Rp213
(lp214
I0
aI0
abag56
abag0
(g35
g2
Ntp215
Rp216
(lp217
g0
(g39
g2
Ntp218
Rp219
(lp220
F0.5294752097753854
aF-0.23891993409430162
aF0.02570893459679896
abag0
(g43
g2
Ntp221
Rp222
(lp223
F-0.704688659619377
aF0.7085322142558269
aF-0.0335033762754408
aF-0.016538383951495636
abababassS'parameter_container'
p224
g0
(g128
g2
Ntp225
Rp226
(lp227
g48
aF0.2752
aF-1.0
absbag0
(g10
g2
Ntp228
Rp229
(dp230
g117
g120
sg121
I01
sg18
S'A Move to Contact primitive'
p231
sg123
I1
sg124
(lp232
g126
aS'force_threshold'
p233
aS'torque_threshold'
p234
asg127
cpanda_pbd.msg._MoveToContactGoal
MoveToContactGoal
p235
sg129
(dp236
S'force_threshold'
p237
(lp238
F5.0
aF20.0
asg131
(lp239
F0.01
aF0.25
assg133
(lp240
g0
(g235
g2
Ntp241
Rp242
(lp243
g0
(g22
g2
Ntp244
Rp245
(lp246
g0
(g26
g2
Ntp247
Rp248
(lp249
I0
ag0
(g30
g2
Ntp250
Rp251
(lp252
I0
aI0
abaS'panda_link0'
p253
abag0
(g35
g2
Ntp254
Rp255
(lp256
g0
(g39
g2
Ntp257
Rp258
(lp259
F0.512283028132677
aF0.1492318253473133
aF0.035534203431970335
abag0
(g43
g2
Ntp260
Rp261
(lp262
F-0.7054319914467646
aF0.7087651220338805
aF0.0038737904474442854
aF-0.0016434656430182005
abababaF0.07
aF-1.0
aF10.0
aF10.0
abag0
(g235
g2
Ntp263
Rp264
(lp265
g0
(g22
g2
Ntp266
Rp267
(lp268
g0
(g26
g2
Ntp269
Rp270
(lp271
I0
ag0
(g30
g2
Ntp272
Rp273
(lp274
I0
aI0
abag253
abag0
(g35
g2
Ntp275
Rp276
(lp277
g0
(g39
g2
Ntp278
Rp279
(lp280
F0.512283028132677
aF0.1492318253473133
aF0.035534203431970335
abag0
(g43
g2
Ntp281
Rp282
(lp283
F-0.7054319914467646
aF0.7087651220338805
aF0.0038737904474442854
aF-0.0016434656430182005
abababaF0.1928982342613555
aF-1.0
aF10.0
aF10.0
abag0
(g235
g2
Ntp284
Rp285
(lp286
g0
(g22
g2
Ntp287
Rp288
(lp289
g0
(g26
g2
Ntp290
Rp291
(lp292
I0
ag0
(g30
g2
Ntp293
Rp294
(lp295
I0
aI0
abag253
abag0
(g35
g2
Ntp296
Rp297
(lp298
g0
(g39
g2
Ntp299
Rp300
(lp301
F0.512283028132677
aF0.1492318253473133
aF0.035534203431970335
abag0
(g43
g2
Ntp302
Rp303
(lp304
F-0.7054319914467646
aF0.7087651220338805
aF0.0038737904474442854
aF-0.0016434656430182005
abababaF0.1928982342613555
aF-1.0
aF9.69931749660502
aF10.0
abag0
(g235
g2
Ntp305
Rp306
(lp307
g0
(g22
g2
Ntp308
Rp309
(lp310
g0
(g26
g2
Ntp311
Rp312
(lp313
I0
ag0
(g30
g2
Ntp314
Rp315
(lp316
I0
aI0
abag253
abag0
(g35
g2
Ntp317
Rp318
(lp319
g0
(g39
g2
Ntp320
Rp321
(lp322
F0.512283028132677
aF0.1492318253473133
aF0.035534203431970335
abag0
(g43
g2
Ntp323
Rp324
(lp325
F-0.7054319914467646
aF0.7087651220338805
aF0.0038737904474442854
aF-0.0016434656430182005
abababaF0.1928982342613555
aF-1.0
aF8.6
aF10.0
abag0
(g235
g2
Ntp326
Rp327
(lp328
g0
(g22
g2
Ntp329
Rp330
(lp331
g0
(g26
g2
Ntp332
Rp333
(lp334
I0
ag0
(g30
g2
Ntp335
Rp336
(lp337
I0
aI0
abag253
abag0
(g35
g2
Ntp338
Rp339
(lp340
g0
(g39
g2
Ntp341
Rp342
(lp343
F0.512283028132677
aF0.1492318253473133
aF0.035534203431970335
abag0
(g43
g2
Ntp344
Rp345
(lp346
F-0.7054319914467646
aF0.7087651220338805
aF0.0038737904474442854
aF-0.0016434656430182005
abababaF0.1876
aF-1.0
aF8.6
aF10.0
abasg198
I0
sg199
(dp347
g233
(lp348
F10.0
aF9.69931749660502
aF8.6
asg201
(lp349
F0.07
aF0.1928982342613555
aF0.1876
asg203
(lp350
F-1.0
asg234
(lp351
F10.0
asg126
(lp352
g0
(g22
g2
Ntp353
Rp354
(lp355
g0
(g26
g2
Ntp356
Rp357
(lp358
I0
ag0
(g30
g2
Ntp359
Rp360
(lp361
I0
aI0
abag253
abag0
(g35
g2
Ntp362
Rp363
(lp364
g0
(g39
g2
Ntp365
Rp366
(lp367
F0.512283028132677
aF0.1492318253473133
aF0.035534203431970335
abag0
(g43
g2
Ntp368
Rp369
(lp370
F-0.7054319914467646
aF0.7087651220338805
aF0.0038737904474442854
aF-0.0016434656430182005
abababassg224
g0
(g235
g2
Ntp371
Rp372
(lp373
g0
(g22
g2
Ntp374
Rp375
(lp376
g0
(g26
g2
Ntp377
Rp378
(lp379
I0
ag0
(g30
g2
Ntp380
Rp381
(lp382
I0
aI0
abag253
abag0
(g35
g2
Ntp383
Rp384
(lp385
g0
(g39
g2
Ntp386
Rp387
(lp388
F0.512283028132677
aF0.1492318253473133
aF0.035534203431970335
abag0
(g43
g2
Ntp389
Rp390
(lp391
F-0.7054319914467646
aF0.7087651220338805
aF0.0038737904474442854
aF-0.0016434656430182005
abababaF0.1876
aF-1.0
aF8.6
aF10.0
absbag0
(g14
g2
Ntp392
Rp393
(dp394
g117
g120
sg121
I01
sg18
g122
sg123
I2
sg124
(lp395
g126
asg127
g128
sg129
g130
sg133
(lp396
g0
(g128
g2
Ntp397
Rp398
(lp399
g0
(g22
g2
Ntp400
Rp401
(lp402
g0
(g26
g2
Ntp403
Rp404
(lp405
I0
ag0
(g30
g2
Ntp406
Rp407
(lp408
I0
aI0
abag94
abag0
(g35
g2
Ntp409
Rp410
(lp411
g0
(g39
g2
Ntp412
Rp413
(lp414
F0.4340239876172547
aF-0.018694378705386674
aF0.36310452212031397
abag0
(g43
g2
Ntp415
Rp416
(lp417
F0.9996651157292086
aF-0.021109210280240997
aF-0.014510167637759988
aF-0.003675958456885042
abababaF0.07
aF-1.0
abag0
(g128
g2
Ntp418
Rp419
(lp420
g0
(g22
g2
Ntp421
Rp422
(lp423
g0
(g26
g2
Ntp424
Rp425
(lp426
I0
ag0
(g30
g2
Ntp427
Rp428
(lp429
I0
aI0
abag94
abag0
(g35
g2
Ntp430
Rp431
(lp432
g0
(g39
g2
Ntp433
Rp434
(lp435
F0.4340239876172547
aF-0.018694378705386674
aF0.36310452212031397
abag0
(g43
g2
Ntp436
Rp437
(lp438
F0.9996651157292086
aF-0.021109210280240997
aF-0.014510167637759988
aF-0.003675958456885042
abababaF0.1840980670799331
aF-1.0
abag0
(g128
g2
Ntp439
Rp440
(lp441
g0
(g22
g2
Ntp442
Rp443
(lp444
g0
(g26
g2
Ntp445
Rp446
(lp447
I0
ag0
(g30
g2
Ntp448
Rp449
(lp450
I0
aI0
abag94
abag0
(g35
g2
Ntp451
Rp452
(lp453
g0
(g39
g2
Ntp454
Rp455
(lp456
F0.4340239876172547
aF-0.018694378705386674
aF0.36310452212031397
abag0
(g43
g2
Ntp457
Rp458
(lp459
F0.9996651157292086
aF-0.021109210280240997
aF-0.014510167637759988
aF-0.003675958456885042
abababaF0.2752
aF-1.0
abasg198
I0
sg199
(dp460
g201
(lp461
F0.07
aF0.1840980670799331
aF0.2752
asg203
(lp462
F-1.0
asg126
(lp463
g0
(g22
g2
Ntp464
Rp465
(lp466
g0
(g26
g2
Ntp467
Rp468
(lp469
I0
ag0
(g30
g2
Ntp470
Rp471
(lp472
I0
aI0
abag94
abag0
(g35
g2
Ntp473
Rp474
(lp475
g0
(g39
g2
Ntp476
Rp477
(lp478
F0.4340239876172547
aF-0.018694378705386674
aF0.36310452212031397
abag0
(g43
g2
Ntp479
Rp480
(lp481
F0.9996651157292086
aF-0.021109210280240997
aF-0.014510167637759988
aF-0.003675958456885042
abababassg224
g0
(g128
g2
Ntp482
Rp483
(lp484
g86
aF0.2752
aF-1.0
absbasS'name'
p485
S'A Panda Program'
p486
sb.