(dp0
S'program'
p1
ccopy_reg
_reconstructor
p2
(cpanda_eup.panda_primitive
PandaProgram
p3
c__builtin__
object
p4
Ntp5
Rp6
(dp7
S'effect_of_primitive'
p8
(dp9
cpanda_eup.panda_primitive
MoveToEE
p10
(lp11
I01
aI00
ascpanda_eup.panda_primitive
ApplyForceFingers
p12
(lp13
I00
aI01
ascpanda_eup.panda_primitive
UserSync
p14
(lp15
I00
aI00
ascpanda_eup.panda_primitive
MoveToContact
p16
(lp17
I01
aI00
ascpanda_eup.panda_primitive
MoveFingers
p18
(lp19
I00
aI01
assS'description'
p20
S'Empty Description'
p21
sS'arm_state_list'
p22
(lp23
g2
(cgeometry_msgs.msg._PoseStamped
PoseStamped
p24
g4
Ntp25
Rp26
(lp27
g2
(cstd_msgs.msg._Header
Header
p28
g4
Ntp29
Rp30
(lp31
I0
ag2
(cgenpy.rostime
Time
p32
g4
Ntp33
Rp34
(lp35
I0
aI0
abaS'panda_link0'
p36
abag2
(cgeometry_msgs.msg._Pose
Pose
p37
g4
Ntp38
Rp39
(lp40
g2
(cgeometry_msgs.msg._Point
Point
p41
g4
Ntp42
Rp43
(lp44
F0.4833974233623748
aF0.007318751177980708
aF0.3904495689279949
abag2
(cgeometry_msgs.msg._Quaternion
Quaternion
p45
g4
Ntp46
Rp47
(lp48
F0.9993500431690824
aF-0.014042189921340717
aF-0.02007113406023331
aF-0.026447262574839425
abababag2
(g24
g4
Ntp49
Rp50
(lp51
g2
(g28
g4
Ntp52
Rp53
(lp54
I0
ag2
(g32
g4
Ntp55
Rp56
(lp57
I0
aI0
abaS'panda_link0'
p58
abag2
(g37
g4
Ntp59
Rp60
(lp61
g2
(g41
g4
Ntp62
Rp63
(lp64
F0.501244848292761
aF0.006015516997646422
aF0.023229139595919934
abag2
(g45
g4
Ntp65
Rp66
(lp67
F0.9992222046216329
aF-0.03237184625679268
aF0.0069659320548646425
aF-0.021413200405759628
abababag2
(g24
g4
Ntp68
Rp69
(lp70
g2
(g28
g4
Ntp71
Rp72
(lp73
I0
ag2
(g32
g4
Ntp74
Rp75
(lp76
I0
aI0
abaS'panda_link0'
p77
abag2
(g37
g4
Ntp78
Rp79
(lp80
g2
(g41
g4
Ntp81
Rp82
(lp83
F0.6404225030201885
aF-0.21899515188976365
aF0.31947401035356376
abag2
(g45
g4
Ntp84
Rp85
(lp86
F0.8476936441278499
aF-0.15503337362532482
aF0.5028616917286283
aF0.06715845262823286
abababag2
(g24
g4
Ntp87
Rp88
(lp89
g2
(g28
g4
Ntp90
Rp91
(lp92
I0
ag2
(g32
g4
Ntp93
Rp94
(lp95
I0
aI0
abaS'panda_link0'
p96
abag2
(g37
g4
Ntp97
Rp98
(lp99
g2
(g41
g4
Ntp100
Rp101
(lp102
F0.48697273191184176
aF-0.0003249795766055996
aF0.3672047165651558
abag2
(g45
g4
Ntp103
Rp104
(lp105
F0.9986485219265587
aF-0.028677903984510297
aF0.042164274523526495
aF-0.010043974853580964
abababasS'gripper_state_list'
p106
(lp107
g2
(cpanda_eup.panda_primitive
GripperState
p108
g4
Ntp109
Rp110
(dp111
S'width'
p112
F0.08
sS'force'
p113
F0.0
sbag2
(g108
g4
Ntp114
Rp115
(dp116
g112
F0.03296006843447685
sg113
F20.0
sbag2
(g108
g4
Ntp117
Rp118
(dp119
g112
F0.06377546489238739
sg113
F0.0
sbasS'primitives'
p120
(lp121
g2
(g16
g4
Ntp122
Rp123
(dp124
S'status'
p125
cpanda_eup.panda_primitive
PandaPrimitiveStatus
p126
(I1
tp127
Rp128
sS'revertible'
p129
I01
sg20
S'A Move to Contact primitive'
p130
sS'parameters_range_history'
p131
(dp132
S'force_threshold'
p133
(lp134
(lp135
F5.0
aF9.8
aa(lp136
F5.0
aF8.0
aasS'position_speed'
p137
(lp138
(lp139
F0.01
aF0.1972
aa(lp140
F0.01
aF0.1492
aa(lp141
F0.10119999999999998
aF0.1492
aassS'starting_arm_state_index'
p142
I0
sS'parameters_with_effects_on_robot_state'
p143
(lp144
S'pose'
p145
aS'force_threshold'
p146
aS'torque_threshold'
p147
asS'expected_container'
p148
cpanda_pbd.msg._MoveToContactGoal
MoveToContactGoal
p149
sS'gui_tunable_parameter_strict_ranges'
p150
(dp151
g133
(lp152
F5.0
aF20.0
asg137
(lp153
F0.01
aF0.25
assS'container_update_history'
p154
(lp155
g2
(g149
g4
Ntp156
Rp157
(lp158
g2
(g24
g4
Ntp159
Rp160
(lp161
g2
(g28
g4
Ntp162
Rp163
(lp164
I0
ag2
(g32
g4
Ntp165
Rp166
(lp167
I0
aI0
abaS'panda_link0'
p168
abag2
(g37
g4
Ntp169
Rp170
(lp171
g2
(g41
g4
Ntp172
Rp173
(lp174
F0.5069132714754178
aF0.004873624607929537
aF0.027077189596690976
abag2
(g45
g4
Ntp175
Rp176
(lp177
F0.9995143312059889
aF-0.02583181235790082
aF0.016166211683465017
aF-0.006517114695673689
abababaF0.20195602134710003
aF-1.0
aF17.937254305481574
aF10.0
abag2
(g149
g4
Ntp178
Rp179
(lp180
g2
(g24
g4
Ntp181
Rp182
(lp183
g2
(g28
g4
Ntp184
Rp185
(lp186
I0
ag2
(g32
g4
Ntp187
Rp188
(lp189
I0
aI0
abag168
abag2
(g37
g4
Ntp190
Rp191
(lp192
g2
(g41
g4
Ntp193
Rp194
(lp195
F0.5069132714754178
aF0.004873624607929537
aF0.027077189596690976
abag2
(g45
g4
Ntp196
Rp197
(lp198
F0.9995143312059889
aF-0.02583181235790082
aF0.016166211683465017
aF-0.006517114695673689
abababaF0.20195602134710003
aF-1.0
aF9.8
aF10.0
abag2
(g149
g4
Ntp199
Rp200
(lp201
g2
(g24
g4
Ntp202
Rp203
(lp204
g2
(g28
g4
Ntp205
Rp206
(lp207
I0
ag2
(g32
g4
Ntp208
Rp209
(lp210
I0
aI0
abag168
abag2
(g37
g4
Ntp211
Rp212
(lp213
g2
(g41
g4
Ntp214
Rp215
(lp216
F0.5069132714754178
aF0.004873624607929537
aF0.027077189596690976
abag2
(g45
g4
Ntp217
Rp218
(lp219
F0.9995143312059889
aF-0.02583181235790082
aF0.016166211683465017
aF-0.006517114695673689
abababaF0.20199999999999999
aF-1.0
aF9.8
aF10.0
abag2
(g149
g4
Ntp220
Rp221
(lp222
g2
(g24
g4
Ntp223
Rp224
(lp225
g2
(g28
g4
Ntp226
Rp227
(lp228
I0
ag2
(g32
g4
Ntp229
Rp230
(lp231
I0
aI0
abag168
abag2
(g37
g4
Ntp232
Rp233
(lp234
g2
(g41
g4
Ntp235
Rp236
(lp237
F0.5069132714754178
aF0.004873624607929537
aF0.027077189596690976
abag2
(g45
g4
Ntp238
Rp239
(lp240
F0.9995143312059889
aF-0.02583181235790082
aF0.016166211683465017
aF-0.006517114695673689
abababaF0.20199999999999999
aF-1.0
aF8.0
aF10.0
abag2
(g149
g4
Ntp241
Rp242
(lp243
g2
(g24
g4
Ntp244
Rp245
(lp246
g2
(g28
g4
Ntp247
Rp248
(lp249
I0
ag2
(g32
g4
Ntp250
Rp251
(lp252
I0
aI0
abag168
abag2
(g37
g4
Ntp253
Rp254
(lp255
g2
(g41
g4
Ntp256
Rp257
(lp258
F0.5069132714754178
aF0.004873624607929537
aF0.027077189596690976
abag2
(g45
g4
Ntp259
Rp260
(lp261
F0.9995143312059889
aF-0.02583181235790082
aF0.016166211683465017
aF-0.006517114695673689
abababaF0.13
aF-1.0
aF8.0
aF10.0
abag2
(g149
g4
Ntp262
Rp263
(lp264
g2
(g24
g4
Ntp265
Rp266
(lp267
g2
(g28
g4
Ntp268
Rp269
(lp270
I0
ag2
(g32
g4
Ntp271
Rp272
(lp273
I0
aI0
abag168
abag2
(g37
g4
Ntp274
Rp275
(lp276
g2
(g41
g4
Ntp277
Rp278
(lp279
F0.5069132714754178
aF0.004873624607929537
aF0.027077189596690976
abag2
(g45
g4
Ntp280
Rp281
(lp282
F0.9995143312059889
aF-0.02583181235790082
aF0.016166211683465017
aF-0.006517114695673689
abababaF0.13
aF-1.0
aF5.0
aF10.0
abag2
(g149
g4
Ntp283
Rp284
(lp285
g2
(g24
g4
Ntp286
Rp287
(lp288
g2
(g28
g4
Ntp289
Rp290
(lp291
I0
ag2
(g32
g4
Ntp292
Rp293
(lp294
I0
aI0
abag168
abag2
(g37
g4
Ntp295
Rp296
(lp297
g2
(g41
g4
Ntp298
Rp299
(lp300
F0.5069132714754178
aF0.004873624607929537
aF0.027077189596690976
abag2
(g45
g4
Ntp301
Rp302
(lp303
F0.9995143312059889
aF-0.02583181235790082
aF0.016166211683465017
aF-0.006517114695673689
abababaF0.1492
aF-1.0
aF5.0
aF10.0
abag2
(g149
g4
Ntp304
Rp305
(lp306
g2
(g24
g4
Ntp307
Rp308
(lp309
g2
(g28
g4
Ntp310
Rp311
(lp312
I0
ag2
(g32
g4
Ntp313
Rp314
(lp315
I0
aI0
abag168
abag2
(g37
g4
Ntp316
Rp317
(lp318
g2
(g41
g4
Ntp319
Rp320
(lp321
F0.5069132714754178
aF0.004873624607929537
aF0.027077189596690976
abag2
(g45
g4
Ntp322
Rp323
(lp324
F0.9995143312059889
aF-0.02583181235790082
aF0.016166211683465017
aF-0.006517114695673689
abababaF0.10119999999999998
aF-1.0
aF5.0
aF10.0
abag2
(g149
g4
Ntp325
Rp326
(lp327
g2
(g24
g4
Ntp328
Rp329
(lp330
g2
(g28
g4
Ntp331
Rp332
(lp333
I0
ag2
(g32
g4
Ntp334
Rp335
(lp336
I0
aI0
abag168
abag2
(g37
g4
Ntp337
Rp338
(lp339
g2
(g41
g4
Ntp340
Rp341
(lp342
F0.5069132714754178
aF0.004873624607929537
aF0.027077189596690976
abag2
(g45
g4
Ntp343
Rp344
(lp345
F0.9995143312059889
aF-0.02583181235790082
aF0.016166211683465017
aF-0.006517114695673689
abababaF0.10119999999999998
aF-1.0
aF8.0
aF10.0
abasS'starting_gripper_state_index'
p346
I0
sS'parameters_update_history'
p347
(dp348
g137
(lp349
F0.20195602134710003
aF0.20199999999999999
aF0.13
aF0.1492
aF0.10119999999999998
asg133
(lp350
F17.937254305481574
aF9.8
aF8.0
aF5.0
aF8.0
asS'pose'
p351
(lp352
g2
(g24
g4
Ntp353
Rp354
(lp355
g2
(g28
g4
Ntp356
Rp357
(lp358
I0
ag2
(g32
g4
Ntp359
Rp360
(lp361
I0
aI0
abag168
abag2
(g37
g4
Ntp362
Rp363
(lp364
g2
(g41
g4
Ntp365
Rp366
(lp367
F0.5069132714754178
aF0.004873624607929537
aF0.027077189596690976
abag2
(g45
g4
Ntp368
Rp369
(lp370
F0.9995143312059889
aF-0.02583181235790082
aF0.016166211683465017
aF-0.006517114695673689
abababasS'rotation_speed'
p371
(lp372
F-1.0
asS'torque_threshold'
p373
(lp374
F10.0
assS'parameter_container'
p375
g2
(g149
g4
Ntp376
Rp377
(lp378
g2
(g24
g4
Ntp379
Rp380
(lp381
g2
(g28
g4
Ntp382
Rp383
(lp384
I0
ag2
(g32
g4
Ntp385
Rp386
(lp387
I0
aI0
abag168
abag2
(g37
g4
Ntp388
Rp389
(lp390
g2
(g41
g4
Ntp391
Rp392
(lp393
F0.5069132714754178
aF0.004873624607929537
aF0.027077189596690976
abag2
(g45
g4
Ntp394
Rp395
(lp396
F0.9995143312059889
aF-0.02583181235790082
aF0.016166211683465017
aF-0.006517114695673689
abababaF0.10119999999999998
aF-1.0
aF8.0
aF10.0
absbag2
(g12
g4
Ntp397
Rp398
(dp399
g125
g128
sg129
I01
sg20
S'A Apply Force (with) Fingers primitive'
p400
sg131
(dp401
g113
(lp402
(lp403
F20.0
aF40.0
aa(lp404
F20.0
aF28.0
aa(lp405
F20.0
aF22.4
aassg142
I1
sg143
(lp406
S'force'
p407
asg148
cpanda_pbd.srv._ApplyForceFingers
ApplyForceFingersRequest
p408
sg150
(dp409
g113
(lp410
F20.0
aF60.0
assg154
(lp411
g2
(g408
g4
Ntp412
Rp413
(lp414
F52.32138059704309
abag2
(g408
g4
Ntp415
Rp416
(lp417
F40.0
abag2
(g408
g4
Ntp418
Rp419
(lp420
F30.4
abag2
(g408
g4
Ntp421
Rp422
(lp423
F22.4
abag2
(g408
g4
Ntp424
Rp425
(lp426
F20.0
abasg346
I0
sg347
(dp427
g113
(lp428
F52.32138059704309
aF40.0
aF30.4
aF22.4
aF20.0
assg375
g2
(g408
g4
Ntp429
Rp430
(lp431
F20.0
absbag2
(g10
g4
Ntp432
Rp433
(dp434
g125
g128
sg129
I01
sg20
S'A Move to End-Effector primitive'
p435
sg131
(dp436
g137
(lp437
(lp438
F0.09839999999999999
aF0.35
aa(lp439
F0.09839999999999999
aF0.3024
aa(lp440
F0.09839999999999999
aF0.2208
aassg142
I1
sg143
(lp441
g145
asg148
cpanda_pbd.msg._MoveToEEGoal
MoveToEEGoal
p442
sg150
(dp443
g137
(lp444
F0.01
aF0.35
assg154
(lp445
g2
(g442
g4
Ntp446
Rp447
(lp448
g2
(g24
g4
Ntp449
Rp450
(lp451
g2
(g28
g4
Ntp452
Rp453
(lp454
I0
ag2
(g32
g4
Ntp455
Rp456
(lp457
I0
aI0
abag77
abag2
(g37
g4
Ntp458
Rp459
(lp460
g2
(g41
g4
Ntp461
Rp462
(lp463
F0.6404225030201885
aF-0.21899515188976365
aF0.31947401035356376
abag2
(g45
g4
Ntp464
Rp465
(lp466
F0.8476936441278499
aF-0.15503337362532482
aF0.5028616917286283
aF0.06715845262823286
abababaF0.21356408784948797
aF-1.0
abag2
(g442
g4
Ntp467
Rp468
(lp469
g2
(g24
g4
Ntp470
Rp471
(lp472
g2
(g28
g4
Ntp473
Rp474
(lp475
I0
ag2
(g32
g4
Ntp476
Rp477
(lp478
I0
aI0
abag77
abag2
(g37
g4
Ntp479
Rp480
(lp481
g2
(g41
g4
Ntp482
Rp483
(lp484
F0.6404225030201885
aF-0.21899515188976365
aF0.31947401035356376
abag2
(g45
g4
Ntp485
Rp486
(lp487
F0.8476936441278499
aF-0.15503337362532482
aF0.5028616917286283
aF0.06715845262823286
abababaF0.11199999999999999
aF-1.0
abag2
(g442
g4
Ntp488
Rp489
(lp490
g2
(g24
g4
Ntp491
Rp492
(lp493
g2
(g28
g4
Ntp494
Rp495
(lp496
I0
ag2
(g32
g4
Ntp497
Rp498
(lp499
I0
aI0
abag77
abag2
(g37
g4
Ntp500
Rp501
(lp502
g2
(g41
g4
Ntp503
Rp504
(lp505
F0.6404225030201885
aF-0.21899515188976365
aF0.31947401035356376
abag2
(g45
g4
Ntp506
Rp507
(lp508
F0.8476936441278499
aF-0.15503337362532482
aF0.5028616917286283
aF0.06715845262823286
abababaF0.3024
aF-1.0
abag2
(g442
g4
Ntp509
Rp510
(lp511
g2
(g24
g4
Ntp512
Rp513
(lp514
g2
(g28
g4
Ntp515
Rp516
(lp517
I0
ag2
(g32
g4
Ntp518
Rp519
(lp520
I0
aI0
abag77
abag2
(g37
g4
Ntp521
Rp522
(lp523
g2
(g41
g4
Ntp524
Rp525
(lp526
F0.6404225030201885
aF-0.21899515188976365
aF0.31947401035356376
abag2
(g45
g4
Ntp527
Rp528
(lp529
F0.8476936441278499
aF-0.15503337362532482
aF0.5028616917286283
aF0.06715845262823286
abababaF0.2004
aF-1.0
abag2
(g442
g4
Ntp530
Rp531
(lp532
g2
(g24
g4
Ntp533
Rp534
(lp535
g2
(g28
g4
Ntp536
Rp537
(lp538
I0
ag2
(g32
g4
Ntp539
Rp540
(lp541
I0
aI0
abag77
abag2
(g37
g4
Ntp542
Rp543
(lp544
g2
(g41
g4
Ntp545
Rp546
(lp547
F0.6404225030201885
aF-0.21899515188976365
aF0.31947401035356376
abag2
(g45
g4
Ntp548
Rp549
(lp550
F0.8476936441278499
aF-0.15503337362532482
aF0.5028616917286283
aF0.06715845262823286
abababaF0.248
aF-1.0
abag2
(g442
g4
Ntp551
Rp552
(lp553
g2
(g24
g4
Ntp554
Rp555
(lp556
g2
(g28
g4
Ntp557
Rp558
(lp559
I0
ag2
(g32
g4
Ntp560
Rp561
(lp562
I0
aI0
abag77
abag2
(g37
g4
Ntp563
Rp564
(lp565
g2
(g41
g4
Ntp566
Rp567
(lp568
F0.6404225030201885
aF-0.21899515188976365
aF0.31947401035356376
abag2
(g45
g4
Ntp569
Rp570
(lp571
F0.8476936441278499
aF-0.15503337362532482
aF0.5028616917286283
aF0.06715845262823286
abababaF0.2208
aF-1.0
abag2
(g442
g4
Ntp572
Rp573
(lp574
g2
(g24
g4
Ntp575
Rp576
(lp577
g2
(g28
g4
Ntp578
Rp579
(lp580
I0
ag2
(g32
g4
Ntp581
Rp582
(lp583
I0
aI0
abag77
abag2
(g37
g4
Ntp584
Rp585
(lp586
g2
(g41
g4
Ntp587
Rp588
(lp589
F0.6404225030201885
aF-0.21899515188976365
aF0.31947401035356376
abag2
(g45
g4
Ntp590
Rp591
(lp592
F0.8476936441278499
aF-0.15503337362532482
aF0.5028616917286283
aF0.06715845262823286
abababaF0.09839999999999999
aF-1.0
abasg346
I1
sg347
(dp593
g137
(lp594
F0.21356408784948797
aF0.11199999999999999
aF0.3024
aF0.2004
aF0.248
aF0.2208
aF0.09839999999999999
asg351
(lp595
g2
(g24
g4
Ntp596
Rp597
(lp598
g2
(g28
g4
Ntp599
Rp600
(lp601
I0
ag2
(g32
g4
Ntp602
Rp603
(lp604
I0
aI0
abag77
abag2
(g37
g4
Ntp605
Rp606
(lp607
g2
(g41
g4
Ntp608
Rp609
(lp610
F0.6404225030201885
aF-0.21899515188976365
aF0.31947401035356376
abag2
(g45
g4
Ntp611
Rp612
(lp613
F0.8476936441278499
aF-0.15503337362532482
aF0.5028616917286283
aF0.06715845262823286
abababasg371
(lp614
F-1.0
assg375
g2
(g442
g4
Ntp615
Rp616
(lp617
g69
aF0.09839999999999999
aF-1.0
absbag2
(g14
g4
Ntp618
Rp619
(dp620
g125
g128
sg129
I01
sg20
S'A User Synchronization primitive'
p621
sg131
(dp622
g133
(lp623
(lp624
F5.0
aF24.0
aa(lp625
F5.0
aF15.0
aa(lp626
F5.0
aF10.0
aassg142
I2
sg143
(lp627
sg148
cpanda_pbd.msg._UserSyncGoal
UserSyncGoal
p628
sg150
(dp629
g133
(lp630
F5.0
aF30.0
assg154
(lp631
g2
(g628
g4
Ntp632
Rp633
(lp634
F18.847333623788813
abag2
(g628
g4
Ntp635
Rp636
(lp637
F24.0
abag2
(g628
g4
Ntp638
Rp639
(lp640
F15.0
abag2
(g628
g4
Ntp641
Rp642
(lp643
F5.0
abag2
(g628
g4
Ntp644
Rp645
(lp646
F13.0
abag2
(g628
g4
Ntp647
Rp648
(lp649
F10.0
abasg346
I1
sg347
(dp650
g133
(lp651
F18.847333623788813
aF24.0
aF15.0
aF5.0
aF13.0
aF10.0
assg375
g2
(g628
g4
Ntp652
Rp653
(lp654
F10.0
absbag2
(g18
g4
Ntp655
Rp656
(dp657
g125
g128
sg129
I01
sg20
S'A Move Fingers primitive'
p658
sg131
(dp659
g112
(lp660
(lp661
F0.04758337885141373
aF0.08
aa(lp662
F0.04758337885141373
aF0.0704
aa(lp663
F0.04758337885141373
aF0.06720000000000001
aa(lp664
F0.049600000000000005
aF0.06720000000000001
aa(lp665
F0.049600000000000005
aF0.064
aassg142
I2
sg143
(lp666
S'width'
p667
asg148
cpanda_pbd.srv._MoveFingers
MoveFingersRequest
p668
sg150
(dp669
g667
(lp670
F0.04758337885141373
aF0.08
assg154
(lp671
g2
(g668
g4
Ntp672
Rp673
(lp674
F0.07346125768560853
abag2
(g668
g4
Ntp675
Rp676
(lp677
F0.0704
abag2
(g668
g4
Ntp678
Rp679
(lp680
F0.049600000000000005
abag2
(g668
g4
Ntp681
Rp682
(lp683
F0.0656
abag2
(g668
g4
Ntp684
Rp685
(lp686
F0.049600000000000005
abag2
(g668
g4
Ntp687
Rp688
(lp689
F0.048
abag2
(g668
g4
Ntp690
Rp691
(lp692
F0.049600000000000005
abag2
(g668
g4
Ntp693
Rp694
(lp695
F0.064
abag2
(g668
g4
Ntp696
Rp697
(lp698
F0.0688
abag2
(g668
g4
Ntp699
Rp700
(lp701
F0.064
abasg346
I1
sg347
(dp702
g112
(lp703
F0.07346125768560853
aF0.0704
aF0.049600000000000005
aF0.0656
aF0.049600000000000005
aF0.048
aF0.049600000000000005
aF0.064
aF0.0688
aF0.064
assg375
g2
(g668
g4
Ntp704
Rp705
(lp706
F0.064
absbag2
(g10
g4
Ntp707
Rp708
(dp709
g125
g126
(I5
tp710
Rp711
sg129
I01
sg20
g435
sg131
(dp712
g137
(lp713
(lp714
F0.01
aF0.35
aa(lp715
F0.09839999999999999
aF0.35
aa(lp716
F0.09839999999999999
aF0.3024
aa(lp717
F0.09839999999999999
aF0.248
aa(lp718
F0.09839999999999999
aF0.2208
aassg142
I2
sg143
(lp719
g145
asg148
g442
sg150
g443
sg154
(lp720
g2
(g442
g4
Ntp721
Rp722
(lp723
g2
(g24
g4
Ntp724
Rp725
(lp726
g2
(g28
g4
Ntp727
Rp728
(lp729
I0
ag2
(g32
g4
Ntp730
Rp731
(lp732
I0
aI0
abag96
abag2
(g37
g4
Ntp733
Rp734
(lp735
g2
(g41
g4
Ntp736
Rp737
(lp738
F0.48697273191184176
aF-0.0003249795766055996
aF0.3672047165651558
abag2
(g45
g4
Ntp739
Rp740
(lp741
F0.9986485219265587
aF-0.028677903984510297
aF0.042164274523526495
aF-0.010043974853580964
abababaF0.06455591658807004
aF-1.0
abag2
(g442
g4
Ntp742
Rp743
(lp744
g2
(g24
g4
Ntp745
Rp746
(lp747
g2
(g28
g4
Ntp748
Rp749
(lp750
I0
ag2
(g32
g4
Ntp751
Rp752
(lp753
I0
aI0
abag96
abag2
(g37
g4
Ntp754
Rp755
(lp756
g2
(g41
g4
Ntp757
Rp758
(lp759
F0.48697273191184176
aF-0.0003249795766055996
aF0.3672047165651558
abag2
(g45
g4
Ntp760
Rp761
(lp762
F0.9986485219265587
aF-0.028677903984510297
aF0.042164274523526495
aF-0.010043974853580964
abababaF0.09839999999999999
aF-1.0
abag2
(g442
g4
Ntp763
Rp764
(lp765
g2
(g24
g4
Ntp766
Rp767
(lp768
g2
(g28
g4
Ntp769
Rp770
(lp771
I0
ag2
(g32
g4
Ntp772
Rp773
(lp774
I0
aI0
abag96
abag2
(g37
g4
Ntp775
Rp776
(lp777
g2
(g41
g4
Ntp778
Rp779
(lp780
F0.48697273191184176
aF-0.0003249795766055996
aF0.3672047165651558
abag2
(g45
g4
Ntp781
Rp782
(lp783
F0.9986485219265587
aF-0.028677903984510297
aF0.042164274523526495
aF-0.010043974853580964
abababaF0.3024
aF-1.0
abag2
(g442
g4
Ntp784
Rp785
(lp786
g2
(g24
g4
Ntp787
Rp788
(lp789
g2
(g28
g4
Ntp790
Rp791
(lp792
I0
ag2
(g32
g4
Ntp793
Rp794
(lp795
I0
aI0
abag96
abag2
(g37
g4
Ntp796
Rp797
(lp798
g2
(g41
g4
Ntp799
Rp800
(lp801
F0.48697273191184176
aF-0.0003249795766055996
aF0.3672047165651558
abag2
(g45
g4
Ntp802
Rp803
(lp804
F0.9986485219265587
aF-0.028677903984510297
aF0.042164274523526495
aF-0.010043974853580964
abababaF0.25479999999999997
aF-1.0
abag2
(g442
g4
Ntp805
Rp806
(lp807
g2
(g24
g4
Ntp808
Rp809
(lp810
g2
(g28
g4
Ntp811
Rp812
(lp813
I0
ag2
(g32
g4
Ntp814
Rp815
(lp816
I0
aI0
abag96
abag2
(g37
g4
Ntp817
Rp818
(lp819
g2
(g41
g4
Ntp820
Rp821
(lp822
F0.48697273191184176
aF-0.0003249795766055996
aF0.3672047165651558
abag2
(g45
g4
Ntp823
Rp824
(lp825
F0.9986485219265587
aF-0.028677903984510297
aF0.042164274523526495
aF-0.010043974853580964
abababaF0.2208
aF-1.0
abag2
(g442
g4
Ntp826
Rp827
(lp828
g2
(g24
g4
Ntp829
Rp830
(lp831
g2
(g28
g4
Ntp832
Rp833
(lp834
I0
ag2
(g32
g4
Ntp835
Rp836
(lp837
I0
aI0
abag96
abag2
(g37
g4
Ntp838
Rp839
(lp840
g2
(g41
g4
Ntp841
Rp842
(lp843
F0.48697273191184176
aF-0.0003249795766055996
aF0.3672047165651558
abag2
(g45
g4
Ntp844
Rp845
(lp846
F0.9986485219265587
aF-0.028677903984510297
aF0.042164274523526495
aF-0.010043974853580964
abababaF0.1596
aF-1.0
abasg346
I2
sg347
(dp847
g137
(lp848
F0.06455591658807004
aF0.09839999999999999
aF0.3024
aF0.25479999999999997
aF0.2208
aF0.1596
asg351
(lp849
g2
(g24
g4
Ntp850
Rp851
(lp852
g2
(g28
g4
Ntp853
Rp854
(lp855
I0
ag2
(g32
g4
Ntp856
Rp857
(lp858
I0
aI0
abag96
abag2
(g37
g4
Ntp859
Rp860
(lp861
g2
(g41
g4
Ntp862
Rp863
(lp864
F0.48697273191184176
aF-0.0003249795766055996
aF0.3672047165651558
abag2
(g45
g4
Ntp865
Rp866
(lp867
F0.9986485219265587
aF-0.028677903984510297
aF0.042164274523526495
aF-0.010043974853580964
abababasg371
(lp868
F-1.0
assg375
g2
(g442
g4
Ntp869
Rp870
(lp871
g88
aF0.1596
aF-1.0
absbasS'name'
p872
S'A Panda Program'
p873
sbsS'wallclock_time'
p874
F868.6128208637238
sS'execution_timeseries'
p875
(lp876
F1567930669.193138
aF1567930707.401682
aF1567930740.563528
aF1567930774.124193
aF1567930797.015291
aF1567930823.127657
aF1567930845.642999
aF1567930872.629236
aF1567930892.526839
aF1567930914.996712
aF1567930935.699549
aF1567930974.554933
aF1567930995.302591
aF1567931015.210172
aF1567931039.433819
aF1567931055.024916
aF1567931073.571221
aF1567931110.917807
aF1567931134.093398
aF1567931146.039151
aF1567931158.336839
aF1567931169.602924
aF1567931190.871084
aF1567931209.503779
aF1567931244.378304
aF1567931256.555262
aF1567931281.785162
aF1567931299.432802
aF1567931313.850321
aF1567931337.576214
aF1567931354.056718
aF1567931399.041823
aF1567931411.268369
aF1567931429.839759
aF1567931447.700277
aF1567931465.391476
asS'tuning_timeseries'
p877
(lp878
F1567930669.193132
aF1567930707.385532
aF1567930740.552011
aF1567930774.108122
aF1567930797.015284
aF1567930823.111578
aF1567930845.642992
aF1567930872.612085
aF1567930892.512099
aF1567930914.983574
aF1567930935.699542
aF1567930974.537088
aF1567930995.283288
aF1567931015.210167
aF1567931039.414534
aF1567931055.024912
aF1567931073.571213
aF1567931110.900191
aF1567931134.075025
aF1567931146.039145
aF1567931158.336834
aF1567931190.851417
aF1567931209.488507
aF1567931244.378299
aF1567931281.76602
aF1567931299.432794
aF1567931313.835165
aF1567931337.576209
aF1567931354.038199
aF1567931399.041817
aF1567931411.251062
aF1567931429.826351
aF1567931447.683093
aF1567931465.373438
aF1567931484.416968
as.