ccopy_reg
_reconstructor
p0
(cpanda_eup.panda_primitive
PandaProgram
p1
c__builtin__
object
p2
Ntp3
Rp4
(dp5
S'effect_of_primitive'
p6
(dp7
cpanda_eup.panda_primitive
MoveToContact
p8
(lp9
I01
aI00
ascpanda_eup.panda_primitive
MoveToEE
p10
(lp11
I01
aI00
ascpanda_eup.panda_primitive
UserSync
p12
(lp13
I00
aI00
ascpanda_eup.panda_primitive
ApplyForceFingers
p14
(lp15
I00
aI01
ascpanda_eup.panda_primitive
MoveFingers
p16
(lp17
I00
aI01
assS'description'
p18
S'Empty Description'
p19
sS'arm_state_list'
p20
(lp21
g0
(cgeometry_msgs.msg._PoseStamped
PoseStamped
p22
g2
Ntp23
Rp24
(lp25
g0
(cstd_msgs.msg._Header
Header
p26
g2
Ntp27
Rp28
(lp29
I0
ag0
(cgenpy.rostime
Time
p30
g2
Ntp31
Rp32
(lp33
I0
aI0
abaS'panda_link0'
p34
abag0
(cgeometry_msgs.msg._Pose
Pose
p35
g2
Ntp36
Rp37
(lp38
g0
(cgeometry_msgs.msg._Point
Point
p39
g2
Ntp40
Rp41
(lp42
F0.4833974233623748
aF0.007318751177980708
aF0.3904495689279949
abag0
(cgeometry_msgs.msg._Quaternion
Quaternion
p43
g2
Ntp44
Rp45
(lp46
F0.9993500431690824
aF-0.014042189921340717
aF-0.02007113406023331
aF-0.026447262574839425
abababag0
(g22
g2
Ntp47
Rp48
(lp49
g0
(g26
g2
Ntp50
Rp51
(lp52
I0
ag0
(g30
g2
Ntp53
Rp54
(lp55
I0
aI0
abaS'panda_link0'
p56
abag0
(g35
g2
Ntp57
Rp58
(lp59
g0
(g39
g2
Ntp60
Rp61
(lp62
F0.5009835953330819
aF0.005251568307149783
aF0.02464226631967842
abag0
(g43
g2
Ntp63
Rp64
(lp65
F0.9990082617216686
aF-0.028839243064754376
aF0.009094391095478526
aF-0.03268154099647927
abababag0
(g22
g2
Ntp66
Rp67
(lp68
g0
(g26
g2
Ntp69
Rp70
(lp71
I0
ag0
(g30
g2
Ntp72
Rp73
(lp74
I0
aI0
abaS'panda_link0'
p75
abag0
(g35
g2
Ntp76
Rp77
(lp78
g0
(g39
g2
Ntp79
Rp80
(lp81
F0.6404225030201885
aF-0.21899515188976365
aF0.31947401035356376
abag0
(g43
g2
Ntp82
Rp83
(lp84
F0.8476936441278499
aF-0.15503337362532482
aF0.5028616917286283
aF0.06715845262823286
abababag0
(g22
g2
Ntp85
Rp86
(lp87
g0
(g26
g2
Ntp88
Rp89
(lp90
I0
ag0
(g30
g2
Ntp91
Rp92
(lp93
I0
aI0
abaS'panda_link0'
p94
abag0
(g35
g2
Ntp95
Rp96
(lp97
g0
(g39
g2
Ntp98
Rp99
(lp100
F0.48697273191184176
aF-0.0003249795766055996
aF0.3672047165651558
abag0
(g43
g2
Ntp101
Rp102
(lp103
F0.9986485219265587
aF-0.028677903984510297
aF0.042164274523526495
aF-0.010043974853580964
abababasS'gripper_state_list'
p104
(lp105
g0
(cpanda_eup.panda_primitive
GripperState
p106
g2
Ntp107
Rp108
(dp109
S'width'
p110
F0.08
sS'force'
p111
F0.0
sbag0
(g106
g2
Ntp112
Rp113
(dp114
g110
F0.03173407167196274
sg111
F23.2
sbag0
(g106
g2
Ntp115
Rp116
(dp117
g110
F0.05738610029220581
sg111
F0.0
sbasS'primitives'
p118
(lp119
g0
(g8
g2
Ntp120
Rp121
(dp122
S'status'
p123
cpanda_eup.panda_primitive
PandaPrimitiveStatus
p124
(I1
tp125
Rp126
sS'revertible'
p127
I01
sg18
S'A Move to Contact primitive'
p128
sS'starting_arm_state_index'
p129
I0
sS'parameters_with_effects_on_robot_state'
p130
(lp131
S'pose'
p132
aS'force_threshold'
p133
aS'torque_threshold'
p134
asS'expected_container'
p135
cpanda_pbd.msg._MoveToContactGoal
MoveToContactGoal
p136
sS'gui_tunable_parameter_strict_ranges'
p137
(dp138
S'force_threshold'
p139
(lp140
F5.0
aF20.0
asS'position_speed'
p141
(lp142
F0.01
aF0.25
assS'container_update_history'
p143
(lp144
g0
(g136
g2
Ntp145
Rp146
(lp147
g0
(g22
g2
Ntp148
Rp149
(lp150
g0
(g26
g2
Ntp151
Rp152
(lp153
I0
ag0
(g30
g2
Ntp154
Rp155
(lp156
I0
aI0
abaS'panda_link0'
p157
abag0
(g35
g2
Ntp158
Rp159
(lp160
g0
(g39
g2
Ntp161
Rp162
(lp163
F0.5069132714754178
aF0.004873624607929537
aF0.027077189596690976
abag0
(g43
g2
Ntp164
Rp165
(lp166
F0.9995143312059889
aF-0.02583181235790082
aF0.016166211683465017
aF-0.006517114695673689
abababaF0.07
aF-1.0
aF10.0
aF10.0
abag0
(g136
g2
Ntp167
Rp168
(lp169
g0
(g22
g2
Ntp170
Rp171
(lp172
g0
(g26
g2
Ntp173
Rp174
(lp175
I0
ag0
(g30
g2
Ntp176
Rp177
(lp178
I0
aI0
abag157
abag0
(g35
g2
Ntp179
Rp180
(lp181
g0
(g39
g2
Ntp182
Rp183
(lp184
F0.5069132714754178
aF0.004873624607929537
aF0.027077189596690976
abag0
(g43
g2
Ntp185
Rp186
(lp187
F0.9995143312059889
aF-0.02583181235790082
aF0.016166211683465017
aF-0.006517114695673689
abababaF0.2000622944978244
aF-1.0
aF10.0
aF10.0
abag0
(g136
g2
Ntp188
Rp189
(lp190
g0
(g22
g2
Ntp191
Rp192
(lp193
g0
(g26
g2
Ntp194
Rp195
(lp196
I0
ag0
(g30
g2
Ntp197
Rp198
(lp199
I0
aI0
abag157
abag0
(g35
g2
Ntp200
Rp201
(lp202
g0
(g39
g2
Ntp203
Rp204
(lp205
F0.5069132714754178
aF0.004873624607929537
aF0.027077189596690976
abag0
(g43
g2
Ntp206
Rp207
(lp208
F0.9995143312059889
aF-0.02583181235790082
aF0.016166211683465017
aF-0.006517114695673689
abababaF0.2000622944978244
aF-1.0
aF16.197477915391246
aF10.0
abag0
(g136
g2
Ntp209
Rp210
(lp211
g0
(g22
g2
Ntp212
Rp213
(lp214
g0
(g26
g2
Ntp215
Rp216
(lp217
I0
ag0
(g30
g2
Ntp218
Rp219
(lp220
I0
aI0
abag157
abag0
(g35
g2
Ntp221
Rp222
(lp223
g0
(g39
g2
Ntp224
Rp225
(lp226
F0.5069132714754178
aF0.004873624607929537
aF0.027077189596690976
abag0
(g43
g2
Ntp227
Rp228
(lp229
F0.9995143312059889
aF-0.02583181235790082
aF0.016166211683465017
aF-0.006517114695673689
abababaF0.2000622944978244
aF-1.0
aF8.6
aF10.0
abag0
(g136
g2
Ntp230
Rp231
(lp232
g0
(g22
g2
Ntp233
Rp234
(lp235
g0
(g26
g2
Ntp236
Rp237
(lp238
I0
ag0
(g30
g2
Ntp239
Rp240
(lp241
I0
aI0
abag157
abag0
(g35
g2
Ntp242
Rp243
(lp244
g0
(g39
g2
Ntp245
Rp246
(lp247
F0.5069132714754178
aF0.004873624607929537
aF0.027077189596690976
abag0
(g43
g2
Ntp248
Rp249
(lp250
F0.9995143312059889
aF-0.02583181235790082
aF0.016166211683465017
aF-0.006517114695673689
abababaF0.10599999999999998
aF-1.0
aF8.6
aF10.0
abag0
(g136
g2
Ntp251
Rp252
(lp253
g0
(g22
g2
Ntp254
Rp255
(lp256
g0
(g26
g2
Ntp257
Rp258
(lp259
I0
ag0
(g30
g2
Ntp260
Rp261
(lp262
I0
aI0
abag157
abag0
(g35
g2
Ntp263
Rp264
(lp265
g0
(g39
g2
Ntp266
Rp267
(lp268
F0.5069132714754178
aF0.004873624607929537
aF0.027077189596690976
abag0
(g43
g2
Ntp269
Rp270
(lp271
F0.9995143312059889
aF-0.02583181235790082
aF0.016166211683465017
aF-0.006517114695673689
abababaF0.10119999999999998
aF-1.0
aF8.6
aF10.0
abag0
(g136
g2
Ntp272
Rp273
(lp274
g0
(g22
g2
Ntp275
Rp276
(lp277
g0
(g26
g2
Ntp278
Rp279
(lp280
I0
ag0
(g30
g2
Ntp281
Rp282
(lp283
I0
aI0
abag157
abag0
(g35
g2
Ntp284
Rp285
(lp286
g0
(g39
g2
Ntp287
Rp288
(lp289
F0.5069132714754178
aF0.004873624607929537
aF0.027077189596690976
abag0
(g43
g2
Ntp290
Rp291
(lp292
F0.9995143312059889
aF-0.02583181235790082
aF0.016166211683465017
aF-0.006517114695673689
abababaF0.10119999999999998
aF-1.0
aF8.0
aF10.0
abasS'starting_gripper_state_index'
p293
I0
sS'parameters_update_history'
p294
(dp295
g133
(lp296
F10.0
aF16.197477915391246
aF8.6
aF8.0
asS'position_speed'
p297
(lp298
F0.07
aF0.2000622944978244
aF0.10599999999999998
aF0.10119999999999998
asS'rotation_speed'
p299
(lp300
F-1.0
asg134
(lp301
F10.0
asg132
(lp302
g0
(g22
g2
Ntp303
Rp304
(lp305
g0
(g26
g2
Ntp306
Rp307
(lp308
I0
ag0
(g30
g2
Ntp309
Rp310
(lp311
I0
aI0
abag157
abag0
(g35
g2
Ntp312
Rp313
(lp314
g0
(g39
g2
Ntp315
Rp316
(lp317
F0.5069132714754178
aF0.004873624607929537
aF0.027077189596690976
abag0
(g43
g2
Ntp318
Rp319
(lp320
F0.9995143312059889
aF-0.02583181235790082
aF0.016166211683465017
aF-0.006517114695673689
abababassS'parameter_container'
p321
g0
(g136
g2
Ntp322
Rp323
(lp324
g0
(g22
g2
Ntp325
Rp326
(lp327
g0
(g26
g2
Ntp328
Rp329
(lp330
I0
ag0
(g30
g2
Ntp331
Rp332
(lp333
I0
aI0
abag157
abag0
(g35
g2
Ntp334
Rp335
(lp336
g0
(g39
g2
Ntp337
Rp338
(lp339
F0.5069132714754178
aF0.004873624607929537
aF0.027077189596690976
abag0
(g43
g2
Ntp340
Rp341
(lp342
F0.9995143312059889
aF-0.02583181235790082
aF0.016166211683465017
aF-0.006517114695673689
abababaF0.10119999999999998
aF-1.0
aF8.0
aF10.0
absbag0
(g14
g2
Ntp343
Rp344
(dp345
g123
g126
sg127
I01
sg18
S'A Apply Force (with) Fingers primitive'
p346
sg129
I1
sg130
(lp347
S'force'
p348
asg135
cpanda_pbd.srv._ApplyForceFingers
ApplyForceFingersRequest
p349
sg137
(dp350
g111
(lp351
F20.0
aF60.0
assg143
(lp352
g0
(g349
g2
Ntp353
Rp354
(lp355
F20.0
abag0
(g349
g2
Ntp356
Rp357
(lp358
F43.774035193909484
abag0
(g349
g2
Ntp359
Rp360
(lp361
F42.400000000000006
abag0
(g349
g2
Ntp362
Rp363
(lp364
F31.200000000000003
abag0
(g349
g2
Ntp365
Rp366
(lp367
F26.4
abag0
(g349
g2
Ntp368
Rp369
(lp370
F24.0
abag0
(g349
g2
Ntp371
Rp372
(lp373
F23.2
abasg293
I0
sg294
(dp374
g348
(lp375
F20.0
aF43.774035193909484
aF42.400000000000006
aF31.200000000000003
aF26.4
aF24.0
aF23.2
assg321
g0
(g349
g2
Ntp376
Rp377
(lp378
F23.2
absbag0
(g10
g2
Ntp379
Rp380
(dp381
g123
g126
sg127
I01
sg18
S'A Move to End-Effector primitive'
p382
sg129
I1
sg130
(lp383
g132
asg135
cpanda_pbd.msg._MoveToEEGoal
MoveToEEGoal
p384
sg137
(dp385
g141
(lp386
F0.01
aF0.35
assg143
(lp387
g0
(g384
g2
Ntp388
Rp389
(lp390
g0
(g22
g2
Ntp391
Rp392
(lp393
g0
(g26
g2
Ntp394
Rp395
(lp396
I0
ag0
(g30
g2
Ntp397
Rp398
(lp399
I0
aI0
abag75
abag0
(g35
g2
Ntp400
Rp401
(lp402
g0
(g39
g2
Ntp403
Rp404
(lp405
F0.6404225030201885
aF-0.21899515188976365
aF0.31947401035356376
abag0
(g43
g2
Ntp406
Rp407
(lp408
F0.8476936441278499
aF-0.15503337362532482
aF0.5028616917286283
aF0.06715845262823286
abababaF0.07
aF-1.0
abag0
(g384
g2
Ntp409
Rp410
(lp411
g0
(g22
g2
Ntp412
Rp413
(lp414
g0
(g26
g2
Ntp415
Rp416
(lp417
I0
ag0
(g30
g2
Ntp418
Rp419
(lp420
I0
aI0
abag75
abag0
(g35
g2
Ntp421
Rp422
(lp423
g0
(g39
g2
Ntp424
Rp425
(lp426
F0.6404225030201885
aF-0.21899515188976365
aF0.31947401035356376
abag0
(g43
g2
Ntp427
Rp428
(lp429
F0.8476936441278499
aF-0.15503337362532482
aF0.5028616917286283
aF0.06715845262823286
abababaF0.08576910219883442
aF-1.0
abag0
(g384
g2
Ntp430
Rp431
(lp432
g0
(g22
g2
Ntp433
Rp434
(lp435
g0
(g26
g2
Ntp436
Rp437
(lp438
I0
ag0
(g30
g2
Ntp439
Rp440
(lp441
I0
aI0
abag75
abag0
(g35
g2
Ntp442
Rp443
(lp444
g0
(g39
g2
Ntp445
Rp446
(lp447
F0.6404225030201885
aF-0.21899515188976365
aF0.31947401035356376
abag0
(g43
g2
Ntp448
Rp449
(lp450
F0.8476936441278499
aF-0.15503337362532482
aF0.5028616917286283
aF0.06715845262823286
abababaF0.044
aF-1.0
abag0
(g384
g2
Ntp451
Rp452
(lp453
g0
(g22
g2
Ntp454
Rp455
(lp456
g0
(g26
g2
Ntp457
Rp458
(lp459
I0
ag0
(g30
g2
Ntp460
Rp461
(lp462
I0
aI0
abag75
abag0
(g35
g2
Ntp463
Rp464
(lp465
g0
(g39
g2
Ntp466
Rp467
(lp468
F0.6404225030201885
aF-0.21899515188976365
aF0.31947401035356376
abag0
(g43
g2
Ntp469
Rp470
(lp471
F0.8476936441278499
aF-0.15503337362532482
aF0.5028616917286283
aF0.06715845262823286
abababaF0.11879999999999999
aF-1.0
abasg293
I1
sg294
(dp472
g297
(lp473
F0.07
aF0.08576910219883442
aF0.044
aF0.11879999999999999
asg299
(lp474
F-1.0
asg132
(lp475
g0
(g22
g2
Ntp476
Rp477
(lp478
g0
(g26
g2
Ntp479
Rp480
(lp481
I0
ag0
(g30
g2
Ntp482
Rp483
(lp484
I0
aI0
abag75
abag0
(g35
g2
Ntp485
Rp486
(lp487
g0
(g39
g2
Ntp488
Rp489
(lp490
F0.6404225030201885
aF-0.21899515188976365
aF0.31947401035356376
abag0
(g43
g2
Ntp491
Rp492
(lp493
F0.8476936441278499
aF-0.15503337362532482
aF0.5028616917286283
aF0.06715845262823286
abababassg321
g0
(g384
g2
Ntp494
Rp495
(lp496
g67
aF0.11879999999999999
aF-1.0
absbag0
(g12
g2
Ntp497
Rp498
(dp499
g123
g126
sg127
I01
sg18
S'A User Synchronization primitive'
p500
sg129
I2
sg130
(lp501
sg135
cpanda_pbd.msg._UserSyncGoal
UserSyncGoal
p502
sg137
(dp503
g139
(lp504
F5.0
aF30.0
assg143
(lp505
g0
(g502
g2
Ntp506
Rp507
(lp508
F10.0
abag0
(g502
g2
Ntp509
Rp510
(lp511
F7.1990232023945095
abag0
(g502
g2
Ntp512
Rp513
(lp514
F7.0
abag0
(g502
g2
Ntp515
Rp516
(lp517
F6.0
abasg293
I1
sg294
(dp518
g133
(lp519
F10.0
aF7.1990232023945095
aF7.0
aF6.0
assg321
g0
(g502
g2
Ntp520
Rp521
(lp522
F6.0
absbag0
(g16
g2
Ntp523
Rp524
(dp525
g123
g126
sg127
I01
sg18
S'A Move Fingers primitive'
p526
sg129
I2
sg130
(lp527
S'width'
p528
asg135
cpanda_pbd.srv._MoveFingers
MoveFingersRequest
p529
sg137
(dp530
g528
(lp531
F0.04758337885141373
aF0.08
assg143
(lp532
g0
(g529
g2
Ntp533
Rp534
(lp535
F0.04758337885141373
abag0
(g529
g2
Ntp536
Rp537
(lp538
F0.07820234976794664
abag0
(g529
g2
Ntp539
Rp540
(lp541
F0.057600000000000005
abasg293
I1
sg294
(dp542
g528
(lp543
F0.04758337885141373
aF0.07820234976794664
aF0.057600000000000005
assg321
g0
(g529
g2
Ntp544
Rp545
(lp546
F0.057600000000000005
absbag0
(g10
g2
Ntp547
Rp548
(dp549
g123
g126
sg127
I01
sg18
g382
sg129
I2
sg130
(lp550
g132
asg135
g384
sg137
g385
sg143
(lp551
g0
(g384
g2
Ntp552
Rp553
(lp554
g0
(g22
g2
Ntp555
Rp556
(lp557
g0
(g26
g2
Ntp558
Rp559
(lp560
I0
ag0
(g30
g2
Ntp561
Rp562
(lp563
I0
aI0
abag94
abag0
(g35
g2
Ntp564
Rp565
(lp566
g0
(g39
g2
Ntp567
Rp568
(lp569
F0.48697273191184176
aF-0.0003249795766055996
aF0.3672047165651558
abag0
(g43
g2
Ntp570
Rp571
(lp572
F0.9986485219265587
aF-0.028677903984510297
aF0.042164274523526495
aF-0.010043974853580964
abababaF0.07
aF-1.0
abag0
(g384
g2
Ntp573
Rp574
(lp575
g0
(g22
g2
Ntp576
Rp577
(lp578
g0
(g26
g2
Ntp579
Rp580
(lp581
I0
ag0
(g30
g2
Ntp582
Rp583
(lp584
I0
aI0
abag94
abag0
(g35
g2
Ntp585
Rp586
(lp587
g0
(g39
g2
Ntp588
Rp589
(lp590
F0.48697273191184176
aF-0.0003249795766055996
aF0.3672047165651558
abag0
(g43
g2
Ntp591
Rp592
(lp593
F0.9986485219265587
aF-0.028677903984510297
aF0.042164274523526495
aF-0.010043974853580964
abababaF0.21540938547898833
aF-1.0
abag0
(g384
g2
Ntp594
Rp595
(lp596
g0
(g22
g2
Ntp597
Rp598
(lp599
g0
(g26
g2
Ntp600
Rp601
(lp602
I0
ag0
(g30
g2
Ntp603
Rp604
(lp605
I0
aI0
abag94
abag0
(g35
g2
Ntp606
Rp607
(lp608
g0
(g39
g2
Ntp609
Rp610
(lp611
F0.48697273191184176
aF-0.0003249795766055996
aF0.3672047165651558
abag0
(g43
g2
Ntp612
Rp613
(lp614
F0.9986485219265587
aF-0.028677903984510297
aF0.042164274523526495
aF-0.010043974853580964
abababaF0.1664
aF-1.0
abag0
(g384
g2
Ntp615
Rp616
(lp617
g0
(g22
g2
Ntp618
Rp619
(lp620
g0
(g26
g2
Ntp621
Rp622
(lp623
I0
ag0
(g30
g2
Ntp624
Rp625
(lp626
I0
aI0
abag94
abag0
(g35
g2
Ntp627
Rp628
(lp629
g0
(g39
g2
Ntp630
Rp631
(lp632
F0.48697273191184176
aF-0.0003249795766055996
aF0.3672047165651558
abag0
(g43
g2
Ntp633
Rp634
(lp635
F0.9986485219265587
aF-0.028677903984510297
aF0.042164274523526495
aF-0.010043974853580964
abababaF0.2004
aF-1.0
abasg293
I2
sg294
(dp636
g297
(lp637
F0.07
aF0.21540938547898833
aF0.1664
aF0.2004
asg299
(lp638
F-1.0
asg132
(lp639
g0
(g22
g2
Ntp640
Rp641
(lp642
g0
(g26
g2
Ntp643
Rp644
(lp645
I0
ag0
(g30
g2
Ntp646
Rp647
(lp648
I0
aI0
abag94
abag0
(g35
g2
Ntp649
Rp650
(lp651
g0
(g39
g2
Ntp652
Rp653
(lp654
F0.48697273191184176
aF-0.0003249795766055996
aF0.3672047165651558
abag0
(g43
g2
Ntp655
Rp656
(lp657
F0.9986485219265587
aF-0.028677903984510297
aF0.042164274523526495
aF-0.010043974853580964
abababassg321
g0
(g384
g2
Ntp658
Rp659
(lp660
g86
aF0.2004
aF-1.0
absbasS'name'
p661
S'A Panda Program'
p662
sb.