ccopy_reg
_reconstructor
p0
(cpanda_eup.panda_primitive
PandaProgram
p1
c__builtin__
object
p2
Ntp3
Rp4
(dp5
S'effect_of_primitive'
p6
(dp7
cpanda_eup.panda_primitive
MoveFingers
p8
(lp9
I00
aI01
ascpanda_eup.panda_primitive
ApplyForceFingers
p10
(lp11
I00
aI01
ascpanda_eup.panda_primitive
UserSync
p12
(lp13
I00
aI00
ascpanda_eup.panda_primitive
MoveToEE
p14
(lp15
I01
aI00
ascpanda_eup.panda_primitive
MoveToContact
p16
(lp17
I01
aI00
assS'description'
p18
S'Empty Description'
p19
sS'arm_state_list'
p20
(lp21
g0
(cgeometry_msgs.msg._PoseStamped
PoseStamped
p22
g2
Ntp23
Rp24
(lp25
g0
(cstd_msgs.msg._Header
Header
p26
g2
Ntp27
Rp28
(lp29
I0
ag0
(cgenpy.rostime
Time
p30
g2
Ntp31
Rp32
(lp33
I0
aI0
abaS'panda_link0'
p34
abag0
(cgeometry_msgs.msg._Pose
Pose
p35
g2
Ntp36
Rp37
(lp38
g0
(cgeometry_msgs.msg._Point
Point
p39
g2
Ntp40
Rp41
(lp42
F0.5045138365062377
aF-0.265431521081101
aF0.4086585275481172
abag0
(cgeometry_msgs.msg._Quaternion
Quaternion
p43
g2
Ntp44
Rp45
(lp46
F0.9995540503376575
aF-0.02962858766662235
aF0.00040849401323953287
aF-0.003698699650716961
abababag0
(g22
g2
Ntp47
Rp48
(lp49
g0
(g26
g2
Ntp50
Rp51
(lp52
I0
ag0
(g30
g2
Ntp53
Rp54
(lp55
I0
aI0
abaS'panda_link0'
p56
abag0
(g35
g2
Ntp57
Rp58
(lp59
g0
(g39
g2
Ntp60
Rp61
(lp62
F0.5294752097753854
aF-0.23891993409430162
aF0.02570893459679896
abag0
(g43
g2
Ntp63
Rp64
(lp65
F-0.704688659619377
aF0.7085322142558269
aF-0.0335033762754408
aF-0.016538383951495636
abababag0
(g22
g2
Ntp66
Rp67
(lp68
g0
(g26
g2
Ntp69
Rp70
(lp71
I0
ag0
(g30
g2
Ntp72
Rp73
(lp74
I0
aI0
abaS'panda_link0'
p75
abag0
(g35
g2
Ntp76
Rp77
(lp78
g0
(g39
g2
Ntp79
Rp80
(lp81
F0.5140211091047036
aF0.1441994092411692
aF0.030668064827217623
abag0
(g43
g2
Ntp82
Rp83
(lp84
F0.7125907713538928
aF-0.7012782861511362
aF-0.01083822149318588
aF-0.01748401867574546
abababag0
(g22
g2
Ntp85
Rp86
(lp87
g0
(g26
g2
Ntp88
Rp89
(lp90
I0
ag0
(g30
g2
Ntp91
Rp92
(lp93
I0
aI0
abaS'panda_link0'
p94
abag0
(g35
g2
Ntp95
Rp96
(lp97
g0
(g39
g2
Ntp98
Rp99
(lp100
F0.4340239876172547
aF-0.018694378705386674
aF0.36310452212031397
abag0
(g43
g2
Ntp101
Rp102
(lp103
F0.9996651157292086
aF-0.021109210280240997
aF-0.014510167637759988
aF-0.003675958456885042
abababasS'gripper_state_list'
p104
(lp105
g0
(cpanda_eup.panda_primitive
GripperState
p106
g2
Ntp107
Rp108
(dp109
S'width'
p110
F0.08
sS'force'
p111
F0.0
sbasS'primitives'
p112
(lp113
g0
(g14
g2
Ntp114
Rp115
(dp116
S'status'
p117
cpanda_eup.panda_primitive
PandaPrimitiveStatus
p118
(I1
tp119
Rp120
sS'revertible'
p121
I01
sg18
S'A Move to End-Effector primitive'
p122
sS'starting_arm_state_index'
p123
I0
sS'parameters_with_effects_on_robot_state'
p124
(lp125
S'pose'
p126
asS'expected_container'
p127
cpanda_pbd.msg._MoveToEEGoal
MoveToEEGoal
p128
sS'gui_tunable_parameter_strict_ranges'
p129
(dp130
S'position_speed'
p131
(lp132
F0.01
aF0.35
assS'container_update_history'
p133
(lp134
g0
(g128
g2
Ntp135
Rp136
(lp137
g0
(g22
g2
Ntp138
Rp139
(lp140
g0
(g26
g2
Ntp141
Rp142
(lp143
I0
ag0
(g30
g2
Ntp144
Rp145
(lp146
I0
aI0
abag56
abag0
(g35
g2
Ntp147
Rp148
(lp149
g0
(g39
g2
Ntp150
Rp151
(lp152
F0.5294752097753854
aF-0.23891993409430162
aF0.02570893459679896
abag0
(g43
g2
Ntp153
Rp154
(lp155
F-0.704688659619377
aF0.7085322142558269
aF-0.0335033762754408
aF-0.016538383951495636
abababaF0.07
aF-1.0
abag0
(g128
g2
Ntp156
Rp157
(lp158
g0
(g22
g2
Ntp159
Rp160
(lp161
g0
(g26
g2
Ntp162
Rp163
(lp164
I0
ag0
(g30
g2
Ntp165
Rp166
(lp167
I0
aI0
abag56
abag0
(g35
g2
Ntp168
Rp169
(lp170
g0
(g39
g2
Ntp171
Rp172
(lp173
F0.5294752097753854
aF-0.23891993409430162
aF0.02570893459679896
abag0
(g43
g2
Ntp174
Rp175
(lp176
F-0.704688659619377
aF0.7085322142558269
aF-0.0335033762754408
aF-0.016538383951495636
abababaF0.17263113149040826
aF-1.0
abag0
(g128
g2
Ntp177
Rp178
(lp179
g0
(g22
g2
Ntp180
Rp181
(lp182
g0
(g26
g2
Ntp183
Rp184
(lp185
I0
ag0
(g30
g2
Ntp186
Rp187
(lp188
I0
aI0
abag56
abag0
(g35
g2
Ntp189
Rp190
(lp191
g0
(g39
g2
Ntp192
Rp193
(lp194
F0.5294752097753854
aF-0.23891993409430162
aF0.02570893459679896
abag0
(g43
g2
Ntp195
Rp196
(lp197
F-0.704688659619377
aF0.7085322142558269
aF-0.0335033762754408
aF-0.016538383951495636
abababaF0.1528
aF-1.0
abag0
(g128
g2
Ntp198
Rp199
(lp200
g0
(g22
g2
Ntp201
Rp202
(lp203
g0
(g26
g2
Ntp204
Rp205
(lp206
I0
ag0
(g30
g2
Ntp207
Rp208
(lp209
I0
aI0
abag56
abag0
(g35
g2
Ntp210
Rp211
(lp212
g0
(g39
g2
Ntp213
Rp214
(lp215
F0.5294752097753854
aF-0.23891993409430162
aF0.02570893459679896
abag0
(g43
g2
Ntp216
Rp217
(lp218
F-0.704688659619377
aF0.7085322142558269
aF-0.0335033762754408
aF-0.016538383951495636
abababaF0.146
aF-1.0
abag0
(g128
g2
Ntp219
Rp220
(lp221
g0
(g22
g2
Ntp222
Rp223
(lp224
g0
(g26
g2
Ntp225
Rp226
(lp227
I0
ag0
(g30
g2
Ntp228
Rp229
(lp230
I0
aI0
abag56
abag0
(g35
g2
Ntp231
Rp232
(lp233
g0
(g39
g2
Ntp234
Rp235
(lp236
F0.5294752097753854
aF-0.23891993409430162
aF0.02570893459679896
abag0
(g43
g2
Ntp237
Rp238
(lp239
F-0.704688659619377
aF0.7085322142558269
aF-0.0335033762754408
aF-0.016538383951495636
abababaF0.1596
aF-1.0
abasS'starting_gripper_state_index'
p240
I0
sS'parameters_update_history'
p241
(dp242
S'position_speed'
p243
(lp244
F0.07
aF0.17263113149040826
aF0.1528
aF0.146
aF0.1596
asS'rotation_speed'
p245
(lp246
F-1.0
asg126
(lp247
g0
(g22
g2
Ntp248
Rp249
(lp250
g0
(g26
g2
Ntp251
Rp252
(lp253
I0
ag0
(g30
g2
Ntp254
Rp255
(lp256
I0
aI0
abag56
abag0
(g35
g2
Ntp257
Rp258
(lp259
g0
(g39
g2
Ntp260
Rp261
(lp262
F0.5294752097753854
aF-0.23891993409430162
aF0.02570893459679896
abag0
(g43
g2
Ntp263
Rp264
(lp265
F-0.704688659619377
aF0.7085322142558269
aF-0.0335033762754408
aF-0.016538383951495636
abababassS'parameter_container'
p266
g0
(g128
g2
Ntp267
Rp268
(lp269
g48
aF0.1596
aF-1.0
absbag0
(g16
g2
Ntp270
Rp271
(dp272
g117
g120
sg121
I01
sg18
S'A Move to Contact primitive'
p273
sg123
I1
sg124
(lp274
g126
aS'force_threshold'
p275
aS'torque_threshold'
p276
asg127
cpanda_pbd.msg._MoveToContactGoal
MoveToContactGoal
p277
sg129
(dp278
S'force_threshold'
p279
(lp280
F5.0
aF20.0
asg131
(lp281
F0.01
aF0.25
assg133
(lp282
g0
(g277
g2
Ntp283
Rp284
(lp285
g0
(g22
g2
Ntp286
Rp287
(lp288
g0
(g26
g2
Ntp289
Rp290
(lp291
I0
ag0
(g30
g2
Ntp292
Rp293
(lp294
I0
aI0
abaS'panda_link0'
p295
abag0
(g35
g2
Ntp296
Rp297
(lp298
g0
(g39
g2
Ntp299
Rp300
(lp301
F0.512283028132677
aF0.1492318253473133
aF0.035534203431970335
abag0
(g43
g2
Ntp302
Rp303
(lp304
F-0.7054319914467646
aF0.7087651220338805
aF0.0038737904474442854
aF-0.0016434656430182005
abababaF0.07
aF-1.0
aF10.0
aF10.0
abag0
(g277
g2
Ntp305
Rp306
(lp307
g0
(g22
g2
Ntp308
Rp309
(lp310
g0
(g26
g2
Ntp311
Rp312
(lp313
I0
ag0
(g30
g2
Ntp314
Rp315
(lp316
I0
aI0
abag295
abag0
(g35
g2
Ntp317
Rp318
(lp319
g0
(g39
g2
Ntp320
Rp321
(lp322
F0.512283028132677
aF0.1492318253473133
aF0.035534203431970335
abag0
(g43
g2
Ntp323
Rp324
(lp325
F-0.7054319914467646
aF0.7087651220338805
aF0.0038737904474442854
aF-0.0016434656430182005
abababaF0.15141094349507936
aF-1.0
aF10.0
aF10.0
abag0
(g277
g2
Ntp326
Rp327
(lp328
g0
(g22
g2
Ntp329
Rp330
(lp331
g0
(g26
g2
Ntp332
Rp333
(lp334
I0
ag0
(g30
g2
Ntp335
Rp336
(lp337
I0
aI0
abag295
abag0
(g35
g2
Ntp338
Rp339
(lp340
g0
(g39
g2
Ntp341
Rp342
(lp343
F0.512283028132677
aF0.1492318253473133
aF0.035534203431970335
abag0
(g43
g2
Ntp344
Rp345
(lp346
F-0.7054319914467646
aF0.7087651220338805
aF0.0038737904474442854
aF-0.0016434656430182005
abababaF0.15141094349507936
aF-1.0
aF15.057456556857293
aF10.0
abag0
(g277
g2
Ntp347
Rp348
(lp349
g0
(g22
g2
Ntp350
Rp351
(lp352
g0
(g26
g2
Ntp353
Rp354
(lp355
I0
ag0
(g30
g2
Ntp356
Rp357
(lp358
I0
aI0
abag295
abag0
(g35
g2
Ntp359
Rp360
(lp361
g0
(g39
g2
Ntp362
Rp363
(lp364
F0.512283028132677
aF0.1492318253473133
aF0.035534203431970335
abag0
(g43
g2
Ntp365
Rp366
(lp367
F-0.7054319914467646
aF0.7087651220338805
aF0.0038737904474442854
aF-0.0016434656430182005
abababaF0.1396
aF-1.0
aF15.057456556857293
aF10.0
abag0
(g277
g2
Ntp368
Rp369
(lp370
g0
(g22
g2
Ntp371
Rp372
(lp373
g0
(g26
g2
Ntp374
Rp375
(lp376
I0
ag0
(g30
g2
Ntp377
Rp378
(lp379
I0
aI0
abag295
abag0
(g35
g2
Ntp380
Rp381
(lp382
g0
(g39
g2
Ntp383
Rp384
(lp385
F0.512283028132677
aF0.1492318253473133
aF0.035534203431970335
abag0
(g43
g2
Ntp386
Rp387
(lp388
F-0.7054319914467646
aF0.7087651220338805
aF0.0038737904474442854
aF-0.0016434656430182005
abababaF0.1396
aF-1.0
aF14.0
aF10.0
abag0
(g277
g2
Ntp389
Rp390
(lp391
g0
(g22
g2
Ntp392
Rp393
(lp394
g0
(g26
g2
Ntp395
Rp396
(lp397
I0
ag0
(g30
g2
Ntp398
Rp399
(lp400
I0
aI0
abag295
abag0
(g35
g2
Ntp401
Rp402
(lp403
g0
(g39
g2
Ntp404
Rp405
(lp406
F0.512283028132677
aF0.1492318253473133
aF0.035534203431970335
abag0
(g43
g2
Ntp407
Rp408
(lp409
F-0.7054319914467646
aF0.7087651220338805
aF0.0038737904474442854
aF-0.0016434656430182005
abababaF0.13
aF-1.0
aF14.0
aF10.0
abag0
(g277
g2
Ntp410
Rp411
(lp412
g0
(g22
g2
Ntp413
Rp414
(lp415
g0
(g26
g2
Ntp416
Rp417
(lp418
I0
ag0
(g30
g2
Ntp419
Rp420
(lp421
I0
aI0
abag295
abag0
(g35
g2
Ntp422
Rp423
(lp424
g0
(g39
g2
Ntp425
Rp426
(lp427
F0.512283028132677
aF0.1492318253473133
aF0.035534203431970335
abag0
(g43
g2
Ntp428
Rp429
(lp430
F-0.7054319914467646
aF0.7087651220338805
aF0.0038737904474442854
aF-0.0016434656430182005
abababaF0.13
aF-1.0
aF12.5
aF10.0
abag0
(g277
g2
Ntp431
Rp432
(lp433
g0
(g22
g2
Ntp434
Rp435
(lp436
g0
(g26
g2
Ntp437
Rp438
(lp439
I0
ag0
(g30
g2
Ntp440
Rp441
(lp442
I0
aI0
abag295
abag0
(g35
g2
Ntp443
Rp444
(lp445
g0
(g39
g2
Ntp446
Rp447
(lp448
F0.512283028132677
aF0.1492318253473133
aF0.035534203431970335
abag0
(g43
g2
Ntp449
Rp450
(lp451
F-0.7054319914467646
aF0.7087651220338805
aF0.0038737904474442854
aF-0.0016434656430182005
abababaF0.13
aF-1.0
aF11.0
aF10.0
abag0
(g277
g2
Ntp452
Rp453
(lp454
g0
(g22
g2
Ntp455
Rp456
(lp457
g0
(g26
g2
Ntp458
Rp459
(lp460
I0
ag0
(g30
g2
Ntp461
Rp462
(lp463
I0
aI0
abag295
abag0
(g35
g2
Ntp464
Rp465
(lp466
g0
(g39
g2
Ntp467
Rp468
(lp469
F0.512283028132677
aF0.1492318253473133
aF0.035534203431970335
abag0
(g43
g2
Ntp470
Rp471
(lp472
F-0.7054319914467646
aF0.7087651220338805
aF0.0038737904474442854
aF-0.0016434656430182005
abababaF0.1348
aF-1.0
aF11.0
aF10.0
abag0
(g277
g2
Ntp473
Rp474
(lp475
g0
(g22
g2
Ntp476
Rp477
(lp478
g0
(g26
g2
Ntp479
Rp480
(lp481
I0
ag0
(g30
g2
Ntp482
Rp483
(lp484
I0
aI0
abag295
abag0
(g35
g2
Ntp485
Rp486
(lp487
g0
(g39
g2
Ntp488
Rp489
(lp490
F0.512283028132677
aF0.1492318253473133
aF0.035534203431970335
abag0
(g43
g2
Ntp491
Rp492
(lp493
F-0.7054319914467646
aF0.7087651220338805
aF0.0038737904474442854
aF-0.0016434656430182005
abababaF0.1348
aF-1.0
aF9.5
aF10.0
abag0
(g277
g2
Ntp494
Rp495
(lp496
g0
(g22
g2
Ntp497
Rp498
(lp499
g0
(g26
g2
Ntp500
Rp501
(lp502
I0
ag0
(g30
g2
Ntp503
Rp504
(lp505
I0
aI0
abag295
abag0
(g35
g2
Ntp506
Rp507
(lp508
g0
(g39
g2
Ntp509
Rp510
(lp511
F0.512283028132677
aF0.1492318253473133
aF0.035534203431970335
abag0
(g43
g2
Ntp512
Rp513
(lp514
F-0.7054319914467646
aF0.7087651220338805
aF0.0038737904474442854
aF-0.0016434656430182005
abababaF0.13
aF-1.0
aF9.5
aF10.0
abasg240
I0
sg241
(dp515
g275
(lp516
F10.0
aF15.057456556857293
aF14.0
aF12.5
aF11.0
aF9.5
asg243
(lp517
F0.07
aF0.15141094349507936
aF0.1396
aF0.13
aF0.1348
aF0.13
asg245
(lp518
F-1.0
asg276
(lp519
F10.0
asg126
(lp520
g0
(g22
g2
Ntp521
Rp522
(lp523
g0
(g26
g2
Ntp524
Rp525
(lp526
I0
ag0
(g30
g2
Ntp527
Rp528
(lp529
I0
aI0
abag295
abag0
(g35
g2
Ntp530
Rp531
(lp532
g0
(g39
g2
Ntp533
Rp534
(lp535
F0.512283028132677
aF0.1492318253473133
aF0.035534203431970335
abag0
(g43
g2
Ntp536
Rp537
(lp538
F-0.7054319914467646
aF0.7087651220338805
aF0.0038737904474442854
aF-0.0016434656430182005
abababassg266
g0
(g277
g2
Ntp539
Rp540
(lp541
g0
(g22
g2
Ntp542
Rp543
(lp544
g0
(g26
g2
Ntp545
Rp546
(lp547
I0
ag0
(g30
g2
Ntp548
Rp549
(lp550
I0
aI0
abag295
abag0
(g35
g2
Ntp551
Rp552
(lp553
g0
(g39
g2
Ntp554
Rp555
(lp556
F0.512283028132677
aF0.1492318253473133
aF0.035534203431970335
abag0
(g43
g2
Ntp557
Rp558
(lp559
F-0.7054319914467646
aF0.7087651220338805
aF0.0038737904474442854
aF-0.0016434656430182005
abababaF0.13
aF-1.0
aF9.5
aF10.0
absbag0
(g14
g2
Ntp560
Rp561
(dp562
g117
g120
sg121
I01
sg18
g122
sg123
I2
sg124
(lp563
g126
asg127
g128
sg129
g130
sg133
(lp564
g0
(g128
g2
Ntp565
Rp566
(lp567
g0
(g22
g2
Ntp568
Rp569
(lp570
g0
(g26
g2
Ntp571
Rp572
(lp573
I0
ag0
(g30
g2
Ntp574
Rp575
(lp576
I0
aI0
abag94
abag0
(g35
g2
Ntp577
Rp578
(lp579
g0
(g39
g2
Ntp580
Rp581
(lp582
F0.4340239876172547
aF-0.018694378705386674
aF0.36310452212031397
abag0
(g43
g2
Ntp583
Rp584
(lp585
F0.9996651157292086
aF-0.021109210280240997
aF-0.014510167637759988
aF-0.003675958456885042
abababaF0.07
aF-1.0
abag0
(g128
g2
Ntp586
Rp587
(lp588
g0
(g22
g2
Ntp589
Rp590
(lp591
g0
(g26
g2
Ntp592
Rp593
(lp594
I0
ag0
(g30
g2
Ntp595
Rp596
(lp597
I0
aI0
abag94
abag0
(g35
g2
Ntp598
Rp599
(lp600
g0
(g39
g2
Ntp601
Rp602
(lp603
F0.4340239876172547
aF-0.018694378705386674
aF0.36310452212031397
abag0
(g43
g2
Ntp604
Rp605
(lp606
F0.9996651157292086
aF-0.021109210280240997
aF-0.014510167637759988
aF-0.003675958456885042
abababaF0.33761568434842
aF-1.0
abasg240
I0
sg241
(dp607
g243
(lp608
F0.07
aF0.33761568434842
asg245
(lp609
F-1.0
asg126
(lp610
g0
(g22
g2
Ntp611
Rp612
(lp613
g0
(g26
g2
Ntp614
Rp615
(lp616
I0
ag0
(g30
g2
Ntp617
Rp618
(lp619
I0
aI0
abag94
abag0
(g35
g2
Ntp620
Rp621
(lp622
g0
(g39
g2
Ntp623
Rp624
(lp625
F0.4340239876172547
aF-0.018694378705386674
aF0.36310452212031397
abag0
(g43
g2
Ntp626
Rp627
(lp628
F0.9996651157292086
aF-0.021109210280240997
aF-0.014510167637759988
aF-0.003675958456885042
abababassg266
g0
(g128
g2
Ntp629
Rp630
(lp631
g86
aF0.33761568434842
aF-1.0
absbasS'name'
p632
S'A Panda Program'
p633
sb.