ccopy_reg
_reconstructor
p0
(cpanda_eup.panda_primitive
PandaProgram
p1
c__builtin__
object
p2
Ntp3
Rp4
(dp5
S'effect_of_primitive'
p6
(dp7
cpanda_eup.panda_primitive
MoveToEE
p8
(lp9
I01
aI00
ascpanda_eup.panda_primitive
MoveFingers
p10
(lp11
I00
aI01
ascpanda_eup.panda_primitive
UserSync
p12
(lp13
I00
aI00
ascpanda_eup.panda_primitive
ApplyForceFingers
p14
(lp15
I00
aI01
ascpanda_eup.panda_primitive
MoveToContact
p16
(lp17
I01
aI00
assS'description'
p18
S'Empty Description'
p19
sS'arm_state_list'
p20
(lp21
g0
(cgeometry_msgs.msg._PoseStamped
PoseStamped
p22
g2
Ntp23
Rp24
(lp25
g0
(cstd_msgs.msg._Header
Header
p26
g2
Ntp27
Rp28
(lp29
I0
ag0
(cgenpy.rostime
Time
p30
g2
Ntp31
Rp32
(lp33
I0
aI0
abaS'panda_link0'
p34
abag0
(cgeometry_msgs.msg._Pose
Pose
p35
g2
Ntp36
Rp37
(lp38
g0
(cgeometry_msgs.msg._Point
Point
p39
g2
Ntp40
Rp41
(lp42
F0.4833974233623748
aF0.007318751177980708
aF0.3904495689279949
abag0
(cgeometry_msgs.msg._Quaternion
Quaternion
p43
g2
Ntp44
Rp45
(lp46
F0.9993500431690824
aF-0.014042189921340717
aF-0.02007113406023331
aF-0.026447262574839425
abababag0
(g22
g2
Ntp47
Rp48
(lp49
g0
(g26
g2
Ntp50
Rp51
(lp52
I0
ag0
(g30
g2
Ntp53
Rp54
(lp55
I0
aI0
abaS'panda_link0'
p56
abag0
(g35
g2
Ntp57
Rp58
(lp59
g0
(g39
g2
Ntp60
Rp61
(lp62
F0.5069132714754178
aF0.004873624607929537
aF0.027077189596690976
abag0
(g43
g2
Ntp63
Rp64
(lp65
F0.9995143312059889
aF-0.02583181235790082
aF0.016166211683465017
aF-0.006517114695673689
abababag0
(g22
g2
Ntp66
Rp67
(lp68
g0
(g26
g2
Ntp69
Rp70
(lp71
I0
ag0
(g30
g2
Ntp72
Rp73
(lp74
I0
aI0
abaS'panda_link0'
p75
abag0
(g35
g2
Ntp76
Rp77
(lp78
g0
(g39
g2
Ntp79
Rp80
(lp81
F0.6404225030201885
aF-0.21899515188976365
aF0.31947401035356376
abag0
(g43
g2
Ntp82
Rp83
(lp84
F0.8476936441278499
aF-0.15503337362532482
aF0.5028616917286283
aF0.06715845262823286
abababag0
(g22
g2
Ntp85
Rp86
(lp87
g0
(g26
g2
Ntp88
Rp89
(lp90
I0
ag0
(g30
g2
Ntp91
Rp92
(lp93
I0
aI0
abaS'panda_link0'
p94
abag0
(g35
g2
Ntp95
Rp96
(lp97
g0
(g39
g2
Ntp98
Rp99
(lp100
F0.48697273191184176
aF-0.0003249795766055996
aF0.3672047165651558
abag0
(g43
g2
Ntp101
Rp102
(lp103
F0.9986485219265587
aF-0.028677903984510297
aF0.042164274523526495
aF-0.010043974853580964
abababasS'gripper_state_list'
p104
(lp105
g0
(cpanda_eup.panda_primitive
GripperState
p106
g2
Ntp107
Rp108
(dp109
S'width'
p110
F0.08
sS'force'
p111
F0.0
sbag0
(g106
g2
Ntp112
Rp113
(dp114
g110
F0.033011291176080704
sg111
F22.4
sbag0
(g106
g2
Ntp115
Rp116
(dp117
g110
F0.04758337885141373
sg111
F0.0
sbasS'primitives'
p118
(lp119
g0
(g16
g2
Ntp120
Rp121
(dp122
S'status'
p123
cpanda_eup.panda_primitive
PandaPrimitiveStatus
p124
(I1
tp125
Rp126
sS'revertible'
p127
I01
sg18
S'A Move to Contact primitive'
p128
sS'starting_arm_state_index'
p129
I0
sS'parameters_with_effects_on_robot_state'
p130
(lp131
S'pose'
p132
aS'force_threshold'
p133
aS'torque_threshold'
p134
asS'expected_container'
p135
cpanda_pbd.msg._MoveToContactGoal
MoveToContactGoal
p136
sS'gui_tunable_parameter_strict_ranges'
p137
(dp138
S'force_threshold'
p139
(lp140
F5.0
aF20.0
asS'position_speed'
p141
(lp142
F0.01
aF0.25
assS'container_update_history'
p143
(lp144
g0
(g136
g2
Ntp145
Rp146
(lp147
g0
(g22
g2
Ntp148
Rp149
(lp150
g0
(g26
g2
Ntp151
Rp152
(lp153
I0
ag0
(g30
g2
Ntp154
Rp155
(lp156
I0
aI0
abag56
abag0
(g35
g2
Ntp157
Rp158
(lp159
g0
(g39
g2
Ntp160
Rp161
(lp162
F0.5069132714754178
aF0.004873624607929537
aF0.027077189596690976
abag0
(g43
g2
Ntp163
Rp164
(lp165
F0.9995143312059889
aF-0.02583181235790082
aF0.016166211683465017
aF-0.006517114695673689
abababaF0.07
aF-1.0
aF10.0
aF10.0
abag0
(g136
g2
Ntp166
Rp167
(lp168
g0
(g22
g2
Ntp169
Rp170
(lp171
g0
(g26
g2
Ntp172
Rp173
(lp174
I0
ag0
(g30
g2
Ntp175
Rp176
(lp177
I0
aI0
abag56
abag0
(g35
g2
Ntp178
Rp179
(lp180
g0
(g39
g2
Ntp181
Rp182
(lp183
F0.5069132714754178
aF0.004873624607929537
aF0.027077189596690976
abag0
(g43
g2
Ntp184
Rp185
(lp186
F0.9995143312059889
aF-0.02583181235790082
aF0.016166211683465017
aF-0.006517114695673689
abababaF0.0977942941874483
aF-1.0
aF10.0
aF10.0
abag0
(g136
g2
Ntp187
Rp188
(lp189
g0
(g22
g2
Ntp190
Rp191
(lp192
g0
(g26
g2
Ntp193
Rp194
(lp195
I0
ag0
(g30
g2
Ntp196
Rp197
(lp198
I0
aI0
abag56
abag0
(g35
g2
Ntp199
Rp200
(lp201
g0
(g39
g2
Ntp202
Rp203
(lp204
F0.5069132714754178
aF0.004873624607929537
aF0.027077189596690976
abag0
(g43
g2
Ntp205
Rp206
(lp207
F0.9995143312059889
aF-0.02583181235790082
aF0.016166211683465017
aF-0.006517114695673689
abababaF0.0977942941874483
aF-1.0
aF12.846192276783224
aF10.0
abasS'starting_gripper_state_index'
p208
I0
sS'parameters_update_history'
p209
(dp210
g133
(lp211
F10.0
aF12.846192276783224
asS'position_speed'
p212
(lp213
F0.07
aF0.0977942941874483
asS'rotation_speed'
p214
(lp215
F-1.0
asg134
(lp216
F10.0
asg132
(lp217
g0
(g22
g2
Ntp218
Rp219
(lp220
g0
(g26
g2
Ntp221
Rp222
(lp223
I0
ag0
(g30
g2
Ntp224
Rp225
(lp226
I0
aI0
abag56
abag0
(g35
g2
Ntp227
Rp228
(lp229
g0
(g39
g2
Ntp230
Rp231
(lp232
F0.5069132714754178
aF0.004873624607929537
aF0.027077189596690976
abag0
(g43
g2
Ntp233
Rp234
(lp235
F0.9995143312059889
aF-0.02583181235790082
aF0.016166211683465017
aF-0.006517114695673689
abababassS'parameter_container'
p236
g0
(g136
g2
Ntp237
Rp238
(lp239
g48
aF0.0977942941874483
aF-1.0
aF12.846192276783224
aF10.0
absbag0
(g14
g2
Ntp240
Rp241
(dp242
g123
g126
sg127
I01
sg18
S'A Apply Force (with) Fingers primitive'
p243
sg129
I1
sg130
(lp244
S'force'
p245
asg135
cpanda_pbd.srv._ApplyForceFingers
ApplyForceFingersRequest
p246
sg137
(dp247
g111
(lp248
F20.0
aF60.0
assg143
(lp249
g0
(g246
g2
Ntp250
Rp251
(lp252
F20.0
abag0
(g246
g2
Ntp253
Rp254
(lp255
F25.770499063943127
abag0
(g246
g2
Ntp256
Rp257
(lp258
F22.4
abasg208
I0
sg209
(dp259
g245
(lp260
F20.0
aF25.770499063943127
aF22.4
assg236
g0
(g246
g2
Ntp261
Rp262
(lp263
F22.4
absbag0
(g8
g2
Ntp264
Rp265
(dp266
g123
g126
sg127
I01
sg18
S'A Move to End-Effector primitive'
p267
sg129
I1
sg130
(lp268
g132
asg135
cpanda_pbd.msg._MoveToEEGoal
MoveToEEGoal
p269
sg137
(dp270
g141
(lp271
F0.01
aF0.35
assg143
(lp272
g0
(g269
g2
Ntp273
Rp274
(lp275
g0
(g22
g2
Ntp276
Rp277
(lp278
g0
(g26
g2
Ntp279
Rp280
(lp281
I0
ag0
(g30
g2
Ntp282
Rp283
(lp284
I0
aI0
abag75
abag0
(g35
g2
Ntp285
Rp286
(lp287
g0
(g39
g2
Ntp288
Rp289
(lp290
F0.6404225030201885
aF-0.21899515188976365
aF0.31947401035356376
abag0
(g43
g2
Ntp291
Rp292
(lp293
F0.8476936441278499
aF-0.15503337362532482
aF0.5028616917286283
aF0.06715845262823286
abababaF0.07
aF-1.0
abag0
(g269
g2
Ntp294
Rp295
(lp296
g0
(g22
g2
Ntp297
Rp298
(lp299
g0
(g26
g2
Ntp300
Rp301
(lp302
I0
ag0
(g30
g2
Ntp303
Rp304
(lp305
I0
aI0
abag75
abag0
(g35
g2
Ntp306
Rp307
(lp308
g0
(g39
g2
Ntp309
Rp310
(lp311
F0.6404225030201885
aF-0.21899515188976365
aF0.31947401035356376
abag0
(g43
g2
Ntp312
Rp313
(lp314
F0.8476936441278499
aF-0.15503337362532482
aF0.5028616917286283
aF0.06715845262823286
abababaF0.028806072288002332
aF-1.0
abag0
(g269
g2
Ntp315
Rp316
(lp317
g0
(g22
g2
Ntp318
Rp319
(lp320
g0
(g26
g2
Ntp321
Rp322
(lp323
I0
ag0
(g30
g2
Ntp324
Rp325
(lp326
I0
aI0
abag75
abag0
(g35
g2
Ntp327
Rp328
(lp329
g0
(g39
g2
Ntp330
Rp331
(lp332
F0.6404225030201885
aF-0.21899515188976365
aF0.31947401035356376
abag0
(g43
g2
Ntp333
Rp334
(lp335
F0.8476936441278499
aF-0.15503337362532482
aF0.5028616917286283
aF0.06715845262823286
abababaF0.044
aF-1.0
abasg208
I1
sg209
(dp336
g212
(lp337
F0.07
aF0.028806072288002332
aF0.044
asg214
(lp338
F-1.0
asg132
(lp339
g0
(g22
g2
Ntp340
Rp341
(lp342
g0
(g26
g2
Ntp343
Rp344
(lp345
I0
ag0
(g30
g2
Ntp346
Rp347
(lp348
I0
aI0
abag75
abag0
(g35
g2
Ntp349
Rp350
(lp351
g0
(g39
g2
Ntp352
Rp353
(lp354
F0.6404225030201885
aF-0.21899515188976365
aF0.31947401035356376
abag0
(g43
g2
Ntp355
Rp356
(lp357
F0.8476936441278499
aF-0.15503337362532482
aF0.5028616917286283
aF0.06715845262823286
abababassg236
g0
(g269
g2
Ntp358
Rp359
(lp360
g67
aF0.044
aF-1.0
absbag0
(g12
g2
Ntp361
Rp362
(dp363
g123
g126
sg127
I01
sg18
S'A User Synchronization primitive'
p364
sg129
I2
sg130
(lp365
sg135
cpanda_pbd.msg._UserSyncGoal
UserSyncGoal
p366
sg137
(dp367
g139
(lp368
F5.0
aF30.0
assg143
(lp369
g0
(g366
g2
Ntp370
Rp371
(lp372
F10.0
abag0
(g366
g2
Ntp373
Rp374
(lp375
F13.579829807125417
abag0
(g366
g2
Ntp376
Rp377
(lp378
F14.5
abasg208
I1
sg209
(dp379
g133
(lp380
F10.0
aF13.579829807125417
aF14.5
assg236
g0
(g366
g2
Ntp381
Rp382
(lp383
F14.5
absbag0
(g10
g2
Ntp384
Rp385
(dp386
g123
g126
sg127
I01
sg18
S'A Move Fingers primitive'
p387
sg129
I2
sg130
(lp388
S'width'
p389
asg135
cpanda_pbd.srv._MoveFingers
MoveFingersRequest
p390
sg137
(dp391
g389
(lp392
F0.04758337885141373
aF0.08
assg143
(lp393
g0
(g390
g2
Ntp394
Rp395
(lp396
F0.04758337885141373
abag0
(g390
g2
Ntp397
Rp398
(lp399
F0.06127609114169004
abasg208
I1
sg209
(dp400
g389
(lp401
F0.04758337885141373
aF0.06127609114169004
assg236
g0
(g390
g2
Ntp402
Rp403
(lp404
F0.06127609114169004
absbag0
(g8
g2
Ntp405
Rp406
(dp407
g123
g126
sg127
I01
sg18
g267
sg129
I2
sg130
(lp408
g132
asg135
g269
sg137
g270
sg143
(lp409
g0
(g269
g2
Ntp410
Rp411
(lp412
g0
(g22
g2
Ntp413
Rp414
(lp415
g0
(g26
g2
Ntp416
Rp417
(lp418
I0
ag0
(g30
g2
Ntp419
Rp420
(lp421
I0
aI0
abag94
abag0
(g35
g2
Ntp422
Rp423
(lp424
g0
(g39
g2
Ntp425
Rp426
(lp427
F0.48697273191184176
aF-0.0003249795766055996
aF0.3672047165651558
abag0
(g43
g2
Ntp428
Rp429
(lp430
F0.9986485219265587
aF-0.028677903984510297
aF0.042164274523526495
aF-0.010043974853580964
abababaF0.07
aF-1.0
abag0
(g269
g2
Ntp431
Rp432
(lp433
g0
(g22
g2
Ntp434
Rp435
(lp436
g0
(g26
g2
Ntp437
Rp438
(lp439
I0
ag0
(g30
g2
Ntp440
Rp441
(lp442
I0
aI0
abag94
abag0
(g35
g2
Ntp443
Rp444
(lp445
g0
(g39
g2
Ntp446
Rp447
(lp448
F0.48697273191184176
aF-0.0003249795766055996
aF0.3672047165651558
abag0
(g43
g2
Ntp449
Rp450
(lp451
F0.9986485219265587
aF-0.028677903984510297
aF0.042164274523526495
aF-0.010043974853580964
abababaF0.31343519500974176
aF-1.0
abag0
(g269
g2
Ntp452
Rp453
(lp454
g0
(g22
g2
Ntp455
Rp456
(lp457
g0
(g26
g2
Ntp458
Rp459
(lp460
I0
ag0
(g30
g2
Ntp461
Rp462
(lp463
I0
aI0
abag94
abag0
(g35
g2
Ntp464
Rp465
(lp466
g0
(g39
g2
Ntp467
Rp468
(lp469
F0.48697273191184176
aF-0.0003249795766055996
aF0.3672047165651558
abag0
(g43
g2
Ntp470
Rp471
(lp472
F0.9986485219265587
aF-0.028677903984510297
aF0.042164274523526495
aF-0.010043974853580964
abababaF0.1528
aF-1.0
abag0
(g269
g2
Ntp473
Rp474
(lp475
g0
(g22
g2
Ntp476
Rp477
(lp478
g0
(g26
g2
Ntp479
Rp480
(lp481
I0
ag0
(g30
g2
Ntp482
Rp483
(lp484
I0
aI0
abag94
abag0
(g35
g2
Ntp485
Rp486
(lp487
g0
(g39
g2
Ntp488
Rp489
(lp490
F0.48697273191184176
aF-0.0003249795766055996
aF0.3672047165651558
abag0
(g43
g2
Ntp491
Rp492
(lp493
F0.9986485219265587
aF-0.028677903984510297
aF0.042164274523526495
aF-0.010043974853580964
abababaF0.11879999999999999
aF-1.0
abag0
(g269
g2
Ntp494
Rp495
(lp496
g0
(g22
g2
Ntp497
Rp498
(lp499
g0
(g26
g2
Ntp500
Rp501
(lp502
I0
ag0
(g30
g2
Ntp503
Rp504
(lp505
I0
aI0
abag94
abag0
(g35
g2
Ntp506
Rp507
(lp508
g0
(g39
g2
Ntp509
Rp510
(lp511
F0.48697273191184176
aF-0.0003249795766055996
aF0.3672047165651558
abag0
(g43
g2
Ntp512
Rp513
(lp514
F0.9986485219265587
aF-0.028677903984510297
aF0.042164274523526495
aF-0.010043974853580964
abababaF0.10519999999999999
aF-1.0
abasg208
I2
sg209
(dp515
g212
(lp516
F0.07
aF0.31343519500974176
aF0.1528
aF0.11879999999999999
aF0.10519999999999999
asg214
(lp517
F-1.0
asg132
(lp518
g0
(g22
g2
Ntp519
Rp520
(lp521
g0
(g26
g2
Ntp522
Rp523
(lp524
I0
ag0
(g30
g2
Ntp525
Rp526
(lp527
I0
aI0
abag94
abag0
(g35
g2
Ntp528
Rp529
(lp530
g0
(g39
g2
Ntp531
Rp532
(lp533
F0.48697273191184176
aF-0.0003249795766055996
aF0.3672047165651558
abag0
(g43
g2
Ntp534
Rp535
(lp536
F0.9986485219265587
aF-0.028677903984510297
aF0.042164274523526495
aF-0.010043974853580964
abababassg236
g0
(g269
g2
Ntp537
Rp538
(lp539
g86
aF0.10519999999999999
aF-1.0
absbasS'name'
p540
S'A Panda Program'
p541
sb.