ccopy_reg
_reconstructor
p0
(cpanda_eup.panda_primitive
PandaProgram
p1
c__builtin__
object
p2
Ntp3
Rp4
(dp5
S'effect_of_primitive'
p6
(dp7
cpanda_eup.panda_primitive
MoveToEE
p8
(lp9
I01
aI00
ascpanda_eup.panda_primitive
MoveToContact
p10
(lp11
I01
aI00
ascpanda_eup.panda_primitive
UserSync
p12
(lp13
I00
aI00
ascpanda_eup.panda_primitive
MoveFingers
p14
(lp15
I00
aI01
ascpanda_eup.panda_primitive
ApplyForceFingers
p16
(lp17
I00
aI01
assS'description'
p18
S'Empty Description'
p19
sS'arm_state_list'
p20
(lp21
g0
(cgeometry_msgs.msg._PoseStamped
PoseStamped
p22
g2
Ntp23
Rp24
(lp25
g0
(cstd_msgs.msg._Header
Header
p26
g2
Ntp27
Rp28
(lp29
I0
ag0
(cgenpy.rostime
Time
p30
g2
Ntp31
Rp32
(lp33
I0
aI0
abaS'panda_link0'
p34
abag0
(cgeometry_msgs.msg._Pose
Pose
p35
g2
Ntp36
Rp37
(lp38
g0
(cgeometry_msgs.msg._Point
Point
p39
g2
Ntp40
Rp41
(lp42
F0.4510165764388451
aF-0.25451251814105036
aF0.3556417119176069
abag0
(cgeometry_msgs.msg._Quaternion
Quaternion
p43
g2
Ntp44
Rp45
(lp46
F0.7211211619272221
aF-0.6927664377328487
aF-0.0034873344989196893
aF0.0068389377658327165
abababag0
(g22
g2
Ntp47
Rp48
(lp49
g0
(g26
g2
Ntp50
Rp51
(lp52
I0
ag0
(g30
g2
Ntp53
Rp54
(lp55
I0
aI0
abaS'panda_link0'
p56
abag0
(g35
g2
Ntp57
Rp58
(lp59
g0
(g39
g2
Ntp60
Rp61
(lp62
F0.45731330339970816
aF-0.22204124762790467
aF0.12802671441706054
abag0
(g43
g2
Ntp63
Rp64
(lp65
F0.7070758708113997
aF-0.7067034985416127
aF0.014400301817407694
aF0.020162077594167223
abababag0
(g22
g2
Ntp66
Rp67
(lp68
g0
(g26
g2
Ntp69
Rp70
(lp71
I0
ag0
(g30
g2
Ntp72
Rp73
(lp74
I0
aI0
abaS'panda_link0'
p75
abag0
(g35
g2
Ntp76
Rp77
(lp78
g0
(g39
g2
Ntp79
Rp80
(lp81
F0.5313906534561575
aF-0.2283100021383075
aF0.09632848108884426
abag0
(g43
g2
Ntp82
Rp83
(lp84
F0.6791688475698168
aF-0.6490679687518547
aF-0.2476786971801487
aF-0.23684533221951534
abababag0
(g22
g2
Ntp85
Rp86
(lp87
g0
(g26
g2
Ntp88
Rp89
(lp90
I0
ag0
(g30
g2
Ntp91
Rp92
(lp93
I0
aI0
abaS'panda_link0'
p94
abag0
(g35
g2
Ntp95
Rp96
(lp97
g0
(g39
g2
Ntp98
Rp99
(lp100
F0.48522597525926614
aF0.2760220039769015
aF0.06658220792782904
abag0
(g43
g2
Ntp101
Rp102
(lp103
F-0.6684704132562753
aF0.6785119972421104
aF0.22596807729879947
aF0.20422341746575107
abababag0
(g22
g2
Ntp104
Rp105
(lp106
g0
(g26
g2
Ntp107
Rp108
(lp109
I0
ag0
(g30
g2
Ntp110
Rp111
(lp112
I0
aI0
abaS'panda_link0'
p113
abag0
(g35
g2
Ntp114
Rp115
(lp116
g0
(g39
g2
Ntp117
Rp118
(lp119
F0.45994461169103945
aF-0.053965652564801334
aF0.3414368641542338
abag0
(g43
g2
Ntp120
Rp121
(lp122
F0.9989220383304196
aF-0.03026478824798525
aF0.02526619563073721
aF-0.02450353624384985
abababasS'gripper_state_list'
p123
(lp124
g0
(cpanda_eup.panda_primitive
GripperState
p125
g2
Ntp126
Rp127
(dp128
S'width'
p129
F0.08
sS'force'
p130
F0.0
sbasS'primitives'
p131
(lp132
g0
(g8
g2
Ntp133
Rp134
(dp135
S'status'
p136
cpanda_eup.panda_primitive
PandaPrimitiveStatus
p137
(I1
tp138
Rp139
sS'revertible'
p140
I01
sg18
S'A Move to End-Effector primitive'
p141
sS'starting_arm_state_index'
p142
I0
sS'parameters_with_effects_on_robot_state'
p143
(lp144
S'pose'
p145
asS'expected_container'
p146
cpanda_pbd.msg._MoveToEEGoal
MoveToEEGoal
p147
sS'gui_tunable_parameter_strict_ranges'
p148
(dp149
S'position_speed'
p150
(lp151
F0.01
aF0.35
assS'container_update_history'
p152
(lp153
g0
(g147
g2
Ntp154
Rp155
(lp156
g0
(g22
g2
Ntp157
Rp158
(lp159
g0
(g26
g2
Ntp160
Rp161
(lp162
I0
ag0
(g30
g2
Ntp163
Rp164
(lp165
I0
aI0
abag56
abag0
(g35
g2
Ntp166
Rp167
(lp168
g0
(g39
g2
Ntp169
Rp170
(lp171
F0.45731330339970816
aF-0.22204124762790467
aF0.12802671441706054
abag0
(g43
g2
Ntp172
Rp173
(lp174
F0.7070758708113997
aF-0.7067034985416127
aF0.014400301817407694
aF0.020162077594167223
abababaF0.07
aF-1.0
abag0
(g147
g2
Ntp175
Rp176
(lp177
g0
(g22
g2
Ntp178
Rp179
(lp180
g0
(g26
g2
Ntp181
Rp182
(lp183
I0
ag0
(g30
g2
Ntp184
Rp185
(lp186
I0
aI0
abag56
abag0
(g35
g2
Ntp187
Rp188
(lp189
g0
(g39
g2
Ntp190
Rp191
(lp192
F0.45731330339970816
aF-0.22204124762790467
aF0.12802671441706054
abag0
(g43
g2
Ntp193
Rp194
(lp195
F0.7070758708113997
aF-0.7067034985416127
aF0.014400301817407694
aF0.020162077594167223
abababaF0.3455451279898843
aF-1.0
abag0
(g147
g2
Ntp196
Rp197
(lp198
g0
(g22
g2
Ntp199
Rp200
(lp201
g0
(g26
g2
Ntp202
Rp203
(lp204
I0
ag0
(g30
g2
Ntp205
Rp206
(lp207
I0
aI0
abag56
abag0
(g35
g2
Ntp208
Rp209
(lp210
g0
(g39
g2
Ntp211
Rp212
(lp213
F0.45731330339970816
aF-0.22204124762790467
aF0.12802671441706054
abag0
(g43
g2
Ntp214
Rp215
(lp216
F0.7070758708113997
aF-0.7067034985416127
aF0.014400301817407694
aF0.020162077594167223
abababaF0.35
aF-1.0
abasS'starting_gripper_state_index'
p217
I0
sS'parameters_update_history'
p218
(dp219
S'position_speed'
p220
(lp221
F0.07
aF0.3455451279898843
aF0.35
asS'rotation_speed'
p222
(lp223
F-1.0
asg145
(lp224
g0
(g22
g2
Ntp225
Rp226
(lp227
g0
(g26
g2
Ntp228
Rp229
(lp230
I0
ag0
(g30
g2
Ntp231
Rp232
(lp233
I0
aI0
abag56
abag0
(g35
g2
Ntp234
Rp235
(lp236
g0
(g39
g2
Ntp237
Rp238
(lp239
F0.45731330339970816
aF-0.22204124762790467
aF0.12802671441706054
abag0
(g43
g2
Ntp240
Rp241
(lp242
F0.7070758708113997
aF-0.7067034985416127
aF0.014400301817407694
aF0.020162077594167223
abababassS'parameter_container'
p243
g0
(g147
g2
Ntp244
Rp245
(lp246
g48
aF0.35
aF-1.0
absbag0
(g8
g2
Ntp247
Rp248
(dp249
g136
g139
sg140
I01
sg18
g141
sg142
I1
sg143
(lp250
g145
asg146
g147
sg148
g149
sg152
(lp251
g0
(g147
g2
Ntp252
Rp253
(lp254
g0
(g22
g2
Ntp255
Rp256
(lp257
g0
(g26
g2
Ntp258
Rp259
(lp260
I0
ag0
(g30
g2
Ntp261
Rp262
(lp263
I0
aI0
abag75
abag0
(g35
g2
Ntp264
Rp265
(lp266
g0
(g39
g2
Ntp267
Rp268
(lp269
F0.5313906534561575
aF-0.2283100021383075
aF0.09632848108884426
abag0
(g43
g2
Ntp270
Rp271
(lp272
F0.6791688475698168
aF-0.6490679687518547
aF-0.2476786971801487
aF-0.23684533221951534
abababaF0.07
aF-1.0
abag0
(g147
g2
Ntp273
Rp274
(lp275
g0
(g22
g2
Ntp276
Rp277
(lp278
g0
(g26
g2
Ntp279
Rp280
(lp281
I0
ag0
(g30
g2
Ntp282
Rp283
(lp284
I0
aI0
abag75
abag0
(g35
g2
Ntp285
Rp286
(lp287
g0
(g39
g2
Ntp288
Rp289
(lp290
F0.5313906534561575
aF-0.2283100021383075
aF0.09632848108884426
abag0
(g43
g2
Ntp291
Rp292
(lp293
F0.6791688475698168
aF-0.6490679687518547
aF-0.2476786971801487
aF-0.23684533221951534
abababaF0.03882560514429529
aF-1.0
abag0
(g147
g2
Ntp294
Rp295
(lp296
g0
(g22
g2
Ntp297
Rp298
(lp299
g0
(g26
g2
Ntp300
Rp301
(lp302
I0
ag0
(g30
g2
Ntp303
Rp304
(lp305
I0
aI0
abag75
abag0
(g35
g2
Ntp306
Rp307
(lp308
g0
(g39
g2
Ntp309
Rp310
(lp311
F0.5313906534561575
aF-0.2283100021383075
aF0.09632848108884426
abag0
(g43
g2
Ntp312
Rp313
(lp314
F0.6791688475698168
aF-0.6490679687518547
aF-0.2476786971801487
aF-0.23684533221951534
abababaF0.1732
aF-1.0
abag0
(g147
g2
Ntp315
Rp316
(lp317
g0
(g22
g2
Ntp318
Rp319
(lp320
g0
(g26
g2
Ntp321
Rp322
(lp323
I0
ag0
(g30
g2
Ntp324
Rp325
(lp326
I0
aI0
abag75
abag0
(g35
g2
Ntp327
Rp328
(lp329
g0
(g39
g2
Ntp330
Rp331
(lp332
F0.5313906534561575
aF-0.2283100021383075
aF0.09632848108884426
abag0
(g43
g2
Ntp333
Rp334
(lp335
F0.6791688475698168
aF-0.6490679687518547
aF-0.2476786971801487
aF-0.23684533221951534
abababaF0.3432
aF-1.0
abasg217
I0
sg218
(dp336
g220
(lp337
F0.07
aF0.03882560514429529
aF0.1732
aF0.3432
asg222
(lp338
F-1.0
asg145
(lp339
g0
(g22
g2
Ntp340
Rp341
(lp342
g0
(g26
g2
Ntp343
Rp344
(lp345
I0
ag0
(g30
g2
Ntp346
Rp347
(lp348
I0
aI0
abag75
abag0
(g35
g2
Ntp349
Rp350
(lp351
g0
(g39
g2
Ntp352
Rp353
(lp354
F0.5313906534561575
aF-0.2283100021383075
aF0.09632848108884426
abag0
(g43
g2
Ntp355
Rp356
(lp357
F0.6791688475698168
aF-0.6490679687518547
aF-0.2476786971801487
aF-0.23684533221951534
abababassg243
g0
(g147
g2
Ntp358
Rp359
(lp360
g67
aF0.3432
aF-1.0
absbag0
(g10
g2
Ntp361
Rp362
(dp363
g136
g139
sg140
I01
sg18
S'A Move to Contact primitive'
p364
sg142
I2
sg143
(lp365
g145
aS'force_threshold'
p366
aS'torque_threshold'
p367
asg146
cpanda_pbd.msg._MoveToContactGoal
MoveToContactGoal
p368
sg148
(dp369
S'force_threshold'
p370
(lp371
F5.0
aF20.0
asg150
(lp372
F0.01
aF0.25
assg152
(lp373
g0
(g368
g2
Ntp374
Rp375
(lp376
g0
(g22
g2
Ntp377
Rp378
(lp379
g0
(g26
g2
Ntp380
Rp381
(lp382
I0
ag0
(g30
g2
Ntp383
Rp384
(lp385
I0
aI0
abag94
abag0
(g35
g2
Ntp386
Rp387
(lp388
g0
(g39
g2
Ntp389
Rp390
(lp391
F0.48522597525926614
aF0.2760220039769015
aF0.06658220792782904
abag0
(g43
g2
Ntp392
Rp393
(lp394
F-0.6684704132562753
aF0.6785119972421104
aF0.22596807729879947
aF0.20422341746575107
abababaF0.07
aF-1.0
aF10.0
aF10.0
abag0
(g368
g2
Ntp395
Rp396
(lp397
g0
(g22
g2
Ntp398
Rp399
(lp400
g0
(g26
g2
Ntp401
Rp402
(lp403
I0
ag0
(g30
g2
Ntp404
Rp405
(lp406
I0
aI0
abag94
abag0
(g35
g2
Ntp407
Rp408
(lp409
g0
(g39
g2
Ntp410
Rp411
(lp412
F0.48522597525926614
aF0.2760220039769015
aF0.06658220792782904
abag0
(g43
g2
Ntp413
Rp414
(lp415
F-0.6684704132562753
aF0.6785119972421104
aF0.22596807729879947
aF0.20422341746575107
abababaF0.20878152674798311
aF-1.0
aF10.0
aF10.0
abag0
(g368
g2
Ntp416
Rp417
(lp418
g0
(g22
g2
Ntp419
Rp420
(lp421
g0
(g26
g2
Ntp422
Rp423
(lp424
I0
ag0
(g30
g2
Ntp425
Rp426
(lp427
I0
aI0
abag94
abag0
(g35
g2
Ntp428
Rp429
(lp430
g0
(g39
g2
Ntp431
Rp432
(lp433
F0.48522597525926614
aF0.2760220039769015
aF0.06658220792782904
abag0
(g43
g2
Ntp434
Rp435
(lp436
F-0.6684704132562753
aF0.6785119972421104
aF0.22596807729879947
aF0.20422341746575107
abababaF0.20878152674798311
aF-1.0
aF6.148504969059836
aF10.0
abag0
(g368
g2
Ntp437
Rp438
(lp439
g0
(g22
g2
Ntp440
Rp441
(lp442
g0
(g26
g2
Ntp443
Rp444
(lp445
I0
ag0
(g30
g2
Ntp446
Rp447
(lp448
I0
aI0
abag94
abag0
(g35
g2
Ntp449
Rp450
(lp451
g0
(g39
g2
Ntp452
Rp453
(lp454
F0.48522597525926614
aF0.2760220039769015
aF0.06658220792782904
abag0
(g43
g2
Ntp455
Rp456
(lp457
F-0.6684704132562753
aF0.6785119972421104
aF0.22596807729879947
aF0.20422341746575107
abababaF0.25
aF-1.0
aF6.148504969059836
aF10.0
abasg217
I0
sg218
(dp458
g366
(lp459
F10.0
aF6.148504969059836
asg220
(lp460
F0.07
aF0.20878152674798311
aF0.25
asg222
(lp461
F-1.0
asg367
(lp462
F10.0
asg145
(lp463
g0
(g22
g2
Ntp464
Rp465
(lp466
g0
(g26
g2
Ntp467
Rp468
(lp469
I0
ag0
(g30
g2
Ntp470
Rp471
(lp472
I0
aI0
abag94
abag0
(g35
g2
Ntp473
Rp474
(lp475
g0
(g39
g2
Ntp476
Rp477
(lp478
F0.48522597525926614
aF0.2760220039769015
aF0.06658220792782904
abag0
(g43
g2
Ntp479
Rp480
(lp481
F-0.6684704132562753
aF0.6785119972421104
aF0.22596807729879947
aF0.20422341746575107
abababassg243
g0
(g368
g2
Ntp482
Rp483
(lp484
g86
aF0.25
aF-1.0
aF6.148504969059836
aF10.0
absbag0
(g8
g2
Ntp485
Rp486
(dp487
g136
g139
sg140
I01
sg18
g141
sg142
I3
sg143
(lp488
g145
asg146
g147
sg148
g149
sg152
(lp489
g0
(g147
g2
Ntp490
Rp491
(lp492
g0
(g22
g2
Ntp493
Rp494
(lp495
g0
(g26
g2
Ntp496
Rp497
(lp498
I0
ag0
(g30
g2
Ntp499
Rp500
(lp501
I0
aI0
abag113
abag0
(g35
g2
Ntp502
Rp503
(lp504
g0
(g39
g2
Ntp505
Rp506
(lp507
F0.45994461169103945
aF-0.053965652564801334
aF0.3414368641542338
abag0
(g43
g2
Ntp508
Rp509
(lp510
F0.9989220383304196
aF-0.03026478824798525
aF0.02526619563073721
aF-0.02450353624384985
abababaF0.07
aF-1.0
abag0
(g147
g2
Ntp511
Rp512
(lp513
g0
(g22
g2
Ntp514
Rp515
(lp516
g0
(g26
g2
Ntp517
Rp518
(lp519
I0
ag0
(g30
g2
Ntp520
Rp521
(lp522
I0
aI0
abag113
abag0
(g35
g2
Ntp523
Rp524
(lp525
g0
(g39
g2
Ntp526
Rp527
(lp528
F0.45994461169103945
aF-0.053965652564801334
aF0.3414368641542338
abag0
(g43
g2
Ntp529
Rp530
(lp531
F0.9989220383304196
aF-0.03026478824798525
aF0.02526619563073721
aF-0.02450353624384985
abababaF0.30008471437880835
aF-1.0
abag0
(g147
g2
Ntp532
Rp533
(lp534
g0
(g22
g2
Ntp535
Rp536
(lp537
g0
(g26
g2
Ntp538
Rp539
(lp540
I0
ag0
(g30
g2
Ntp541
Rp542
(lp543
I0
aI0
abag113
abag0
(g35
g2
Ntp544
Rp545
(lp546
g0
(g39
g2
Ntp547
Rp548
(lp549
F0.45994461169103945
aF-0.053965652564801334
aF0.3414368641542338
abag0
(g43
g2
Ntp550
Rp551
(lp552
F0.9989220383304196
aF-0.03026478824798525
aF0.02526619563073721
aF-0.02450353624384985
abababaF0.35
aF-1.0
abasg217
I0
sg218
(dp553
g220
(lp554
F0.07
aF0.30008471437880835
aF0.35
asg222
(lp555
F-1.0
asg145
(lp556
g0
(g22
g2
Ntp557
Rp558
(lp559
g0
(g26
g2
Ntp560
Rp561
(lp562
I0
ag0
(g30
g2
Ntp563
Rp564
(lp565
I0
aI0
abag113
abag0
(g35
g2
Ntp566
Rp567
(lp568
g0
(g39
g2
Ntp569
Rp570
(lp571
F0.45994461169103945
aF-0.053965652564801334
aF0.3414368641542338
abag0
(g43
g2
Ntp572
Rp573
(lp574
F0.9989220383304196
aF-0.03026478824798525
aF0.02526619563073721
aF-0.02450353624384985
abababassg243
g0
(g147
g2
Ntp575
Rp576
(lp577
g105
aF0.35
aF-1.0
absbasS'name'
p578
S'A Panda Program'
p579
sb.