ccopy_reg
_reconstructor
p0
(cpanda_eup.panda_primitive
PandaProgram
p1
c__builtin__
object
p2
Ntp3
Rp4
(dp5
S'effect_of_primitive'
p6
(dp7
cpanda_eup.panda_primitive
MoveToEE
p8
(lp9
I01
aI00
ascpanda_eup.panda_primitive
MoveToContact
p10
(lp11
I01
aI00
ascpanda_eup.panda_primitive
ApplyForceFingers
p12
(lp13
I00
aI01
ascpanda_eup.panda_primitive
UserSync
p14
(lp15
I00
aI00
ascpanda_eup.panda_primitive
MoveFingers
p16
(lp17
I00
aI01
assS'description'
p18
S'Empty Description'
p19
sS'arm_state_list'
p20
(lp21
g0
(cgeometry_msgs.msg._PoseStamped
PoseStamped
p22
g2
Ntp23
Rp24
(lp25
g0
(cstd_msgs.msg._Header
Header
p26
g2
Ntp27
Rp28
(lp29
I0
ag0
(cgenpy.rostime
Time
p30
g2
Ntp31
Rp32
(lp33
I0
aI0
abaS'panda_link0'
p34
abag0
(cgeometry_msgs.msg._Pose
Pose
p35
g2
Ntp36
Rp37
(lp38
g0
(cgeometry_msgs.msg._Point
Point
p39
g2
Ntp40
Rp41
(lp42
F0.4833974233623748
aF0.007318751177980708
aF0.3904495689279949
abag0
(cgeometry_msgs.msg._Quaternion
Quaternion
p43
g2
Ntp44
Rp45
(lp46
F0.9993500431690824
aF-0.014042189921340717
aF-0.02007113406023331
aF-0.026447262574839425
abababag0
(g22
g2
Ntp47
Rp48
(lp49
g0
(g26
g2
Ntp50
Rp51
(lp52
I0
ag0
(g30
g2
Ntp53
Rp54
(lp55
I0
aI0
abaS'panda_link0'
p56
abag0
(g35
g2
Ntp57
Rp58
(lp59
g0
(g39
g2
Ntp60
Rp61
(lp62
F0.4989970099518781
aF0.0011984777847898545
aF0.02130827252661721
abag0
(g43
g2
Ntp63
Rp64
(lp65
F0.9996947900273575
aF-0.022255152848672296
aF0.01065663958311288
aF0.0012128465012364122
abababag0
(g22
g2
Ntp66
Rp67
(lp68
g0
(g26
g2
Ntp69
Rp70
(lp71
I0
ag0
(g30
g2
Ntp72
Rp73
(lp74
I0
aI0
abaS'panda_link0'
p75
abag0
(g35
g2
Ntp76
Rp77
(lp78
g0
(g39
g2
Ntp79
Rp80
(lp81
F0.6404225030201885
aF-0.21899515188976365
aF0.31947401035356376
abag0
(g43
g2
Ntp82
Rp83
(lp84
F0.8476936441278499
aF-0.15503337362532482
aF0.5028616917286283
aF0.06715845262823286
abababag0
(g22
g2
Ntp85
Rp86
(lp87
g0
(g26
g2
Ntp88
Rp89
(lp90
I0
ag0
(g30
g2
Ntp91
Rp92
(lp93
I0
aI0
abaS'panda_link0'
p94
abag0
(g35
g2
Ntp95
Rp96
(lp97
g0
(g39
g2
Ntp98
Rp99
(lp100
F0.48697273191184176
aF-0.0003249795766055996
aF0.3672047165651558
abag0
(g43
g2
Ntp101
Rp102
(lp103
F0.9986485219265587
aF-0.028677903984510297
aF0.042164274523526495
aF-0.010043974853580964
abababasS'gripper_state_list'
p104
(lp105
g0
(cpanda_eup.panda_primitive
GripperState
p106
g2
Ntp107
Rp108
(dp109
S'width'
p110
F0.08
sS'force'
p111
F0.0
sbag0
(g106
g2
Ntp112
Rp113
(dp114
g110
F0.03073856607079506
sg111
F21.6
sbag0
(g106
g2
Ntp115
Rp116
(dp117
g110
F0.055295929312705994
sg111
F0.0
sbasS'primitives'
p118
(lp119
g0
(g10
g2
Ntp120
Rp121
(dp122
S'status'
p123
cpanda_eup.panda_primitive
PandaPrimitiveStatus
p124
(I1
tp125
Rp126
sS'revertible'
p127
I01
sg18
S'A Move to Contact primitive'
p128
sS'starting_arm_state_index'
p129
I0
sS'parameters_with_effects_on_robot_state'
p130
(lp131
S'pose'
p132
aS'force_threshold'
p133
aS'torque_threshold'
p134
asS'expected_container'
p135
cpanda_pbd.msg._MoveToContactGoal
MoveToContactGoal
p136
sS'gui_tunable_parameter_strict_ranges'
p137
(dp138
S'force_threshold'
p139
(lp140
F5.0
aF20.0
asS'position_speed'
p141
(lp142
F0.01
aF0.25
assS'container_update_history'
p143
(lp144
g0
(g136
g2
Ntp145
Rp146
(lp147
g0
(g22
g2
Ntp148
Rp149
(lp150
g0
(g26
g2
Ntp151
Rp152
(lp153
I0
ag0
(g30
g2
Ntp154
Rp155
(lp156
I0
aI0
abaS'panda_link0'
p157
abag0
(g35
g2
Ntp158
Rp159
(lp160
g0
(g39
g2
Ntp161
Rp162
(lp163
F0.5069132714754178
aF0.004873624607929537
aF0.027077189596690976
abag0
(g43
g2
Ntp164
Rp165
(lp166
F0.9995143312059889
aF-0.02583181235790082
aF0.016166211683465017
aF-0.006517114695673689
abababaF0.07
aF-1.0
aF10.0
aF10.0
abag0
(g136
g2
Ntp167
Rp168
(lp169
g0
(g22
g2
Ntp170
Rp171
(lp172
g0
(g26
g2
Ntp173
Rp174
(lp175
I0
ag0
(g30
g2
Ntp176
Rp177
(lp178
I0
aI0
abag157
abag0
(g35
g2
Ntp179
Rp180
(lp181
g0
(g39
g2
Ntp182
Rp183
(lp184
F0.5069132714754178
aF0.004873624607929537
aF0.027077189596690976
abag0
(g43
g2
Ntp185
Rp186
(lp187
F0.9995143312059889
aF-0.02583181235790082
aF0.016166211683465017
aF-0.006517114695673689
abababaF0.1537554898358302
aF-1.0
aF10.0
aF10.0
abag0
(g136
g2
Ntp188
Rp189
(lp190
g0
(g22
g2
Ntp191
Rp192
(lp193
g0
(g26
g2
Ntp194
Rp195
(lp196
I0
ag0
(g30
g2
Ntp197
Rp198
(lp199
I0
aI0
abag157
abag0
(g35
g2
Ntp200
Rp201
(lp202
g0
(g39
g2
Ntp203
Rp204
(lp205
F0.5069132714754178
aF0.004873624607929537
aF0.027077189596690976
abag0
(g43
g2
Ntp206
Rp207
(lp208
F0.9995143312059889
aF-0.02583181235790082
aF0.016166211683465017
aF-0.006517114695673689
abababaF0.1537554898358302
aF-1.0
aF18.296453491499754
aF10.0
abag0
(g136
g2
Ntp209
Rp210
(lp211
g0
(g22
g2
Ntp212
Rp213
(lp214
g0
(g26
g2
Ntp215
Rp216
(lp217
I0
ag0
(g30
g2
Ntp218
Rp219
(lp220
I0
aI0
abag157
abag0
(g35
g2
Ntp221
Rp222
(lp223
g0
(g39
g2
Ntp224
Rp225
(lp226
F0.5069132714754178
aF0.004873624607929537
aF0.027077189596690976
abag0
(g43
g2
Ntp227
Rp228
(lp229
F0.9995143312059889
aF-0.02583181235790082
aF0.016166211683465017
aF-0.006517114695673689
abababaF0.1924
aF-1.0
aF18.296453491499754
aF10.0
abag0
(g136
g2
Ntp230
Rp231
(lp232
g0
(g22
g2
Ntp233
Rp234
(lp235
g0
(g26
g2
Ntp236
Rp237
(lp238
I0
ag0
(g30
g2
Ntp239
Rp240
(lp241
I0
aI0
abag157
abag0
(g35
g2
Ntp242
Rp243
(lp244
g0
(g39
g2
Ntp245
Rp246
(lp247
F0.5069132714754178
aF0.004873624607929537
aF0.027077189596690976
abag0
(g43
g2
Ntp248
Rp249
(lp250
F0.9995143312059889
aF-0.02583181235790082
aF0.016166211683465017
aF-0.006517114695673689
abababaF0.1924
aF-1.0
aF9.5
aF10.0
abasS'starting_gripper_state_index'
p251
I0
sS'parameters_update_history'
p252
(dp253
g133
(lp254
F10.0
aF18.296453491499754
aF9.5
asS'position_speed'
p255
(lp256
F0.07
aF0.1537554898358302
aF0.1924
asS'rotation_speed'
p257
(lp258
F-1.0
asg134
(lp259
F10.0
asg132
(lp260
g0
(g22
g2
Ntp261
Rp262
(lp263
g0
(g26
g2
Ntp264
Rp265
(lp266
I0
ag0
(g30
g2
Ntp267
Rp268
(lp269
I0
aI0
abag157
abag0
(g35
g2
Ntp270
Rp271
(lp272
g0
(g39
g2
Ntp273
Rp274
(lp275
F0.5069132714754178
aF0.004873624607929537
aF0.027077189596690976
abag0
(g43
g2
Ntp276
Rp277
(lp278
F0.9995143312059889
aF-0.02583181235790082
aF0.016166211683465017
aF-0.006517114695673689
abababassS'parameter_container'
p279
g0
(g136
g2
Ntp280
Rp281
(lp282
g0
(g22
g2
Ntp283
Rp284
(lp285
g0
(g26
g2
Ntp286
Rp287
(lp288
I0
ag0
(g30
g2
Ntp289
Rp290
(lp291
I0
aI0
abag157
abag0
(g35
g2
Ntp292
Rp293
(lp294
g0
(g39
g2
Ntp295
Rp296
(lp297
F0.5069132714754178
aF0.004873624607929537
aF0.027077189596690976
abag0
(g43
g2
Ntp298
Rp299
(lp300
F0.9995143312059889
aF-0.02583181235790082
aF0.016166211683465017
aF-0.006517114695673689
abababaF0.1924
aF-1.0
aF9.5
aF10.0
absbag0
(g12
g2
Ntp301
Rp302
(dp303
g123
g126
sg127
I01
sg18
S'A Apply Force (with) Fingers primitive'
p304
sg129
I1
sg130
(lp305
S'force'
p306
asg135
cpanda_pbd.srv._ApplyForceFingers
ApplyForceFingersRequest
p307
sg137
(dp308
g111
(lp309
F20.0
aF60.0
assg143
(lp310
g0
(g307
g2
Ntp311
Rp312
(lp313
F20.0
abag0
(g307
g2
Ntp314
Rp315
(lp316
F30.236620501376134
abag0
(g307
g2
Ntp317
Rp318
(lp319
F21.6
abasg251
I0
sg252
(dp320
g306
(lp321
F20.0
aF30.236620501376134
aF21.6
assg279
g0
(g307
g2
Ntp322
Rp323
(lp324
F21.6
absbag0
(g8
g2
Ntp325
Rp326
(dp327
g123
g126
sg127
I01
sg18
S'A Move to End-Effector primitive'
p328
sg129
I1
sg130
(lp329
g132
asg135
cpanda_pbd.msg._MoveToEEGoal
MoveToEEGoal
p330
sg137
(dp331
g141
(lp332
F0.01
aF0.35
assg143
(lp333
g0
(g330
g2
Ntp334
Rp335
(lp336
g0
(g22
g2
Ntp337
Rp338
(lp339
g0
(g26
g2
Ntp340
Rp341
(lp342
I0
ag0
(g30
g2
Ntp343
Rp344
(lp345
I0
aI0
abag75
abag0
(g35
g2
Ntp346
Rp347
(lp348
g0
(g39
g2
Ntp349
Rp350
(lp351
F0.6404225030201885
aF-0.21899515188976365
aF0.31947401035356376
abag0
(g43
g2
Ntp352
Rp353
(lp354
F0.8476936441278499
aF-0.15503337362532482
aF0.5028616917286283
aF0.06715845262823286
abababaF0.07
aF-1.0
abag0
(g330
g2
Ntp355
Rp356
(lp357
g0
(g22
g2
Ntp358
Rp359
(lp360
g0
(g26
g2
Ntp361
Rp362
(lp363
I0
ag0
(g30
g2
Ntp364
Rp365
(lp366
I0
aI0
abag75
abag0
(g35
g2
Ntp367
Rp368
(lp369
g0
(g39
g2
Ntp370
Rp371
(lp372
F0.6404225030201885
aF-0.21899515188976365
aF0.31947401035356376
abag0
(g43
g2
Ntp373
Rp374
(lp375
F0.8476936441278499
aF-0.15503337362532482
aF0.5028616917286283
aF0.06715845262823286
abababaF0.07473897659003116
aF-1.0
abag0
(g330
g2
Ntp376
Rp377
(lp378
g0
(g22
g2
Ntp379
Rp380
(lp381
g0
(g26
g2
Ntp382
Rp383
(lp384
I0
ag0
(g30
g2
Ntp385
Rp386
(lp387
I0
aI0
abag75
abag0
(g35
g2
Ntp388
Rp389
(lp390
g0
(g39
g2
Ntp391
Rp392
(lp393
F0.6404225030201885
aF-0.21899515188976365
aF0.31947401035356376
abag0
(g43
g2
Ntp394
Rp395
(lp396
F0.8476936441278499
aF-0.15503337362532482
aF0.5028616917286283
aF0.06715845262823286
abababaF0.2752
aF-1.0
abasg251
I1
sg252
(dp397
g255
(lp398
F0.07
aF0.07473897659003116
aF0.2752
asg257
(lp399
F-1.0
asg132
(lp400
g0
(g22
g2
Ntp401
Rp402
(lp403
g0
(g26
g2
Ntp404
Rp405
(lp406
I0
ag0
(g30
g2
Ntp407
Rp408
(lp409
I0
aI0
abag75
abag0
(g35
g2
Ntp410
Rp411
(lp412
g0
(g39
g2
Ntp413
Rp414
(lp415
F0.6404225030201885
aF-0.21899515188976365
aF0.31947401035356376
abag0
(g43
g2
Ntp416
Rp417
(lp418
F0.8476936441278499
aF-0.15503337362532482
aF0.5028616917286283
aF0.06715845262823286
abababassg279
g0
(g330
g2
Ntp419
Rp420
(lp421
g67
aF0.2752
aF-1.0
absbag0
(g14
g2
Ntp422
Rp423
(dp424
g123
g126
sg127
I01
sg18
S'A User Synchronization primitive'
p425
sg129
I2
sg130
(lp426
sg135
cpanda_pbd.msg._UserSyncGoal
UserSyncGoal
p427
sg137
(dp428
g139
(lp429
F5.0
aF30.0
assg143
(lp430
g0
(g427
g2
Ntp431
Rp432
(lp433
F10.0
abag0
(g427
g2
Ntp434
Rp435
(lp436
F7.58002555660028
abag0
(g427
g2
Ntp437
Rp438
(lp439
F7.5
abag0
(g427
g2
Ntp440
Rp441
(lp442
F5.0
abasg251
I1
sg252
(dp443
g133
(lp444
F10.0
aF7.58002555660028
aF7.5
aF5.0
assg279
g0
(g427
g2
Ntp445
Rp446
(lp447
F5.0
absbag0
(g16
g2
Ntp448
Rp449
(dp450
g123
g126
sg127
I01
sg18
S'A Move Fingers primitive'
p451
sg129
I2
sg130
(lp452
S'width'
p453
asg135
cpanda_pbd.srv._MoveFingers
MoveFingersRequest
p454
sg137
(dp455
g453
(lp456
F0.04758337885141373
aF0.08
assg143
(lp457
g0
(g454
g2
Ntp458
Rp459
(lp460
F0.04758337885141373
abag0
(g454
g2
Ntp461
Rp462
(lp463
F0.07675704911569751
abag0
(g454
g2
Ntp464
Rp465
(lp466
F0.046400000000000004
abag0
(g454
g2
Ntp467
Rp468
(lp469
F0.056
abasg251
I1
sg252
(dp470
g453
(lp471
F0.04758337885141373
aF0.07675704911569751
aF0.046400000000000004
aF0.056
assg279
g0
(g454
g2
Ntp472
Rp473
(lp474
F0.056
absbag0
(g8
g2
Ntp475
Rp476
(dp477
g123
g126
sg127
I01
sg18
g328
sg129
I2
sg130
(lp478
g132
asg135
g330
sg137
g331
sg143
(lp479
g0
(g330
g2
Ntp480
Rp481
(lp482
g0
(g22
g2
Ntp483
Rp484
(lp485
g0
(g26
g2
Ntp486
Rp487
(lp488
I0
ag0
(g30
g2
Ntp489
Rp490
(lp491
I0
aI0
abag94
abag0
(g35
g2
Ntp492
Rp493
(lp494
g0
(g39
g2
Ntp495
Rp496
(lp497
F0.48697273191184176
aF-0.0003249795766055996
aF0.3672047165651558
abag0
(g43
g2
Ntp498
Rp499
(lp500
F0.9986485219265587
aF-0.028677903984510297
aF0.042164274523526495
aF-0.010043974853580964
abababaF0.07
aF-1.0
abag0
(g330
g2
Ntp501
Rp502
(lp503
g0
(g22
g2
Ntp504
Rp505
(lp506
g0
(g26
g2
Ntp507
Rp508
(lp509
I0
ag0
(g30
g2
Ntp510
Rp511
(lp512
I0
aI0
abag94
abag0
(g35
g2
Ntp513
Rp514
(lp515
g0
(g39
g2
Ntp516
Rp517
(lp518
F0.48697273191184176
aF-0.0003249795766055996
aF0.3672047165651558
abag0
(g43
g2
Ntp519
Rp520
(lp521
F0.9986485219265587
aF-0.028677903984510297
aF0.042164274523526495
aF-0.010043974853580964
abababaF0.19503504835971566
aF-1.0
abasg251
I2
sg252
(dp522
g255
(lp523
F0.07
aF0.19503504835971566
asg257
(lp524
F-1.0
asg132
(lp525
g0
(g22
g2
Ntp526
Rp527
(lp528
g0
(g26
g2
Ntp529
Rp530
(lp531
I0
ag0
(g30
g2
Ntp532
Rp533
(lp534
I0
aI0
abag94
abag0
(g35
g2
Ntp535
Rp536
(lp537
g0
(g39
g2
Ntp538
Rp539
(lp540
F0.48697273191184176
aF-0.0003249795766055996
aF0.3672047165651558
abag0
(g43
g2
Ntp541
Rp542
(lp543
F0.9986485219265587
aF-0.028677903984510297
aF0.042164274523526495
aF-0.010043974853580964
abababassg279
g0
(g330
g2
Ntp544
Rp545
(lp546
g86
aF0.19503504835971566
aF-1.0
absbasS'name'
p547
S'A Panda Program'
p548
sb.