ccopy_reg
_reconstructor
p0
(cpanda_eup.panda_primitive
PandaProgram
p1
c__builtin__
object
p2
Ntp3
Rp4
(dp5
S'effect_of_primitive'
p6
(dp7
cpanda_eup.panda_primitive
UserSync
p8
(lp9
I00
aI00
ascpanda_eup.panda_primitive
ApplyForceFingers
p10
(lp11
I00
aI01
ascpanda_eup.panda_primitive
MoveToEE
p12
(lp13
I01
aI00
ascpanda_eup.panda_primitive
MoveToContact
p14
(lp15
I01
aI00
ascpanda_eup.panda_primitive
MoveFingers
p16
(lp17
I00
aI01
assS'description'
p18
S'Empty Description'
p19
sS'arm_state_list'
p20
(lp21
g0
(cgeometry_msgs.msg._PoseStamped
PoseStamped
p22
g2
Ntp23
Rp24
(lp25
g0
(cstd_msgs.msg._Header
Header
p26
g2
Ntp27
Rp28
(lp29
I0
ag0
(cgenpy.rostime
Time
p30
g2
Ntp31
Rp32
(lp33
I0
aI0
abaS'panda_link0'
p34
abag0
(cgeometry_msgs.msg._Pose
Pose
p35
g2
Ntp36
Rp37
(lp38
g0
(cgeometry_msgs.msg._Point
Point
p39
g2
Ntp40
Rp41
(lp42
F0.4510165764388451
aF-0.25451251814105036
aF0.3556417119176069
abag0
(cgeometry_msgs.msg._Quaternion
Quaternion
p43
g2
Ntp44
Rp45
(lp46
F0.7211211619272221
aF-0.6927664377328487
aF-0.0034873344989196893
aF0.0068389377658327165
abababag0
(g22
g2
Ntp47
Rp48
(lp49
g0
(g26
g2
Ntp50
Rp51
(lp52
I0
ag0
(g30
g2
Ntp53
Rp54
(lp55
I0
aI0
abaS'panda_link0'
p56
abag0
(g35
g2
Ntp57
Rp58
(lp59
g0
(g39
g2
Ntp60
Rp61
(lp62
F0.45731330339970816
aF-0.22204124762790467
aF0.12802671441706054
abag0
(g43
g2
Ntp63
Rp64
(lp65
F0.7070758708113997
aF-0.7067034985416127
aF0.014400301817407694
aF0.020162077594167223
abababag0
(g22
g2
Ntp66
Rp67
(lp68
g0
(g26
g2
Ntp69
Rp70
(lp71
I0
ag0
(g30
g2
Ntp72
Rp73
(lp74
I0
aI0
abaS'panda_link0'
p75
abag0
(g35
g2
Ntp76
Rp77
(lp78
g0
(g39
g2
Ntp79
Rp80
(lp81
F0.5313906534561575
aF-0.2283100021383075
aF0.09632848108884426
abag0
(g43
g2
Ntp82
Rp83
(lp84
F0.6791688475698168
aF-0.6490679687518547
aF-0.2476786971801487
aF-0.23684533221951534
abababag0
(g22
g2
Ntp85
Rp86
(lp87
g0
(g26
g2
Ntp88
Rp89
(lp90
I0
ag0
(g30
g2
Ntp91
Rp92
(lp93
I0
aI0
abaS'panda_link0'
p94
abag0
(g35
g2
Ntp95
Rp96
(lp97
g0
(g39
g2
Ntp98
Rp99
(lp100
F0.48144428142162493
aF0.27979142024779285
aF0.07243434852815955
abag0
(g43
g2
Ntp101
Rp102
(lp103
F-0.6714590848717457
aF0.6749661141262252
aF0.23868170991634116
aF0.1912968464872143
abababag0
(g22
g2
Ntp104
Rp105
(lp106
g0
(g26
g2
Ntp107
Rp108
(lp109
I0
ag0
(g30
g2
Ntp110
Rp111
(lp112
I0
aI0
abaS'panda_link0'
p113
abag0
(g35
g2
Ntp114
Rp115
(lp116
g0
(g39
g2
Ntp117
Rp118
(lp119
F0.45994461169103945
aF-0.053965652564801334
aF0.3414368641542338
abag0
(g43
g2
Ntp120
Rp121
(lp122
F0.9989220383304196
aF-0.03026478824798525
aF0.02526619563073721
aF-0.02450353624384985
abababasS'gripper_state_list'
p123
(lp124
g0
(cpanda_eup.panda_primitive
GripperState
p125
g2
Ntp126
Rp127
(dp128
S'width'
p129
F0.08
sS'force'
p130
F0.0
sbasS'primitives'
p131
(lp132
g0
(g12
g2
Ntp133
Rp134
(dp135
S'status'
p136
cpanda_eup.panda_primitive
PandaPrimitiveStatus
p137
(I1
tp138
Rp139
sS'revertible'
p140
I01
sg18
S'A Move to End-Effector primitive'
p141
sS'starting_arm_state_index'
p142
I0
sS'parameters_with_effects_on_robot_state'
p143
(lp144
S'pose'
p145
asS'expected_container'
p146
cpanda_pbd.msg._MoveToEEGoal
MoveToEEGoal
p147
sS'gui_tunable_parameter_strict_ranges'
p148
(dp149
S'position_speed'
p150
(lp151
F0.01
aF0.35
assS'container_update_history'
p152
(lp153
g0
(g147
g2
Ntp154
Rp155
(lp156
g0
(g22
g2
Ntp157
Rp158
(lp159
g0
(g26
g2
Ntp160
Rp161
(lp162
I0
ag0
(g30
g2
Ntp163
Rp164
(lp165
I0
aI0
abag56
abag0
(g35
g2
Ntp166
Rp167
(lp168
g0
(g39
g2
Ntp169
Rp170
(lp171
F0.45731330339970816
aF-0.22204124762790467
aF0.12802671441706054
abag0
(g43
g2
Ntp172
Rp173
(lp174
F0.7070758708113997
aF-0.7067034985416127
aF0.014400301817407694
aF0.020162077594167223
abababaF0.07
aF-1.0
abag0
(g147
g2
Ntp175
Rp176
(lp177
g0
(g22
g2
Ntp178
Rp179
(lp180
g0
(g26
g2
Ntp181
Rp182
(lp183
I0
ag0
(g30
g2
Ntp184
Rp185
(lp186
I0
aI0
abag56
abag0
(g35
g2
Ntp187
Rp188
(lp189
g0
(g39
g2
Ntp190
Rp191
(lp192
F0.45731330339970816
aF-0.22204124762790467
aF0.12802671441706054
abag0
(g43
g2
Ntp193
Rp194
(lp195
F0.7070758708113997
aF-0.7067034985416127
aF0.014400301817407694
aF0.020162077594167223
abababaF0.2432004961431693
aF-1.0
abag0
(g147
g2
Ntp196
Rp197
(lp198
g0
(g22
g2
Ntp199
Rp200
(lp201
g0
(g26
g2
Ntp202
Rp203
(lp204
I0
ag0
(g30
g2
Ntp205
Rp206
(lp207
I0
aI0
abag56
abag0
(g35
g2
Ntp208
Rp209
(lp210
g0
(g39
g2
Ntp211
Rp212
(lp213
F0.45731330339970816
aF-0.22204124762790467
aF0.12802671441706054
abag0
(g43
g2
Ntp214
Rp215
(lp216
F0.7070758708113997
aF-0.7067034985416127
aF0.014400301817407694
aF0.020162077594167223
abababaF0.1392
aF-1.0
abag0
(g147
g2
Ntp217
Rp218
(lp219
g0
(g22
g2
Ntp220
Rp221
(lp222
g0
(g26
g2
Ntp223
Rp224
(lp225
I0
ag0
(g30
g2
Ntp226
Rp227
(lp228
I0
aI0
abag56
abag0
(g35
g2
Ntp229
Rp230
(lp231
g0
(g39
g2
Ntp232
Rp233
(lp234
F0.45731330339970816
aF-0.22204124762790467
aF0.12802671441706054
abag0
(g43
g2
Ntp235
Rp236
(lp237
F0.7070758708113997
aF-0.7067034985416127
aF0.014400301817407694
aF0.020162077594167223
abababaF0.1256
aF-1.0
abasS'starting_gripper_state_index'
p238
I0
sS'parameters_update_history'
p239
(dp240
S'position_speed'
p241
(lp242
F0.07
aF0.2432004961431693
aF0.1392
aF0.1256
asS'rotation_speed'
p243
(lp244
F-1.0
asg145
(lp245
g0
(g22
g2
Ntp246
Rp247
(lp248
g0
(g26
g2
Ntp249
Rp250
(lp251
I0
ag0
(g30
g2
Ntp252
Rp253
(lp254
I0
aI0
abag56
abag0
(g35
g2
Ntp255
Rp256
(lp257
g0
(g39
g2
Ntp258
Rp259
(lp260
F0.45731330339970816
aF-0.22204124762790467
aF0.12802671441706054
abag0
(g43
g2
Ntp261
Rp262
(lp263
F0.7070758708113997
aF-0.7067034985416127
aF0.014400301817407694
aF0.020162077594167223
abababassS'parameter_container'
p264
g0
(g147
g2
Ntp265
Rp266
(lp267
g48
aF0.1256
aF-1.0
absbag0
(g12
g2
Ntp268
Rp269
(dp270
g136
g139
sg140
I01
sg18
g141
sg142
I1
sg143
(lp271
g145
asg146
g147
sg148
g149
sg152
(lp272
g0
(g147
g2
Ntp273
Rp274
(lp275
g0
(g22
g2
Ntp276
Rp277
(lp278
g0
(g26
g2
Ntp279
Rp280
(lp281
I0
ag0
(g30
g2
Ntp282
Rp283
(lp284
I0
aI0
abag75
abag0
(g35
g2
Ntp285
Rp286
(lp287
g0
(g39
g2
Ntp288
Rp289
(lp290
F0.5313906534561575
aF-0.2283100021383075
aF0.09632848108884426
abag0
(g43
g2
Ntp291
Rp292
(lp293
F0.6791688475698168
aF-0.6490679687518547
aF-0.2476786971801487
aF-0.23684533221951534
abababaF0.07
aF-1.0
abag0
(g147
g2
Ntp294
Rp295
(lp296
g0
(g22
g2
Ntp297
Rp298
(lp299
g0
(g26
g2
Ntp300
Rp301
(lp302
I0
ag0
(g30
g2
Ntp303
Rp304
(lp305
I0
aI0
abag75
abag0
(g35
g2
Ntp306
Rp307
(lp308
g0
(g39
g2
Ntp309
Rp310
(lp311
F0.5313906534561575
aF-0.2283100021383075
aF0.09632848108884426
abag0
(g43
g2
Ntp312
Rp313
(lp314
F0.6791688475698168
aF-0.6490679687518547
aF-0.2476786971801487
aF-0.23684533221951534
abababaF0.22283158184894578
aF-1.0
abag0
(g147
g2
Ntp315
Rp316
(lp317
g0
(g22
g2
Ntp318
Rp319
(lp320
g0
(g26
g2
Ntp321
Rp322
(lp323
I0
ag0
(g30
g2
Ntp324
Rp325
(lp326
I0
aI0
abag75
abag0
(g35
g2
Ntp327
Rp328
(lp329
g0
(g39
g2
Ntp330
Rp331
(lp332
F0.5313906534561575
aF-0.2283100021383075
aF0.09632848108884426
abag0
(g43
g2
Ntp333
Rp334
(lp335
F0.6791688475698168
aF-0.6490679687518547
aF-0.2476786971801487
aF-0.23684533221951534
abababaF0.1324
aF-1.0
abag0
(g147
g2
Ntp336
Rp337
(lp338
g0
(g22
g2
Ntp339
Rp340
(lp341
g0
(g26
g2
Ntp342
Rp343
(lp344
I0
ag0
(g30
g2
Ntp345
Rp346
(lp347
I0
aI0
abag75
abag0
(g35
g2
Ntp348
Rp349
(lp350
g0
(g39
g2
Ntp351
Rp352
(lp353
F0.5313906534561575
aF-0.2283100021383075
aF0.09632848108884426
abag0
(g43
g2
Ntp354
Rp355
(lp356
F0.6791688475698168
aF-0.6490679687518547
aF-0.2476786971801487
aF-0.23684533221951534
abababaF0.11879999999999999
aF-1.0
abasg238
I0
sg239
(dp357
g241
(lp358
F0.07
aF0.22283158184894578
aF0.1324
aF0.11879999999999999
asg243
(lp359
F-1.0
asg145
(lp360
g0
(g22
g2
Ntp361
Rp362
(lp363
g0
(g26
g2
Ntp364
Rp365
(lp366
I0
ag0
(g30
g2
Ntp367
Rp368
(lp369
I0
aI0
abag75
abag0
(g35
g2
Ntp370
Rp371
(lp372
g0
(g39
g2
Ntp373
Rp374
(lp375
F0.5313906534561575
aF-0.2283100021383075
aF0.09632848108884426
abag0
(g43
g2
Ntp376
Rp377
(lp378
F0.6791688475698168
aF-0.6490679687518547
aF-0.2476786971801487
aF-0.23684533221951534
abababassg264
g0
(g147
g2
Ntp379
Rp380
(lp381
g67
aF0.11879999999999999
aF-1.0
absbag0
(g14
g2
Ntp382
Rp383
(dp384
g136
g139
sg140
I01
sg18
S'A Move to Contact primitive'
p385
sg142
I2
sg143
(lp386
g145
aS'force_threshold'
p387
aS'torque_threshold'
p388
asg146
cpanda_pbd.msg._MoveToContactGoal
MoveToContactGoal
p389
sg148
(dp390
S'force_threshold'
p391
(lp392
F5.0
aF20.0
asg150
(lp393
F0.01
aF0.25
assg152
(lp394
g0
(g389
g2
Ntp395
Rp396
(lp397
g0
(g22
g2
Ntp398
Rp399
(lp400
g0
(g26
g2
Ntp401
Rp402
(lp403
I0
ag0
(g30
g2
Ntp404
Rp405
(lp406
I0
aI0
abaS'panda_link0'
p407
abag0
(g35
g2
Ntp408
Rp409
(lp410
g0
(g39
g2
Ntp411
Rp412
(lp413
F0.48522597525926614
aF0.2760220039769015
aF0.06658220792782904
abag0
(g43
g2
Ntp414
Rp415
(lp416
F-0.6684704132562753
aF0.6785119972421104
aF0.22596807729879947
aF0.20422341746575107
abababaF0.07
aF-1.0
aF10.0
aF10.0
abag0
(g389
g2
Ntp417
Rp418
(lp419
g0
(g22
g2
Ntp420
Rp421
(lp422
g0
(g26
g2
Ntp423
Rp424
(lp425
I0
ag0
(g30
g2
Ntp426
Rp427
(lp428
I0
aI0
abag407
abag0
(g35
g2
Ntp429
Rp430
(lp431
g0
(g39
g2
Ntp432
Rp433
(lp434
F0.48522597525926614
aF0.2760220039769015
aF0.06658220792782904
abag0
(g43
g2
Ntp435
Rp436
(lp437
F-0.6684704132562753
aF0.6785119972421104
aF0.22596807729879947
aF0.20422341746575107
abababaF0.18213743117166822
aF-1.0
aF10.0
aF10.0
abag0
(g389
g2
Ntp438
Rp439
(lp440
g0
(g22
g2
Ntp441
Rp442
(lp443
g0
(g26
g2
Ntp444
Rp445
(lp446
I0
ag0
(g30
g2
Ntp447
Rp448
(lp449
I0
aI0
abag407
abag0
(g35
g2
Ntp450
Rp451
(lp452
g0
(g39
g2
Ntp453
Rp454
(lp455
F0.48522597525926614
aF0.2760220039769015
aF0.06658220792782904
abag0
(g43
g2
Ntp456
Rp457
(lp458
F-0.6684704132562753
aF0.6785119972421104
aF0.22596807729879947
aF0.20422341746575107
abababaF0.18213743117166822
aF-1.0
aF13.172803841527283
aF10.0
abag0
(g389
g2
Ntp459
Rp460
(lp461
g0
(g22
g2
Ntp462
Rp463
(lp464
g0
(g26
g2
Ntp465
Rp466
(lp467
I0
ag0
(g30
g2
Ntp468
Rp469
(lp470
I0
aI0
abag407
abag0
(g35
g2
Ntp471
Rp472
(lp473
g0
(g39
g2
Ntp474
Rp475
(lp476
F0.48522597525926614
aF0.2760220039769015
aF0.06658220792782904
abag0
(g43
g2
Ntp477
Rp478
(lp479
F-0.6684704132562753
aF0.6785119972421104
aF0.22596807729879947
aF0.20422341746575107
abababaF0.11079999999999998
aF-1.0
aF13.172803841527283
aF10.0
abag0
(g389
g2
Ntp480
Rp481
(lp482
g0
(g22
g2
Ntp483
Rp484
(lp485
g0
(g26
g2
Ntp486
Rp487
(lp488
I0
ag0
(g30
g2
Ntp489
Rp490
(lp491
I0
aI0
abag407
abag0
(g35
g2
Ntp492
Rp493
(lp494
g0
(g39
g2
Ntp495
Rp496
(lp497
F0.48522597525926614
aF0.2760220039769015
aF0.06658220792782904
abag0
(g43
g2
Ntp498
Rp499
(lp500
F-0.6684704132562753
aF0.6785119972421104
aF0.22596807729879947
aF0.20422341746575107
abababaF0.11079999999999998
aF-1.0
aF10.7
aF10.0
abag0
(g389
g2
Ntp501
Rp502
(lp503
g0
(g22
g2
Ntp504
Rp505
(lp506
g0
(g26
g2
Ntp507
Rp508
(lp509
I0
ag0
(g30
g2
Ntp510
Rp511
(lp512
I0
aI0
abag407
abag0
(g35
g2
Ntp513
Rp514
(lp515
g0
(g39
g2
Ntp516
Rp517
(lp518
F0.48522597525926614
aF0.2760220039769015
aF0.06658220792782904
abag0
(g43
g2
Ntp519
Rp520
(lp521
F-0.6684704132562753
aF0.6785119972421104
aF0.22596807729879947
aF0.20422341746575107
abababaF0.10599999999999998
aF-1.0
aF10.7
aF10.0
abag0
(g389
g2
Ntp522
Rp523
(lp524
g0
(g22
g2
Ntp525
Rp526
(lp527
g0
(g26
g2
Ntp528
Rp529
(lp530
I0
ag0
(g30
g2
Ntp531
Rp532
(lp533
I0
aI0
abag407
abag0
(g35
g2
Ntp534
Rp535
(lp536
g0
(g39
g2
Ntp537
Rp538
(lp539
F0.48522597525926614
aF0.2760220039769015
aF0.06658220792782904
abag0
(g43
g2
Ntp540
Rp541
(lp542
F-0.6684704132562753
aF0.6785119972421104
aF0.22596807729879947
aF0.20422341746575107
abababaF0.10599999999999998
aF-1.0
aF10.399999999999999
aF10.0
abasg238
I0
sg239
(dp543
g387
(lp544
F10.0
aF13.172803841527283
aF10.7
aF10.399999999999999
asg241
(lp545
F0.07
aF0.18213743117166822
aF0.11079999999999998
aF0.10599999999999998
asg243
(lp546
F-1.0
asg388
(lp547
F10.0
asg145
(lp548
g0
(g22
g2
Ntp549
Rp550
(lp551
g0
(g26
g2
Ntp552
Rp553
(lp554
I0
ag0
(g30
g2
Ntp555
Rp556
(lp557
I0
aI0
abag407
abag0
(g35
g2
Ntp558
Rp559
(lp560
g0
(g39
g2
Ntp561
Rp562
(lp563
F0.48522597525926614
aF0.2760220039769015
aF0.06658220792782904
abag0
(g43
g2
Ntp564
Rp565
(lp566
F-0.6684704132562753
aF0.6785119972421104
aF0.22596807729879947
aF0.20422341746575107
abababassg264
g0
(g389
g2
Ntp567
Rp568
(lp569
g0
(g22
g2
Ntp570
Rp571
(lp572
g0
(g26
g2
Ntp573
Rp574
(lp575
I0
ag0
(g30
g2
Ntp576
Rp577
(lp578
I0
aI0
abag407
abag0
(g35
g2
Ntp579
Rp580
(lp581
g0
(g39
g2
Ntp582
Rp583
(lp584
F0.48522597525926614
aF0.2760220039769015
aF0.06658220792782904
abag0
(g43
g2
Ntp585
Rp586
(lp587
F-0.6684704132562753
aF0.6785119972421104
aF0.22596807729879947
aF0.20422341746575107
abababaF0.10599999999999998
aF-1.0
aF10.399999999999999
aF10.0
absbag0
(g12
g2
Ntp588
Rp589
(dp590
g136
g139
sg140
I01
sg18
g141
sg142
I3
sg143
(lp591
g145
asg146
g147
sg148
g149
sg152
(lp592
g0
(g147
g2
Ntp593
Rp594
(lp595
g0
(g22
g2
Ntp596
Rp597
(lp598
g0
(g26
g2
Ntp599
Rp600
(lp601
I0
ag0
(g30
g2
Ntp602
Rp603
(lp604
I0
aI0
abag113
abag0
(g35
g2
Ntp605
Rp606
(lp607
g0
(g39
g2
Ntp608
Rp609
(lp610
F0.45994461169103945
aF-0.053965652564801334
aF0.3414368641542338
abag0
(g43
g2
Ntp611
Rp612
(lp613
F0.9989220383304196
aF-0.03026478824798525
aF0.02526619563073721
aF-0.02450353624384985
abababaF0.07
aF-1.0
abag0
(g147
g2
Ntp614
Rp615
(lp616
g0
(g22
g2
Ntp617
Rp618
(lp619
g0
(g26
g2
Ntp620
Rp621
(lp622
I0
ag0
(g30
g2
Ntp623
Rp624
(lp625
I0
aI0
abag113
abag0
(g35
g2
Ntp626
Rp627
(lp628
g0
(g39
g2
Ntp629
Rp630
(lp631
F0.45994461169103945
aF-0.053965652564801334
aF0.3414368641542338
abag0
(g43
g2
Ntp632
Rp633
(lp634
F0.9989220383304196
aF-0.03026478824798525
aF0.02526619563073721
aF-0.02450353624384985
abababaF0.06292428142875378
aF-1.0
abag0
(g147
g2
Ntp635
Rp636
(lp637
g0
(g22
g2
Ntp638
Rp639
(lp640
g0
(g26
g2
Ntp641
Rp642
(lp643
I0
ag0
(g30
g2
Ntp644
Rp645
(lp646
I0
aI0
abag113
abag0
(g35
g2
Ntp647
Rp648
(lp649
g0
(g39
g2
Ntp650
Rp651
(lp652
F0.45994461169103945
aF-0.053965652564801334
aF0.3414368641542338
abag0
(g43
g2
Ntp653
Rp654
(lp655
F0.9989220383304196
aF-0.03026478824798525
aF0.02526619563073721
aF-0.02450353624384985
abababaF0.0508
aF-1.0
abasg238
I0
sg239
(dp656
g241
(lp657
F0.07
aF0.06292428142875378
aF0.0508
asg243
(lp658
F-1.0
asg145
(lp659
g0
(g22
g2
Ntp660
Rp661
(lp662
g0
(g26
g2
Ntp663
Rp664
(lp665
I0
ag0
(g30
g2
Ntp666
Rp667
(lp668
I0
aI0
abag113
abag0
(g35
g2
Ntp669
Rp670
(lp671
g0
(g39
g2
Ntp672
Rp673
(lp674
F0.45994461169103945
aF-0.053965652564801334
aF0.3414368641542338
abag0
(g43
g2
Ntp675
Rp676
(lp677
F0.9989220383304196
aF-0.03026478824798525
aF0.02526619563073721
aF-0.02450353624384985
abababassg264
g0
(g147
g2
Ntp678
Rp679
(lp680
g105
aF0.0508
aF-1.0
absbasS'name'
p681
S'A Panda Program'
p682
sb.