ccopy_reg
_reconstructor
p0
(cpanda_eup.panda_primitive
PandaProgram
p1
c__builtin__
object
p2
Ntp3
Rp4
(dp5
S'effect_of_primitive'
p6
(dp7
cpanda_eup.panda_primitive
UserSync
p8
(lp9
I00
aI00
ascpanda_eup.panda_primitive
MoveFingers
p10
(lp11
I00
aI01
ascpanda_eup.panda_primitive
ApplyForceFingers
p12
(lp13
I00
aI01
ascpanda_eup.panda_primitive
MoveToEE
p14
(lp15
I01
aI00
ascpanda_eup.panda_primitive
MoveToContact
p16
(lp17
I01
aI00
assS'description'
p18
S'Empty Description'
p19
sS'arm_state_list'
p20
(lp21
g0
(cgeometry_msgs.msg._PoseStamped
PoseStamped
p22
g2
Ntp23
Rp24
(lp25
g0
(cstd_msgs.msg._Header
Header
p26
g2
Ntp27
Rp28
(lp29
I0
ag0
(cgenpy.rostime
Time
p30
g2
Ntp31
Rp32
(lp33
I0
aI0
abaS'panda_link0'
p34
abag0
(cgeometry_msgs.msg._Pose
Pose
p35
g2
Ntp36
Rp37
(lp38
g0
(cgeometry_msgs.msg._Point
Point
p39
g2
Ntp40
Rp41
(lp42
F0.4510165764388451
aF-0.25451251814105036
aF0.3556417119176069
abag0
(cgeometry_msgs.msg._Quaternion
Quaternion
p43
g2
Ntp44
Rp45
(lp46
F0.7211211619272221
aF-0.6927664377328487
aF-0.0034873344989196893
aF0.0068389377658327165
abababag0
(g22
g2
Ntp47
Rp48
(lp49
g0
(g26
g2
Ntp50
Rp51
(lp52
I0
ag0
(g30
g2
Ntp53
Rp54
(lp55
I0
aI0
abaS'panda_link0'
p56
abag0
(g35
g2
Ntp57
Rp58
(lp59
g0
(g39
g2
Ntp60
Rp61
(lp62
F0.45731330339970816
aF-0.22204124762790467
aF0.12802671441706054
abag0
(g43
g2
Ntp63
Rp64
(lp65
F0.7070758708113997
aF-0.7067034985416127
aF0.014400301817407694
aF0.020162077594167223
abababag0
(g22
g2
Ntp66
Rp67
(lp68
g0
(g26
g2
Ntp69
Rp70
(lp71
I0
ag0
(g30
g2
Ntp72
Rp73
(lp74
I0
aI0
abaS'panda_link0'
p75
abag0
(g35
g2
Ntp76
Rp77
(lp78
g0
(g39
g2
Ntp79
Rp80
(lp81
F0.5313906534561575
aF-0.2283100021383075
aF0.09632848108884426
abag0
(g43
g2
Ntp82
Rp83
(lp84
F0.6791688475698168
aF-0.6490679687518547
aF-0.2476786971801487
aF-0.23684533221951534
abababag0
(g22
g2
Ntp85
Rp86
(lp87
g0
(g26
g2
Ntp88
Rp89
(lp90
I0
ag0
(g30
g2
Ntp91
Rp92
(lp93
I0
aI0
abaS'panda_link0'
p94
abag0
(g35
g2
Ntp95
Rp96
(lp97
g0
(g39
g2
Ntp98
Rp99
(lp100
F0.48186569053812434
aF0.27810428509941937
aF0.07202034341784103
abag0
(g43
g2
Ntp101
Rp102
(lp103
F0.6745878808800669
aF-0.6740093316780912
aF-0.23315648119684756
aF-0.19047484625665853
abababag0
(g22
g2
Ntp104
Rp105
(lp106
g0
(g26
g2
Ntp107
Rp108
(lp109
I0
ag0
(g30
g2
Ntp110
Rp111
(lp112
I0
aI0
abaS'panda_link0'
p113
abag0
(g35
g2
Ntp114
Rp115
(lp116
g0
(g39
g2
Ntp117
Rp118
(lp119
F0.45994461169103945
aF-0.053965652564801334
aF0.3414368641542338
abag0
(g43
g2
Ntp120
Rp121
(lp122
F0.9989220383304196
aF-0.03026478824798525
aF0.02526619563073721
aF-0.02450353624384985
abababasS'gripper_state_list'
p123
(lp124
g0
(cpanda_eup.panda_primitive
GripperState
p125
g2
Ntp126
Rp127
(dp128
S'width'
p129
F0.08
sS'force'
p130
F0.0
sbasS'primitives'
p131
(lp132
g0
(g14
g2
Ntp133
Rp134
(dp135
S'status'
p136
cpanda_eup.panda_primitive
PandaPrimitiveStatus
p137
(I1
tp138
Rp139
sS'revertible'
p140
I01
sg18
S'A Move to End-Effector primitive'
p141
sS'starting_arm_state_index'
p142
I0
sS'parameters_with_effects_on_robot_state'
p143
(lp144
S'pose'
p145
asS'expected_container'
p146
cpanda_pbd.msg._MoveToEEGoal
MoveToEEGoal
p147
sS'gui_tunable_parameter_strict_ranges'
p148
(dp149
S'position_speed'
p150
(lp151
F0.01
aF0.35
assS'container_update_history'
p152
(lp153
g0
(g147
g2
Ntp154
Rp155
(lp156
g0
(g22
g2
Ntp157
Rp158
(lp159
g0
(g26
g2
Ntp160
Rp161
(lp162
I0
ag0
(g30
g2
Ntp163
Rp164
(lp165
I0
aI0
abag56
abag0
(g35
g2
Ntp166
Rp167
(lp168
g0
(g39
g2
Ntp169
Rp170
(lp171
F0.45731330339970816
aF-0.22204124762790467
aF0.12802671441706054
abag0
(g43
g2
Ntp172
Rp173
(lp174
F0.7070758708113997
aF-0.7067034985416127
aF0.014400301817407694
aF0.020162077594167223
abababaF0.07
aF-1.0
abag0
(g147
g2
Ntp175
Rp176
(lp177
g0
(g22
g2
Ntp178
Rp179
(lp180
g0
(g26
g2
Ntp181
Rp182
(lp183
I0
ag0
(g30
g2
Ntp184
Rp185
(lp186
I0
aI0
abag56
abag0
(g35
g2
Ntp187
Rp188
(lp189
g0
(g39
g2
Ntp190
Rp191
(lp192
F0.45731330339970816
aF-0.22204124762790467
aF0.12802671441706054
abag0
(g43
g2
Ntp193
Rp194
(lp195
F0.7070758708113997
aF-0.7067034985416127
aF0.014400301817407694
aF0.020162077594167223
abababaF0.10903832963575458
aF-1.0
abag0
(g147
g2
Ntp196
Rp197
(lp198
g0
(g22
g2
Ntp199
Rp200
(lp201
g0
(g26
g2
Ntp202
Rp203
(lp204
I0
ag0
(g30
g2
Ntp205
Rp206
(lp207
I0
aI0
abag56
abag0
(g35
g2
Ntp208
Rp209
(lp210
g0
(g39
g2
Ntp211
Rp212
(lp213
F0.45731330339970816
aF-0.22204124762790467
aF0.12802671441706054
abag0
(g43
g2
Ntp214
Rp215
(lp216
F0.7070758708113997
aF-0.7067034985416127
aF0.014400301817407694
aF0.020162077594167223
abababaF0.2276
aF-1.0
abag0
(g147
g2
Ntp217
Rp218
(lp219
g0
(g22
g2
Ntp220
Rp221
(lp222
g0
(g26
g2
Ntp223
Rp224
(lp225
I0
ag0
(g30
g2
Ntp226
Rp227
(lp228
I0
aI0
abag56
abag0
(g35
g2
Ntp229
Rp230
(lp231
g0
(g39
g2
Ntp232
Rp233
(lp234
F0.45731330339970816
aF-0.22204124762790467
aF0.12802671441706054
abag0
(g43
g2
Ntp235
Rp236
(lp237
F0.7070758708113997
aF-0.7067034985416127
aF0.014400301817407694
aF0.020162077594167223
abababaF0.1596
aF-1.0
abasS'starting_gripper_state_index'
p238
I0
sS'parameters_update_history'
p239
(dp240
S'position_speed'
p241
(lp242
F0.07
aF0.10903832963575458
aF0.2276
aF0.1596
asS'rotation_speed'
p243
(lp244
F-1.0
asg145
(lp245
g0
(g22
g2
Ntp246
Rp247
(lp248
g0
(g26
g2
Ntp249
Rp250
(lp251
I0
ag0
(g30
g2
Ntp252
Rp253
(lp254
I0
aI0
abag56
abag0
(g35
g2
Ntp255
Rp256
(lp257
g0
(g39
g2
Ntp258
Rp259
(lp260
F0.45731330339970816
aF-0.22204124762790467
aF0.12802671441706054
abag0
(g43
g2
Ntp261
Rp262
(lp263
F0.7070758708113997
aF-0.7067034985416127
aF0.014400301817407694
aF0.020162077594167223
abababassS'parameter_container'
p264
g0
(g147
g2
Ntp265
Rp266
(lp267
g48
aF0.1596
aF-1.0
absbag0
(g14
g2
Ntp268
Rp269
(dp270
g136
g139
sg140
I01
sg18
g141
sg142
I1
sg143
(lp271
g145
asg146
g147
sg148
g149
sg152
(lp272
g0
(g147
g2
Ntp273
Rp274
(lp275
g0
(g22
g2
Ntp276
Rp277
(lp278
g0
(g26
g2
Ntp279
Rp280
(lp281
I0
ag0
(g30
g2
Ntp282
Rp283
(lp284
I0
aI0
abag75
abag0
(g35
g2
Ntp285
Rp286
(lp287
g0
(g39
g2
Ntp288
Rp289
(lp290
F0.5313906534561575
aF-0.2283100021383075
aF0.09632848108884426
abag0
(g43
g2
Ntp291
Rp292
(lp293
F0.6791688475698168
aF-0.6490679687518547
aF-0.2476786971801487
aF-0.23684533221951534
abababaF0.07
aF-1.0
abag0
(g147
g2
Ntp294
Rp295
(lp296
g0
(g22
g2
Ntp297
Rp298
(lp299
g0
(g26
g2
Ntp300
Rp301
(lp302
I0
ag0
(g30
g2
Ntp303
Rp304
(lp305
I0
aI0
abag75
abag0
(g35
g2
Ntp306
Rp307
(lp308
g0
(g39
g2
Ntp309
Rp310
(lp311
F0.5313906534561575
aF-0.2283100021383075
aF0.09632848108884426
abag0
(g43
g2
Ntp312
Rp313
(lp314
F0.6791688475698168
aF-0.6490679687518547
aF-0.2476786971801487
aF-0.23684533221951534
abababaF0.12830762969617918
aF-1.0
abag0
(g147
g2
Ntp315
Rp316
(lp317
g0
(g22
g2
Ntp318
Rp319
(lp320
g0
(g26
g2
Ntp321
Rp322
(lp323
I0
ag0
(g30
g2
Ntp324
Rp325
(lp326
I0
aI0
abag75
abag0
(g35
g2
Ntp327
Rp328
(lp329
g0
(g39
g2
Ntp330
Rp331
(lp332
F0.5313906534561575
aF-0.2283100021383075
aF0.09632848108884426
abag0
(g43
g2
Ntp333
Rp334
(lp335
F0.6791688475698168
aF-0.6490679687518547
aF-0.2476786971801487
aF-0.23684533221951534
abababaF0.1664
aF-1.0
abasg238
I0
sg239
(dp336
g241
(lp337
F0.07
aF0.12830762969617918
aF0.1664
asg243
(lp338
F-1.0
asg145
(lp339
g0
(g22
g2
Ntp340
Rp341
(lp342
g0
(g26
g2
Ntp343
Rp344
(lp345
I0
ag0
(g30
g2
Ntp346
Rp347
(lp348
I0
aI0
abag75
abag0
(g35
g2
Ntp349
Rp350
(lp351
g0
(g39
g2
Ntp352
Rp353
(lp354
F0.5313906534561575
aF-0.2283100021383075
aF0.09632848108884426
abag0
(g43
g2
Ntp355
Rp356
(lp357
F0.6791688475698168
aF-0.6490679687518547
aF-0.2476786971801487
aF-0.23684533221951534
abababassg264
g0
(g147
g2
Ntp358
Rp359
(lp360
g67
aF0.1664
aF-1.0
absbag0
(g16
g2
Ntp361
Rp362
(dp363
g136
g139
sg140
I01
sg18
S'A Move to Contact primitive'
p364
sg142
I2
sg143
(lp365
g145
aS'force_threshold'
p366
aS'torque_threshold'
p367
asg146
cpanda_pbd.msg._MoveToContactGoal
MoveToContactGoal
p368
sg148
(dp369
S'force_threshold'
p370
(lp371
F5.0
aF20.0
asg150
(lp372
F0.01
aF0.25
assg152
(lp373
g0
(g368
g2
Ntp374
Rp375
(lp376
g0
(g22
g2
Ntp377
Rp378
(lp379
g0
(g26
g2
Ntp380
Rp381
(lp382
I0
ag0
(g30
g2
Ntp383
Rp384
(lp385
I0
aI0
abaS'panda_link0'
p386
abag0
(g35
g2
Ntp387
Rp388
(lp389
g0
(g39
g2
Ntp390
Rp391
(lp392
F0.48522597525926614
aF0.2760220039769015
aF0.06658220792782904
abag0
(g43
g2
Ntp393
Rp394
(lp395
F-0.6684704132562753
aF0.6785119972421104
aF0.22596807729879947
aF0.20422341746575107
abababaF0.07
aF-1.0
aF10.0
aF10.0
abag0
(g368
g2
Ntp396
Rp397
(lp398
g0
(g22
g2
Ntp399
Rp400
(lp401
g0
(g26
g2
Ntp402
Rp403
(lp404
I0
ag0
(g30
g2
Ntp405
Rp406
(lp407
I0
aI0
abag386
abag0
(g35
g2
Ntp408
Rp409
(lp410
g0
(g39
g2
Ntp411
Rp412
(lp413
F0.48522597525926614
aF0.2760220039769015
aF0.06658220792782904
abag0
(g43
g2
Ntp414
Rp415
(lp416
F-0.6684704132562753
aF0.6785119972421104
aF0.22596807729879947
aF0.20422341746575107
abababaF0.05854414209610297
aF-1.0
aF10.0
aF10.0
abag0
(g368
g2
Ntp417
Rp418
(lp419
g0
(g22
g2
Ntp420
Rp421
(lp422
g0
(g26
g2
Ntp423
Rp424
(lp425
I0
ag0
(g30
g2
Ntp426
Rp427
(lp428
I0
aI0
abag386
abag0
(g35
g2
Ntp429
Rp430
(lp431
g0
(g39
g2
Ntp432
Rp433
(lp434
F0.48522597525926614
aF0.2760220039769015
aF0.06658220792782904
abag0
(g43
g2
Ntp435
Rp436
(lp437
F-0.6684704132562753
aF0.6785119972421104
aF0.22596807729879947
aF0.20422341746575107
abababaF0.05854414209610297
aF-1.0
aF18.473015654949634
aF10.0
abag0
(g368
g2
Ntp438
Rp439
(lp440
g0
(g22
g2
Ntp441
Rp442
(lp443
g0
(g26
g2
Ntp444
Rp445
(lp446
I0
ag0
(g30
g2
Ntp447
Rp448
(lp449
I0
aI0
abag386
abag0
(g35
g2
Ntp450
Rp451
(lp452
g0
(g39
g2
Ntp453
Rp454
(lp455
F0.48522597525926614
aF0.2760220039769015
aF0.06658220792782904
abag0
(g43
g2
Ntp456
Rp457
(lp458
F-0.6684704132562753
aF0.6785119972421104
aF0.22596807729879947
aF0.20422341746575107
abababaF0.05854414209610297
aF-1.0
aF10.7
aF10.0
abasg238
I0
sg239
(dp459
g366
(lp460
F10.0
aF18.473015654949634
aF10.7
asg241
(lp461
F0.07
aF0.05854414209610297
asg243
(lp462
F-1.0
asg367
(lp463
F10.0
asg145
(lp464
g0
(g22
g2
Ntp465
Rp466
(lp467
g0
(g26
g2
Ntp468
Rp469
(lp470
I0
ag0
(g30
g2
Ntp471
Rp472
(lp473
I0
aI0
abag386
abag0
(g35
g2
Ntp474
Rp475
(lp476
g0
(g39
g2
Ntp477
Rp478
(lp479
F0.48522597525926614
aF0.2760220039769015
aF0.06658220792782904
abag0
(g43
g2
Ntp480
Rp481
(lp482
F-0.6684704132562753
aF0.6785119972421104
aF0.22596807729879947
aF0.20422341746575107
abababassg264
g0
(g368
g2
Ntp483
Rp484
(lp485
g0
(g22
g2
Ntp486
Rp487
(lp488
g0
(g26
g2
Ntp489
Rp490
(lp491
I0
ag0
(g30
g2
Ntp492
Rp493
(lp494
I0
aI0
abag386
abag0
(g35
g2
Ntp495
Rp496
(lp497
g0
(g39
g2
Ntp498
Rp499
(lp500
F0.48522597525926614
aF0.2760220039769015
aF0.06658220792782904
abag0
(g43
g2
Ntp501
Rp502
(lp503
F-0.6684704132562753
aF0.6785119972421104
aF0.22596807729879947
aF0.20422341746575107
abababaF0.05854414209610297
aF-1.0
aF10.7
aF10.0
absbag0
(g14
g2
Ntp504
Rp505
(dp506
g136
g139
sg140
I01
sg18
g141
sg142
I3
sg143
(lp507
g145
asg146
g147
sg148
g149
sg152
(lp508
g0
(g147
g2
Ntp509
Rp510
(lp511
g0
(g22
g2
Ntp512
Rp513
(lp514
g0
(g26
g2
Ntp515
Rp516
(lp517
I0
ag0
(g30
g2
Ntp518
Rp519
(lp520
I0
aI0
abag113
abag0
(g35
g2
Ntp521
Rp522
(lp523
g0
(g39
g2
Ntp524
Rp525
(lp526
F0.45994461169103945
aF-0.053965652564801334
aF0.3414368641542338
abag0
(g43
g2
Ntp527
Rp528
(lp529
F0.9989220383304196
aF-0.03026478824798525
aF0.02526619563073721
aF-0.02450353624384985
abababaF0.07
aF-1.0
abag0
(g147
g2
Ntp530
Rp531
(lp532
g0
(g22
g2
Ntp533
Rp534
(lp535
g0
(g26
g2
Ntp536
Rp537
(lp538
I0
ag0
(g30
g2
Ntp539
Rp540
(lp541
I0
aI0
abag113
abag0
(g35
g2
Ntp542
Rp543
(lp544
g0
(g39
g2
Ntp545
Rp546
(lp547
F0.45994461169103945
aF-0.053965652564801334
aF0.3414368641542338
abag0
(g43
g2
Ntp548
Rp549
(lp550
F0.9989220383304196
aF-0.03026478824798525
aF0.02526619563073721
aF-0.02450353624384985
abababaF0.06160347682803159
aF-1.0
abag0
(g147
g2
Ntp551
Rp552
(lp553
g0
(g22
g2
Ntp554
Rp555
(lp556
g0
(g26
g2
Ntp557
Rp558
(lp559
I0
ag0
(g30
g2
Ntp560
Rp561
(lp562
I0
aI0
abag113
abag0
(g35
g2
Ntp563
Rp564
(lp565
g0
(g39
g2
Ntp566
Rp567
(lp568
F0.45994461169103945
aF-0.053965652564801334
aF0.3414368641542338
abag0
(g43
g2
Ntp569
Rp570
(lp571
F0.9989220383304196
aF-0.03026478824798525
aF0.02526619563073721
aF-0.02450353624384985
abababaF0.18
aF-1.0
abasg238
I0
sg239
(dp572
g241
(lp573
F0.07
aF0.06160347682803159
aF0.18
asg243
(lp574
F-1.0
asg145
(lp575
g0
(g22
g2
Ntp576
Rp577
(lp578
g0
(g26
g2
Ntp579
Rp580
(lp581
I0
ag0
(g30
g2
Ntp582
Rp583
(lp584
I0
aI0
abag113
abag0
(g35
g2
Ntp585
Rp586
(lp587
g0
(g39
g2
Ntp588
Rp589
(lp590
F0.45994461169103945
aF-0.053965652564801334
aF0.3414368641542338
abag0
(g43
g2
Ntp591
Rp592
(lp593
F0.9989220383304196
aF-0.03026478824798525
aF0.02526619563073721
aF-0.02450353624384985
abababassg264
g0
(g147
g2
Ntp594
Rp595
(lp596
g105
aF0.18
aF-1.0
absbasS'name'
p597
S'A Panda Program'
p598
sb.