ccopy_reg
_reconstructor
p0
(cpanda_eup.panda_primitive
PandaProgram
p1
c__builtin__
object
p2
Ntp3
Rp4
(dp5
S'effect_of_primitive'
p6
(dp7
cpanda_eup.panda_primitive
MoveToEE
p8
(lp9
I01
aI00
ascpanda_eup.panda_primitive
MoveToContact
p10
(lp11
I01
aI00
ascpanda_eup.panda_primitive
MoveFingers
p12
(lp13
I00
aI01
ascpanda_eup.panda_primitive
UserSync
p14
(lp15
I00
aI00
ascpanda_eup.panda_primitive
ApplyForceFingers
p16
(lp17
I00
aI01
assS'description'
p18
S'Empty Description'
p19
sS'arm_state_list'
p20
(lp21
g0
(cgeometry_msgs.msg._PoseStamped
PoseStamped
p22
g2
Ntp23
Rp24
(lp25
g0
(cstd_msgs.msg._Header
Header
p26
g2
Ntp27
Rp28
(lp29
I0
ag0
(cgenpy.rostime
Time
p30
g2
Ntp31
Rp32
(lp33
I0
aI0
abaS'panda_link0'
p34
abag0
(cgeometry_msgs.msg._Pose
Pose
p35
g2
Ntp36
Rp37
(lp38
g0
(cgeometry_msgs.msg._Point
Point
p39
g2
Ntp40
Rp41
(lp42
F0.4510165764388451
aF-0.25451251814105036
aF0.3556417119176069
abag0
(cgeometry_msgs.msg._Quaternion
Quaternion
p43
g2
Ntp44
Rp45
(lp46
F0.7211211619272221
aF-0.6927664377328487
aF-0.0034873344989196893
aF0.0068389377658327165
abababag0
(g22
g2
Ntp47
Rp48
(lp49
g0
(g26
g2
Ntp50
Rp51
(lp52
I0
ag0
(g30
g2
Ntp53
Rp54
(lp55
I0
aI0
abaS'panda_link0'
p56
abag0
(g35
g2
Ntp57
Rp58
(lp59
g0
(g39
g2
Ntp60
Rp61
(lp62
F0.45731330339970816
aF-0.22204124762790467
aF0.12802671441706054
abag0
(g43
g2
Ntp63
Rp64
(lp65
F0.7070758708113997
aF-0.7067034985416127
aF0.014400301817407694
aF0.020162077594167223
abababag0
(g22
g2
Ntp66
Rp67
(lp68
g0
(g26
g2
Ntp69
Rp70
(lp71
I0
ag0
(g30
g2
Ntp72
Rp73
(lp74
I0
aI0
abaS'panda_link0'
p75
abag0
(g35
g2
Ntp76
Rp77
(lp78
g0
(g39
g2
Ntp79
Rp80
(lp81
F0.5313906534561575
aF-0.2283100021383075
aF0.09632848108884426
abag0
(g43
g2
Ntp82
Rp83
(lp84
F0.6791688475698168
aF-0.6490679687518547
aF-0.2476786971801487
aF-0.23684533221951534
abababag0
(g22
g2
Ntp85
Rp86
(lp87
g0
(g26
g2
Ntp88
Rp89
(lp90
I0
ag0
(g30
g2
Ntp91
Rp92
(lp93
I0
aI0
abaS'panda_link0'
p94
abag0
(g35
g2
Ntp95
Rp96
(lp97
g0
(g39
g2
Ntp98
Rp99
(lp100
F0.48404945364164603
aF0.2803901164346687
aF0.06573776287389715
abag0
(g43
g2
Ntp101
Rp102
(lp103
F0.6705959116378312
aF-0.6699888116863476
aF-0.24517469445398526
aF-0.20323750812568303
abababag0
(g22
g2
Ntp104
Rp105
(lp106
g0
(g26
g2
Ntp107
Rp108
(lp109
I0
ag0
(g30
g2
Ntp110
Rp111
(lp112
I0
aI0
abaS'panda_link0'
p113
abag0
(g35
g2
Ntp114
Rp115
(lp116
g0
(g39
g2
Ntp117
Rp118
(lp119
F0.45994461169103945
aF-0.053965652564801334
aF0.3414368641542338
abag0
(g43
g2
Ntp120
Rp121
(lp122
F0.9989220383304196
aF-0.03026478824798525
aF0.02526619563073721
aF-0.02450353624384985
abababasS'gripper_state_list'
p123
(lp124
g0
(cpanda_eup.panda_primitive
GripperState
p125
g2
Ntp126
Rp127
(dp128
S'width'
p129
F0.08
sS'force'
p130
F0.0
sbasS'primitives'
p131
(lp132
g0
(g8
g2
Ntp133
Rp134
(dp135
S'status'
p136
cpanda_eup.panda_primitive
PandaPrimitiveStatus
p137
(I1
tp138
Rp139
sS'revertible'
p140
I01
sg18
S'A Move to End-Effector primitive'
p141
sS'starting_arm_state_index'
p142
I0
sS'parameters_with_effects_on_robot_state'
p143
(lp144
S'pose'
p145
asS'expected_container'
p146
cpanda_pbd.msg._MoveToEEGoal
MoveToEEGoal
p147
sS'gui_tunable_parameter_strict_ranges'
p148
(dp149
S'position_speed'
p150
(lp151
F0.01
aF0.35
assS'container_update_history'
p152
(lp153
g0
(g147
g2
Ntp154
Rp155
(lp156
g0
(g22
g2
Ntp157
Rp158
(lp159
g0
(g26
g2
Ntp160
Rp161
(lp162
I0
ag0
(g30
g2
Ntp163
Rp164
(lp165
I0
aI0
abag56
abag0
(g35
g2
Ntp166
Rp167
(lp168
g0
(g39
g2
Ntp169
Rp170
(lp171
F0.45731330339970816
aF-0.22204124762790467
aF0.12802671441706054
abag0
(g43
g2
Ntp172
Rp173
(lp174
F0.7070758708113997
aF-0.7067034985416127
aF0.014400301817407694
aF0.020162077594167223
abababaF0.07
aF-1.0
abag0
(g147
g2
Ntp175
Rp176
(lp177
g0
(g22
g2
Ntp178
Rp179
(lp180
g0
(g26
g2
Ntp181
Rp182
(lp183
I0
ag0
(g30
g2
Ntp184
Rp185
(lp186
I0
aI0
abag56
abag0
(g35
g2
Ntp187
Rp188
(lp189
g0
(g39
g2
Ntp190
Rp191
(lp192
F0.45731330339970816
aF-0.22204124762790467
aF0.12802671441706054
abag0
(g43
g2
Ntp193
Rp194
(lp195
F0.7070758708113997
aF-0.7067034985416127
aF0.014400301817407694
aF0.020162077594167223
abababaF0.2202630603396424
aF-1.0
abag0
(g147
g2
Ntp196
Rp197
(lp198
g0
(g22
g2
Ntp199
Rp200
(lp201
g0
(g26
g2
Ntp202
Rp203
(lp204
I0
ag0
(g30
g2
Ntp205
Rp206
(lp207
I0
aI0
abag56
abag0
(g35
g2
Ntp208
Rp209
(lp210
g0
(g39
g2
Ntp211
Rp212
(lp213
F0.45731330339970816
aF-0.22204124762790467
aF0.12802671441706054
abag0
(g43
g2
Ntp214
Rp215
(lp216
F0.7070758708113997
aF-0.7067034985416127
aF0.014400301817407694
aF0.020162077594167223
abababaF0.0644
aF-1.0
abasS'starting_gripper_state_index'
p217
I0
sS'parameters_update_history'
p218
(dp219
S'position_speed'
p220
F0.0644
sS'rotation_speed'
p221
(lp222
F-1.0
asg145
(lp223
g0
(g22
g2
Ntp224
Rp225
(lp226
g0
(g26
g2
Ntp227
Rp228
(lp229
I0
ag0
(g30
g2
Ntp230
Rp231
(lp232
I0
aI0
abag56
abag0
(g35
g2
Ntp233
Rp234
(lp235
g0
(g39
g2
Ntp236
Rp237
(lp238
F0.45731330339970816
aF-0.22204124762790467
aF0.12802671441706054
abag0
(g43
g2
Ntp239
Rp240
(lp241
F0.7070758708113997
aF-0.7067034985416127
aF0.014400301817407694
aF0.020162077594167223
abababassS'parameter_container'
p242
g0
(g147
g2
Ntp243
Rp244
(lp245
g48
aF0.0644
aF-1.0
absbag0
(g8
g2
Ntp246
Rp247
(dp248
g136
g139
sg140
I01
sg18
g141
sg142
I1
sg143
(lp249
g145
asg146
g147
sg148
g149
sg152
(lp250
g0
(g147
g2
Ntp251
Rp252
(lp253
g0
(g22
g2
Ntp254
Rp255
(lp256
g0
(g26
g2
Ntp257
Rp258
(lp259
I0
ag0
(g30
g2
Ntp260
Rp261
(lp262
I0
aI0
abag75
abag0
(g35
g2
Ntp263
Rp264
(lp265
g0
(g39
g2
Ntp266
Rp267
(lp268
F0.5313906534561575
aF-0.2283100021383075
aF0.09632848108884426
abag0
(g43
g2
Ntp269
Rp270
(lp271
F0.6791688475698168
aF-0.6490679687518547
aF-0.2476786971801487
aF-0.23684533221951534
abababaF0.07
aF-1.0
abag0
(g147
g2
Ntp272
Rp273
(lp274
g0
(g22
g2
Ntp275
Rp276
(lp277
g0
(g26
g2
Ntp278
Rp279
(lp280
I0
ag0
(g30
g2
Ntp281
Rp282
(lp283
I0
aI0
abag75
abag0
(g35
g2
Ntp284
Rp285
(lp286
g0
(g39
g2
Ntp287
Rp288
(lp289
F0.5313906534561575
aF-0.2283100021383075
aF0.09632848108884426
abag0
(g43
g2
Ntp290
Rp291
(lp292
F0.6791688475698168
aF-0.6490679687518547
aF-0.2476786971801487
aF-0.23684533221951534
abababaF0.0738032563269491
aF-1.0
abasg217
I0
sg218
(dp293
g220
F0.0738032563269491
sg221
(lp294
F-1.0
asg145
(lp295
g0
(g22
g2
Ntp296
Rp297
(lp298
g0
(g26
g2
Ntp299
Rp300
(lp301
I0
ag0
(g30
g2
Ntp302
Rp303
(lp304
I0
aI0
abag75
abag0
(g35
g2
Ntp305
Rp306
(lp307
g0
(g39
g2
Ntp308
Rp309
(lp310
F0.5313906534561575
aF-0.2283100021383075
aF0.09632848108884426
abag0
(g43
g2
Ntp311
Rp312
(lp313
F0.6791688475698168
aF-0.6490679687518547
aF-0.2476786971801487
aF-0.23684533221951534
abababassg242
g0
(g147
g2
Ntp314
Rp315
(lp316
g67
aF0.0738032563269491
aF-1.0
absbag0
(g10
g2
Ntp317
Rp318
(dp319
g136
g139
sg140
I01
sg18
S'A Move to Contact primitive'
p320
sg142
I2
sg143
(lp321
g145
aS'force_threshold'
p322
aS'torque_threshold'
p323
asg146
cpanda_pbd.msg._MoveToContactGoal
MoveToContactGoal
p324
sg148
(dp325
S'force_threshold'
p326
(lp327
F5.0
aF20.0
asg150
(lp328
F0.01
aF0.25
assg152
(lp329
g0
(g324
g2
Ntp330
Rp331
(lp332
g0
(g22
g2
Ntp333
Rp334
(lp335
g0
(g26
g2
Ntp336
Rp337
(lp338
I0
ag0
(g30
g2
Ntp339
Rp340
(lp341
I0
aI0
abaS'panda_link0'
p342
abag0
(g35
g2
Ntp343
Rp344
(lp345
g0
(g39
g2
Ntp346
Rp347
(lp348
F0.48522597525926614
aF0.2760220039769015
aF0.06658220792782904
abag0
(g43
g2
Ntp349
Rp350
(lp351
F-0.6684704132562753
aF0.6785119972421104
aF0.22596807729879947
aF0.20422341746575107
abababaF0.07
aF-1.0
aF10.0
aF10.0
abag0
(g324
g2
Ntp352
Rp353
(lp354
g0
(g22
g2
Ntp355
Rp356
(lp357
g0
(g26
g2
Ntp358
Rp359
(lp360
I0
ag0
(g30
g2
Ntp361
Rp362
(lp363
I0
aI0
abag342
abag0
(g35
g2
Ntp364
Rp365
(lp366
g0
(g39
g2
Ntp367
Rp368
(lp369
F0.48522597525926614
aF0.2760220039769015
aF0.06658220792782904
abag0
(g43
g2
Ntp370
Rp371
(lp372
F-0.6684704132562753
aF0.6785119972421104
aF0.22596807729879947
aF0.20422341746575107
abababaF0.08026912433521169
aF-1.0
aF10.0
aF10.0
abag0
(g324
g2
Ntp373
Rp374
(lp375
g0
(g22
g2
Ntp376
Rp377
(lp378
g0
(g26
g2
Ntp379
Rp380
(lp381
I0
ag0
(g30
g2
Ntp382
Rp383
(lp384
I0
aI0
abag342
abag0
(g35
g2
Ntp385
Rp386
(lp387
g0
(g39
g2
Ntp388
Rp389
(lp390
F0.48522597525926614
aF0.2760220039769015
aF0.06658220792782904
abag0
(g43
g2
Ntp391
Rp392
(lp393
F-0.6684704132562753
aF0.6785119972421104
aF0.22596807729879947
aF0.20422341746575107
abababaF0.08026912433521169
aF-1.0
aF5.829129321894888
aF10.0
abag0
(g324
g2
Ntp394
Rp395
(lp396
g0
(g22
g2
Ntp397
Rp398
(lp399
g0
(g26
g2
Ntp400
Rp401
(lp402
I0
ag0
(g30
g2
Ntp403
Rp404
(lp405
I0
aI0
abag342
abag0
(g35
g2
Ntp406
Rp407
(lp408
g0
(g39
g2
Ntp409
Rp410
(lp411
F0.48522597525926614
aF0.2760220039769015
aF0.06658220792782904
abag0
(g43
g2
Ntp412
Rp413
(lp414
F-0.6684704132562753
aF0.6785119972421104
aF0.22596807729879947
aF0.20422341746575107
abababaF0.0388
aF-1.0
aF5.829129321894888
aF10.0
abag0
(g324
g2
Ntp415
Rp416
(lp417
g0
(g22
g2
Ntp418
Rp419
(lp420
g0
(g26
g2
Ntp421
Rp422
(lp423
I0
ag0
(g30
g2
Ntp424
Rp425
(lp426
I0
aI0
abag342
abag0
(g35
g2
Ntp427
Rp428
(lp429
g0
(g39
g2
Ntp430
Rp431
(lp432
F0.48522597525926614
aF0.2760220039769015
aF0.06658220792782904
abag0
(g43
g2
Ntp433
Rp434
(lp435
F-0.6684704132562753
aF0.6785119972421104
aF0.22596807729879947
aF0.20422341746575107
abababaF0.01
aF-1.0
aF5.829129321894888
aF10.0
abag0
(g324
g2
Ntp436
Rp437
(lp438
g0
(g22
g2
Ntp439
Rp440
(lp441
g0
(g26
g2
Ntp442
Rp443
(lp444
I0
ag0
(g30
g2
Ntp445
Rp446
(lp447
I0
aI0
abag342
abag0
(g35
g2
Ntp448
Rp449
(lp450
g0
(g39
g2
Ntp451
Rp452
(lp453
F0.48522597525926614
aF0.2760220039769015
aF0.06658220792782904
abag0
(g43
g2
Ntp454
Rp455
(lp456
F-0.6684704132562753
aF0.6785119972421104
aF0.22596807729879947
aF0.20422341746575107
abababaF0.0196
aF-1.0
aF5.829129321894888
aF10.0
abag0
(g324
g2
Ntp457
Rp458
(lp459
g0
(g22
g2
Ntp460
Rp461
(lp462
g0
(g26
g2
Ntp463
Rp464
(lp465
I0
ag0
(g30
g2
Ntp466
Rp467
(lp468
I0
aI0
abag342
abag0
(g35
g2
Ntp469
Rp470
(lp471
g0
(g39
g2
Ntp472
Rp473
(lp474
F0.48522597525926614
aF0.2760220039769015
aF0.06658220792782904
abag0
(g43
g2
Ntp475
Rp476
(lp477
F-0.6684704132562753
aF0.6785119972421104
aF0.22596807729879947
aF0.20422341746575107
abababaF0.01
aF-1.0
aF5.829129321894888
aF10.0
abag0
(g324
g2
Ntp478
Rp479
(lp480
g0
(g22
g2
Ntp481
Rp482
(lp483
g0
(g26
g2
Ntp484
Rp485
(lp486
I0
ag0
(g30
g2
Ntp487
Rp488
(lp489
I0
aI0
abag342
abag0
(g35
g2
Ntp490
Rp491
(lp492
g0
(g39
g2
Ntp493
Rp494
(lp495
F0.48522597525926614
aF0.2760220039769015
aF0.06658220792782904
abag0
(g43
g2
Ntp496
Rp497
(lp498
F-0.6684704132562753
aF0.6785119972421104
aF0.22596807729879947
aF0.20422341746575107
abababaF0.01
aF-1.0
aF6.8
aF10.0
abasg217
I0
sg218
(dp499
g322
F6.8
sg220
F0.01
sg221
(lp500
F-1.0
asg323
(lp501
F10.0
asg145
(lp502
g0
(g22
g2
Ntp503
Rp504
(lp505
g0
(g26
g2
Ntp506
Rp507
(lp508
I0
ag0
(g30
g2
Ntp509
Rp510
(lp511
I0
aI0
abag342
abag0
(g35
g2
Ntp512
Rp513
(lp514
g0
(g39
g2
Ntp515
Rp516
(lp517
F0.48522597525926614
aF0.2760220039769015
aF0.06658220792782904
abag0
(g43
g2
Ntp518
Rp519
(lp520
F-0.6684704132562753
aF0.6785119972421104
aF0.22596807729879947
aF0.20422341746575107
abababassg242
g0
(g324
g2
Ntp521
Rp522
(lp523
g0
(g22
g2
Ntp524
Rp525
(lp526
g0
(g26
g2
Ntp527
Rp528
(lp529
I0
ag0
(g30
g2
Ntp530
Rp531
(lp532
I0
aI0
abag342
abag0
(g35
g2
Ntp533
Rp534
(lp535
g0
(g39
g2
Ntp536
Rp537
(lp538
F0.48522597525926614
aF0.2760220039769015
aF0.06658220792782904
abag0
(g43
g2
Ntp539
Rp540
(lp541
F-0.6684704132562753
aF0.6785119972421104
aF0.22596807729879947
aF0.20422341746575107
abababaF0.01
aF-1.0
aF6.8
aF10.0
absbag0
(g8
g2
Ntp542
Rp543
(dp544
g136
g139
sg140
I01
sg18
g141
sg142
I3
sg143
(lp545
g145
asg146
g147
sg148
g149
sg152
(lp546
g0
(g147
g2
Ntp547
Rp548
(lp549
g0
(g22
g2
Ntp550
Rp551
(lp552
g0
(g26
g2
Ntp553
Rp554
(lp555
I0
ag0
(g30
g2
Ntp556
Rp557
(lp558
I0
aI0
abag113
abag0
(g35
g2
Ntp559
Rp560
(lp561
g0
(g39
g2
Ntp562
Rp563
(lp564
F0.45994461169103945
aF-0.053965652564801334
aF0.3414368641542338
abag0
(g43
g2
Ntp565
Rp566
(lp567
F0.9989220383304196
aF-0.03026478824798525
aF0.02526619563073721
aF-0.02450353624384985
abababaF0.07
aF-1.0
abag0
(g147
g2
Ntp568
Rp569
(lp570
g0
(g22
g2
Ntp571
Rp572
(lp573
g0
(g26
g2
Ntp574
Rp575
(lp576
I0
ag0
(g30
g2
Ntp577
Rp578
(lp579
I0
aI0
abag113
abag0
(g35
g2
Ntp580
Rp581
(lp582
g0
(g39
g2
Ntp583
Rp584
(lp585
F0.45994461169103945
aF-0.053965652564801334
aF0.3414368641542338
abag0
(g43
g2
Ntp586
Rp587
(lp588
F0.9989220383304196
aF-0.03026478824798525
aF0.02526619563073721
aF-0.02450353624384985
abababaF0.1525361948539736
aF-1.0
abasg217
I0
sg218
(dp589
g220
F0.1525361948539736
sg221
(lp590
F-1.0
asg145
(lp591
g0
(g22
g2
Ntp592
Rp593
(lp594
g0
(g26
g2
Ntp595
Rp596
(lp597
I0
ag0
(g30
g2
Ntp598
Rp599
(lp600
I0
aI0
abag113
abag0
(g35
g2
Ntp601
Rp602
(lp603
g0
(g39
g2
Ntp604
Rp605
(lp606
F0.45994461169103945
aF-0.053965652564801334
aF0.3414368641542338
abag0
(g43
g2
Ntp607
Rp608
(lp609
F0.9989220383304196
aF-0.03026478824798525
aF0.02526619563073721
aF-0.02450353624384985
abababassg242
g0
(g147
g2
Ntp610
Rp611
(lp612
g105
aF0.1525361948539736
aF-1.0
absbasS'name'
p613
S'A Panda Program'
p614
sb.